ARM GAS  C:\Users\11401393\AppData\Local\Temp\ccZ3pqKX.s 			page 1


   1              		.cpu cortex-m0
   2              		.fpu softvfp
   3              		.eabi_attribute 20, 1
   4              		.eabi_attribute 21, 1
   5              		.eabi_attribute 23, 3
   6              		.eabi_attribute 24, 1
   7              		.eabi_attribute 25, 1
   8              		.eabi_attribute 26, 1
   9              		.eabi_attribute 30, 1
  10              		.eabi_attribute 34, 0
  11              		.eabi_attribute 18, 4
  12              		.code	16
  13              		.file	"CapSense_SMS.c"
  14              		.text
  15              	.Ltext0:
  16              		.cfi_sections	.debug_frame
  17              		.section	.text.CapSense_UpdateThresholds,"ax",%progbits
  18              		.align	2
  19              		.global	CapSense_UpdateThresholds
  20              		.code	16
  21              		.thumb_func
  22              		.type	CapSense_UpdateThresholds, %function
  23              	CapSense_UpdateThresholds:
  24              	.LFB35:
  25              		.file 1 ".\\Generated_Source\\PSoC4\\CapSense_SMS.c"
   1:.\Generated_Source\PSoC4/CapSense_SMS.c **** /*******************************************************************************
   2:.\Generated_Source\PSoC4/CapSense_SMS.c **** * File Name: CapSense_SMS.c
   3:.\Generated_Source\PSoC4/CapSense_SMS.c **** * Version 2.20
   4:.\Generated_Source\PSoC4/CapSense_SMS.c **** *
   5:.\Generated_Source\PSoC4/CapSense_SMS.c **** * Description:
   6:.\Generated_Source\PSoC4/CapSense_SMS.c **** *  This file provides the source code of wrapper between CapSense CSD component 
   7:.\Generated_Source\PSoC4/CapSense_SMS.c **** *  and Auto Tuning library.
   8:.\Generated_Source\PSoC4/CapSense_SMS.c **** *
   9:.\Generated_Source\PSoC4/CapSense_SMS.c **** * Note:
  10:.\Generated_Source\PSoC4/CapSense_SMS.c **** *
  11:.\Generated_Source\PSoC4/CapSense_SMS.c **** ********************************************************************************
  12:.\Generated_Source\PSoC4/CapSense_SMS.c **** * Copyright 2014, Cypress Semiconductor Corporation.  All rights reserved.
  13:.\Generated_Source\PSoC4/CapSense_SMS.c **** * You may use this file only in accordance with the license, terms, conditions,
  14:.\Generated_Source\PSoC4/CapSense_SMS.c **** * disclaimers, and limitations in the end user license agreement accompanying
  15:.\Generated_Source\PSoC4/CapSense_SMS.c **** * the software package with which this file was provided.
  16:.\Generated_Source\PSoC4/CapSense_SMS.c **** *******************************************************************************/
  17:.\Generated_Source\PSoC4/CapSense_SMS.c **** 
  18:.\Generated_Source\PSoC4/CapSense_SMS.c **** #include "CapSense_SMS.h"
  19:.\Generated_Source\PSoC4/CapSense_SMS.c **** #include "CapSense_PVT.h"
  20:.\Generated_Source\PSoC4/CapSense_SMS.c **** 
  21:.\Generated_Source\PSoC4/CapSense_SMS.c **** #include "cytypes.h"
  22:.\Generated_Source\PSoC4/CapSense_SMS.c **** 
  23:.\Generated_Source\PSoC4/CapSense_SMS.c **** #if (CapSense_TUNING_METHOD == CapSense__TUNING_AUTO)
  24:.\Generated_Source\PSoC4/CapSense_SMS.c **** 
  25:.\Generated_Source\PSoC4/CapSense_SMS.c **** 
  26:.\Generated_Source\PSoC4/CapSense_SMS.c **** /*  Real Charge Divider values */
  27:.\Generated_Source\PSoC4/CapSense_SMS.c **** #if (CY_PSOC4_4100BL || CY_PSOC4_4200BL || CY_PSOC4_4100M || CY_PSOC4_4200M)
  28:.\Generated_Source\PSoC4/CapSense_SMS.c ****     /*  Dividers are not chained */
  29:.\Generated_Source\PSoC4/CapSense_SMS.c **** 	#if (CYDEV_BCLK__HFCLK__MHZ > 24u)
  30:.\Generated_Source\PSoC4/CapSense_SMS.c **** 		const uint8 prescalerTable[CapSense_PRESCALERS_TBL_SIZE] = {
  31:.\Generated_Source\PSoC4/CapSense_SMS.c **** 			4u,     4u,     4u,    8u,    8u,    8u,    8u,    16u,    16u,    16u,    16u,    16u,    16u, 
  32:.\Generated_Source\PSoC4/CapSense_SMS.c **** 		};
ARM GAS  C:\Users\11401393\AppData\Local\Temp\ccZ3pqKX.s 			page 2


  33:.\Generated_Source\PSoC4/CapSense_SMS.c **** 	#elif (CYDEV_BCLK__HFCLK__MHZ >12u)
  34:.\Generated_Source\PSoC4/CapSense_SMS.c **** 		const uint8 prescalerTable[CapSense_PRESCALERS_TBL_SIZE] = {
  35:.\Generated_Source\PSoC4/CapSense_SMS.c **** 			2u,     2u,     2u,    4u,    4u,    4u,    4u,    8u,    8u,    8u,    8u,    8u,    8u,    8u,
  36:.\Generated_Source\PSoC4/CapSense_SMS.c **** 		};
  37:.\Generated_Source\PSoC4/CapSense_SMS.c **** 	#else   /* (CYDEV_BCLK__HFCLK__MHZ > 12u) */
  38:.\Generated_Source\PSoC4/CapSense_SMS.c **** 		const uint8 prescalerTable[CapSense_PRESCALERS_TBL_SIZE] = {
  39:.\Generated_Source\PSoC4/CapSense_SMS.c **** 			1u,     1u,     1u,    2u,    2u,    2u,    2u,    4u,    4u,    4u,    4u,    4u,    4u,    4u,
  40:.\Generated_Source\PSoC4/CapSense_SMS.c **** 		};
  41:.\Generated_Source\PSoC4/CapSense_SMS.c **** 	#endif /* (CYDEV_BCLK__HFCLK__MHZ > 24u) */
  42:.\Generated_Source\PSoC4/CapSense_SMS.c **** 	
  43:.\Generated_Source\PSoC4/CapSense_SMS.c **** #elif (0u != CapSense_IS_M0S8PERI_BLOCK)
  44:.\Generated_Source\PSoC4/CapSense_SMS.c ****     /*  Dividers are not chained (PSoC 4000) */
  45:.\Generated_Source\PSoC4/CapSense_SMS.c **** 	#if (CYDEV_BCLK__HFCLK__MHZ >= 12u)
  46:.\Generated_Source\PSoC4/CapSense_SMS.c **** 		const uint8 prescalerTable[CapSense_PRESCALERS_TBL_SIZE] = {
  47:.\Generated_Source\PSoC4/CapSense_SMS.c **** 			1u,     1u,     1u,    2u,    2u,    2u,    2u,    4u,    4u,    4u,    4u,    4u,    4u,    4u,
  48:.\Generated_Source\PSoC4/CapSense_SMS.c **** 		};
  49:.\Generated_Source\PSoC4/CapSense_SMS.c **** 
  50:.\Generated_Source\PSoC4/CapSense_SMS.c **** 	#elif (CYDEV_BCLK__HFCLK__MHZ >= 6u)
  51:.\Generated_Source\PSoC4/CapSense_SMS.c **** 		const uint8 prescalerTable[CapSense_PRESCALERS_TBL_SIZE] = {
  52:.\Generated_Source\PSoC4/CapSense_SMS.c **** 			1u,     1u,     1u,    1u,    1u,    1u,    1u,    2u,    2u,    2u,    2u,    2u,    2u,    2u,
  53:.\Generated_Source\PSoC4/CapSense_SMS.c **** 		};
  54:.\Generated_Source\PSoC4/CapSense_SMS.c **** 	#else
  55:.\Generated_Source\PSoC4/CapSense_SMS.c **** 		const uint8 prescalerTable[CapSense_PRESCALERS_TBL_SIZE] = {
  56:.\Generated_Source\PSoC4/CapSense_SMS.c **** 			1u,     1u,     1u,    1u,    1u,    1u,    1u,    1u,    1u,    1u,    1u,    1u,    1u,    1u,
  57:.\Generated_Source\PSoC4/CapSense_SMS.c **** 		};
  58:.\Generated_Source\PSoC4/CapSense_SMS.c **** 	#endif /* (CYDEV_BCLK__HFCLK__MHZ > 12u) */
  59:.\Generated_Source\PSoC4/CapSense_SMS.c **** 
  60:.\Generated_Source\PSoC4/CapSense_SMS.c **** #else
  61:.\Generated_Source\PSoC4/CapSense_SMS.c ****     /*  Dividers are chained (PSoC 4100, PSoC 4200) */ 
  62:.\Generated_Source\PSoC4/CapSense_SMS.c **** 	#if (CYDEV_BCLK__HFCLK__MHZ > 24u)
  63:.\Generated_Source\PSoC4/CapSense_SMS.c **** 		const uint8 prescalerTable[CapSense_PRESCALERS_TBL_SIZE] = {
  64:.\Generated_Source\PSoC4/CapSense_SMS.c **** 			2u,     2u,     2u,    4u,    4u,    4u,    4u,    8u,    8u,    8u,    8u,    8u,    8u,    8u,
  65:.\Generated_Source\PSoC4/CapSense_SMS.c **** 		};
  66:.\Generated_Source\PSoC4/CapSense_SMS.c **** 
  67:.\Generated_Source\PSoC4/CapSense_SMS.c **** 	#elif (CYDEV_BCLK__HFCLK__MHZ >12u)
  68:.\Generated_Source\PSoC4/CapSense_SMS.c **** 		const uint8 prescalerTable[CapSense_PRESCALERS_TBL_SIZE] = {
  69:.\Generated_Source\PSoC4/CapSense_SMS.c **** 			1u,     1u,     1u,    2u,    2u,    2u,    2u,    4u,    4u,    4u,    4u,    4u,    4u,    4u,
  70:.\Generated_Source\PSoC4/CapSense_SMS.c **** 		};
  71:.\Generated_Source\PSoC4/CapSense_SMS.c **** 	#else   /* (CYDEV_BCLK__HFCLK__MHZ > 12u) */
  72:.\Generated_Source\PSoC4/CapSense_SMS.c **** 		const uint8 prescalerTable[CapSense_PRESCALERS_TBL_SIZE] = {
  73:.\Generated_Source\PSoC4/CapSense_SMS.c **** 			1u,     1u,     1u,    1u,    1u,    1u,    1u,    2u,    2u,    2u,    2u,    2u,    2u,    2u,
  74:.\Generated_Source\PSoC4/CapSense_SMS.c **** 		};
  75:.\Generated_Source\PSoC4/CapSense_SMS.c **** 	#endif /* (CYDEV_BCLK__HFCLK__MHZ > 24u) */
  76:.\Generated_Source\PSoC4/CapSense_SMS.c **** #endif /* (CY_PSOC4_4100BL || CY_PSOC4_4200BL || CY_PSOC4_4100M || CY_PSOC4_4200M) */
  77:.\Generated_Source\PSoC4/CapSense_SMS.c **** 
  78:.\Generated_Source\PSoC4/CapSense_SMS.c **** 
  79:.\Generated_Source\PSoC4/CapSense_SMS.c **** uint8 noiseEnvelopeTbl[CapSense_TOTAL_SENSOR_COUNT];
  80:.\Generated_Source\PSoC4/CapSense_SMS.c **** uint8 runningDifferenceTbl[CapSense_TOTAL_SENSOR_COUNT];
  81:.\Generated_Source\PSoC4/CapSense_SMS.c **** uint8 signRegisterTbl[CapSense_TOTAL_SENSOR_COUNT];
  82:.\Generated_Source\PSoC4/CapSense_SMS.c **** uint16 sampleMinTbl[CapSense_TOTAL_SENSOR_COUNT];
  83:.\Generated_Source\PSoC4/CapSense_SMS.c **** uint16 sampleMaxTbl[CapSense_TOTAL_SENSOR_COUNT];
  84:.\Generated_Source\PSoC4/CapSense_SMS.c **** uint16 previousSampleTbl[CapSense_TOTAL_SENSOR_COUNT];
  85:.\Generated_Source\PSoC4/CapSense_SMS.c **** uint8 kValueTbl[CapSense_TOTAL_SENSOR_COUNT];
  86:.\Generated_Source\PSoC4/CapSense_SMS.c **** 
  87:.\Generated_Source\PSoC4/CapSense_SMS.c **** uint8 SMS_LIB_SensorSensitivity[] = {
  88:.\Generated_Source\PSoC4/CapSense_SMS.c ****     2u, 2u, 2u, 2u, 2u, 2u, 2u, 2u, 2u, 2u, 2u, 2u, 
  89:.\Generated_Source\PSoC4/CapSense_SMS.c **** };
ARM GAS  C:\Users\11401393\AppData\Local\Temp\ccZ3pqKX.s 			page 3


  90:.\Generated_Source\PSoC4/CapSense_SMS.c **** 
  91:.\Generated_Source\PSoC4/CapSense_SMS.c **** CapSense_CONFIG_TYPE_P4_v2_20 CapSense_config;
  92:.\Generated_Source\PSoC4/CapSense_SMS.c **** CapSense_CONFIG_TYPE_POINTERS_P4_v2_20 const CapSense_configPointers = {
  93:.\Generated_Source\PSoC4/CapSense_SMS.c ****     CapSense_modulationIDAC,
  94:.\Generated_Source\PSoC4/CapSense_SMS.c ****     CapSense_compensationIDAC,
  95:.\Generated_Source\PSoC4/CapSense_SMS.c ****      SMS_LIB_SensorSensitivity,
  96:.\Generated_Source\PSoC4/CapSense_SMS.c ****     CapSense_senseClkDividerVal,
  97:.\Generated_Source\PSoC4/CapSense_SMS.c ****     CapSense_sampleClkDividerVal,
  98:.\Generated_Source\PSoC4/CapSense_SMS.c ****     CapSense_widgetNumber,
  99:.\Generated_Source\PSoC4/CapSense_SMS.c ****     CapSense_widgetResolution,
 100:.\Generated_Source\PSoC4/CapSense_SMS.c **** 	(const uint8  *)CapSense_rawDataIndex,
 101:.\Generated_Source\PSoC4/CapSense_SMS.c **** 	(const uint8  *)CapSense_numberOfSensors,
 102:.\Generated_Source\PSoC4/CapSense_SMS.c ****     &CapSense_GetSensorRaw,
 103:.\Generated_Source\PSoC4/CapSense_SMS.c ****     &CapSense_PreScan,
 104:.\Generated_Source\PSoC4/CapSense_SMS.c ****     &CapSense_ReadSensorRaw,
 105:.\Generated_Source\PSoC4/CapSense_SMS.c ****     &CapSense_GetBitValue,
 106:.\Generated_Source\PSoC4/CapSense_SMS.c **** 	&CapSense_SetBitValue
 107:.\Generated_Source\PSoC4/CapSense_SMS.c **** };
 108:.\Generated_Source\PSoC4/CapSense_SMS.c **** 
 109:.\Generated_Source\PSoC4/CapSense_SMS.c **** 
 110:.\Generated_Source\PSoC4/CapSense_SMS.c **** /*******************************************************************************
 111:.\Generated_Source\PSoC4/CapSense_SMS.c **** * Function Name: CapSense_AutoTune
 112:.\Generated_Source\PSoC4/CapSense_SMS.c **** ********************************************************************************
 113:.\Generated_Source\PSoC4/CapSense_SMS.c **** *
 114:.\Generated_Source\PSoC4/CapSense_SMS.c **** * Summary:
 115:.\Generated_Source\PSoC4/CapSense_SMS.c **** *  Provides the tuning procedure for all sensors.
 116:.\Generated_Source\PSoC4/CapSense_SMS.c **** *
 117:.\Generated_Source\PSoC4/CapSense_SMS.c **** * Parameters:
 118:.\Generated_Source\PSoC4/CapSense_SMS.c **** *  None
 119:.\Generated_Source\PSoC4/CapSense_SMS.c **** *
 120:.\Generated_Source\PSoC4/CapSense_SMS.c **** * Return:
 121:.\Generated_Source\PSoC4/CapSense_SMS.c **** *  None
 122:.\Generated_Source\PSoC4/CapSense_SMS.c **** *
 123:.\Generated_Source\PSoC4/CapSense_SMS.c **** * Global Variables:
 124:.\Generated_Source\PSoC4/CapSense_SMS.c **** *   CapSense_config: the structure which contains configuration parameters
 125:.\Generated_Source\PSoC4/CapSense_SMS.c **** *   CapSense_senseClkDividerVal[]: used to store the Analog Switch 
 126:.\Generated_Source\PSoC4/CapSense_SMS.c **** *   dividers for each sensor.
 127:.\Generated_Source\PSoC4/CapSense_SMS.c **** *   CapSense_senseClkDividerVal[]: used to store the 
 128:.\Generated_Source\PSoC4/CapSense_SMS.c **** *    Analog Switch divider for all sensors.
 129:.\Generated_Source\PSoC4/CapSense_SMS.c **** *   CapSense_prescalersTuningDone - used to notify the Tuner GUI that 
 130:.\Generated_Source\PSoC4/CapSense_SMS.c **** *   the pre-scalers tuning  is done.
 131:.\Generated_Source\PSoC4/CapSense_SMS.c **** *
 132:.\Generated_Source\PSoC4/CapSense_SMS.c **** * Side Effects:
 133:.\Generated_Source\PSoC4/CapSense_SMS.c **** *  None
 134:.\Generated_Source\PSoC4/CapSense_SMS.c **** *
 135:.\Generated_Source\PSoC4/CapSense_SMS.c **** *******************************************************************************/
 136:.\Generated_Source\PSoC4/CapSense_SMS.c **** void CapSense_AutoTune(void)
 137:.\Generated_Source\PSoC4/CapSense_SMS.c **** {
 138:.\Generated_Source\PSoC4/CapSense_SMS.c **** 	uint32 curSensor;
 139:.\Generated_Source\PSoC4/CapSense_SMS.c ****     uint32 widget;
 140:.\Generated_Source\PSoC4/CapSense_SMS.c **** 
 141:.\Generated_Source\PSoC4/CapSense_SMS.c **** 	CapSense_config.totalScanslotsNum = CapSense_TOTAL_SCANSLOT_COUNT;
 142:.\Generated_Source\PSoC4/CapSense_SMS.c **** 	CapSense_config.totalWidgetsNum = CapSense_END_OF_WIDGETS_INDEX;
 143:.\Generated_Source\PSoC4/CapSense_SMS.c **** 	CapSense_config.totalSensorsNum = CapSense_TOTAL_SENSOR_COUNT;
 144:.\Generated_Source\PSoC4/CapSense_SMS.c **** 	
 145:.\Generated_Source\PSoC4/CapSense_SMS.c **** 	CapSense_config.hfclkFreq_MHz = CYDEV_BCLK__HFCLK__MHZ;
 146:.\Generated_Source\PSoC4/CapSense_SMS.c **** 	CapSense_config.sensetivitySeed = CapSense_SENSETIVITY_FACTOR;
ARM GAS  C:\Users\11401393\AppData\Local\Temp\ccZ3pqKX.s 			page 4


 147:.\Generated_Source\PSoC4/CapSense_SMS.c **** 	
 148:.\Generated_Source\PSoC4/CapSense_SMS.c ****     CapSense_config.pointers = &CapSense_configPointers;       
 149:.\Generated_Source\PSoC4/CapSense_SMS.c ****     
 150:.\Generated_Source\PSoC4/CapSense_SMS.c **** 	CapSense_SetAnalogSwitchesSrcDirect();
 151:.\Generated_Source\PSoC4/CapSense_SMS.c ****     
 152:.\Generated_Source\PSoC4/CapSense_SMS.c ****     for(widget = 0u; widget < CapSense_config.totalWidgetsNum; widget++)
 153:.\Generated_Source\PSoC4/CapSense_SMS.c ****     {
 154:.\Generated_Source\PSoC4/CapSense_SMS.c ****         CapSense_widgetResolution[widget] = CapSense_CALIBRATION_RESOLUTION;
 155:.\Generated_Source\PSoC4/CapSense_SMS.c ****     }
 156:.\Generated_Source\PSoC4/CapSense_SMS.c **** 	
 157:.\Generated_Source\PSoC4/CapSense_SMS.c **** 
 158:.\Generated_Source\PSoC4/CapSense_SMS.c **** 	for(curSensor = 0u; curSensor < CapSense_TOTAL_SCANSLOT_COUNT; curSensor++)
 159:.\Generated_Source\PSoC4/CapSense_SMS.c ****     {
 160:.\Generated_Source\PSoC4/CapSense_SMS.c **** 		CapSense_senseClkDividerVal[curSensor] = CapSense_CALIBRATION_ASD;
 161:.\Generated_Source\PSoC4/CapSense_SMS.c **** 		CapSense_sampleClkDividerVal[curSensor] = CapSense_CALIBRATION_MD;
 162:.\Generated_Source\PSoC4/CapSense_SMS.c **** 	}
 163:.\Generated_Source\PSoC4/CapSense_SMS.c ****     
 164:.\Generated_Source\PSoC4/CapSense_SMS.c ****     CapSense_DisableBaselineIDAC();
 165:.\Generated_Source\PSoC4/CapSense_SMS.c **** 
 166:.\Generated_Source\PSoC4/CapSense_SMS.c ****     CalibrateSensors_P4_v2_20(&CapSense_config, CapSense_CAL_RAW_COUNT);
 167:.\Generated_Source\PSoC4/CapSense_SMS.c **** 
 168:.\Generated_Source\PSoC4/CapSense_SMS.c **** 	#if(0u != CapSense_TOTAL_CENTROIDS_COUNT) 
 169:.\Generated_Source\PSoC4/CapSense_SMS.c **** 		CapSense_NormalizeWidgets(CapSense_END_OF_WIDGETS_INDEX, CapSense_modulationIDAC);
 170:.\Generated_Source\PSoC4/CapSense_SMS.c **** 	#endif /* (0u != CapSense_TOTAL_CENTROIDS_COUNT)  */
 171:.\Generated_Source\PSoC4/CapSense_SMS.c **** 	
 172:.\Generated_Source\PSoC4/CapSense_SMS.c ****     TunePrescalers_P4_v2_20(&CapSense_config);
 173:.\Generated_Source\PSoC4/CapSense_SMS.c **** 	
 174:.\Generated_Source\PSoC4/CapSense_SMS.c **** 	#if(CapSense_PRS_OPTIONS != CapSense__PRS_NONE)
 175:.\Generated_Source\PSoC4/CapSense_SMS.c **** 		CapSense_prescalersTuningDone = 1u;
 176:.\Generated_Source\PSoC4/CapSense_SMS.c **** 	#endif /* (CapSense_PRS_OPTIONS == CapSense__PRS_NONE) */
 177:.\Generated_Source\PSoC4/CapSense_SMS.c ****        
 178:.\Generated_Source\PSoC4/CapSense_SMS.c ****     CalibrateSensors_P4_v2_20(&CapSense_config, CapSense_CAL_RAW_COUNT);
 179:.\Generated_Source\PSoC4/CapSense_SMS.c **** 	#if(0u != CapSense_TOTAL_CENTROIDS_COUNT)
 180:.\Generated_Source\PSoC4/CapSense_SMS.c **** 		CapSense_NormalizeWidgets(CapSense_END_OF_WIDGETS_INDEX, CapSense_modulationIDAC);
 181:.\Generated_Source\PSoC4/CapSense_SMS.c **** 	#endif /* (0u != CapSense_TOTAL_CENTROIDS_COUNT)  */
 182:.\Generated_Source\PSoC4/CapSense_SMS.c ****     TuneSensitivity_P4_v2_20(&CapSense_config);
 183:.\Generated_Source\PSoC4/CapSense_SMS.c **** 	
 184:.\Generated_Source\PSoC4/CapSense_SMS.c **** 	CapSense_EnableBaselineIDAC(&CapSense_config);
 185:.\Generated_Source\PSoC4/CapSense_SMS.c ****     
 186:.\Generated_Source\PSoC4/CapSense_SMS.c ****     for(curSensor = 0u; curSensor < CapSense_TOTAL_SCANSLOT_COUNT; curSensor++)
 187:.\Generated_Source\PSoC4/CapSense_SMS.c ****     {
 188:.\Generated_Source\PSoC4/CapSense_SMS.c ****         CapSense_UpdateThresholds(curSensor);
 189:.\Generated_Source\PSoC4/CapSense_SMS.c ****     }
 190:.\Generated_Source\PSoC4/CapSense_SMS.c **** }
 191:.\Generated_Source\PSoC4/CapSense_SMS.c **** 
 192:.\Generated_Source\PSoC4/CapSense_SMS.c **** 
 193:.\Generated_Source\PSoC4/CapSense_SMS.c **** /*******************************************************************************
 194:.\Generated_Source\PSoC4/CapSense_SMS.c **** * Function Name: CapSense_UpdateThresholds
 195:.\Generated_Source\PSoC4/CapSense_SMS.c **** ********************************************************************************
 196:.\Generated_Source\PSoC4/CapSense_SMS.c **** *
 197:.\Generated_Source\PSoC4/CapSense_SMS.c **** * Summary:
 198:.\Generated_Source\PSoC4/CapSense_SMS.c **** *  The API updates the Finger Threshold, Hysteresis, Noise Threshold, and 
 199:.\Generated_Source\PSoC4/CapSense_SMS.c **** *  Negative Noise Threshold in the AutoTuning (Smartsense) Mode.
 200:.\Generated_Source\PSoC4/CapSense_SMS.c **** *
 201:.\Generated_Source\PSoC4/CapSense_SMS.c **** * Parameters:
 202:.\Generated_Source\PSoC4/CapSense_SMS.c **** *  sensor: sensor number.
 203:.\Generated_Source\PSoC4/CapSense_SMS.c **** *
ARM GAS  C:\Users\11401393\AppData\Local\Temp\ccZ3pqKX.s 			page 5


 204:.\Generated_Source\PSoC4/CapSense_SMS.c **** * Return:
 205:.\Generated_Source\PSoC4/CapSense_SMS.c **** *  None
 206:.\Generated_Source\PSoC4/CapSense_SMS.c **** *
 207:.\Generated_Source\PSoC4/CapSense_SMS.c **** * Global Variables:
 208:.\Generated_Source\PSoC4/CapSense_SMS.c **** *  CapSense_widgetNumber[] - contains widget Number for given sensor.
 209:.\Generated_Source\PSoC4/CapSense_SMS.c **** *  0 through 7 (sensor 0 is bit 0, sensor 1 is bit 1).
 210:.\Generated_Source\PSoC4/CapSense_SMS.c **** *  For other sensors the array element equals to 255. 
 211:.\Generated_Source\PSoC4/CapSense_SMS.c **** *  CapSense_numberOfSensors[widget] - Number of sensors in the widget.
 212:.\Generated_Source\PSoC4/CapSense_SMS.c **** *   CapSense_fingerThreshold[] - contains the level of signal for each sensor
 213:.\Generated_Source\PSoC4/CapSense_SMS.c **** *   that determines if a finger present on the sensor.
 214:.\Generated_Source\PSoC4/CapSense_SMS.c **** *   CapSense_negativeNoiseThreshold[] - negative Noise Threshold
 215:.\Generated_Source\PSoC4/CapSense_SMS.c **** *   CapSense_hysteresis[] - the array with hysteresis values.
 216:.\Generated_Source\PSoC4/CapSense_SMS.c **** *
 217:.\Generated_Source\PSoC4/CapSense_SMS.c **** * Side Effects:
 218:.\Generated_Source\PSoC4/CapSense_SMS.c **** *  None
 219:.\Generated_Source\PSoC4/CapSense_SMS.c **** *
 220:.\Generated_Source\PSoC4/CapSense_SMS.c **** *******************************************************************************/
 221:.\Generated_Source\PSoC4/CapSense_SMS.c **** void CapSense_UpdateThresholds(uint32 sensor)
 222:.\Generated_Source\PSoC4/CapSense_SMS.c **** {
  26              		.loc 1 222 0
  27              		.cfi_startproc
  28              	.LVL0:
 223:.\Generated_Source\PSoC4/CapSense_SMS.c **** 	uint8 fingerThreshold;
 224:.\Generated_Source\PSoC4/CapSense_SMS.c **** 	uint32 widget;
 225:.\Generated_Source\PSoC4/CapSense_SMS.c **** 	
 226:.\Generated_Source\PSoC4/CapSense_SMS.c **** 	widget = CapSense_widgetNumber[sensor];
  29              		.loc 1 226 0
  30 0000 064B     		ldr	r3, .L2
  31 0002 1B5C     		ldrb	r3, [r3, r0]
  32              	.LVL1:
 227:.\Generated_Source\PSoC4/CapSense_SMS.c **** 
 228:.\Generated_Source\PSoC4/CapSense_SMS.c **** 	#if(0u != CapSense_FLEXIBLE_THRESHOLDS_EN)
 229:.\Generated_Source\PSoC4/CapSense_SMS.c **** 	    fingerThreshold = CapSense_fingerThreshold[widget];
  33              		.loc 1 229 0
  34 0004 064A     		ldr	r2, .L2+4
  35 0006 D25C     		ldrb	r2, [r2, r3]
  36              	.LVL2:
 230:.\Generated_Source\PSoC4/CapSense_SMS.c ****         /* Update Threshold manually (flexible) */   
 231:.\Generated_Source\PSoC4/CapSense_SMS.c **** 		CapSense_noiseThreshold[widget] = (uint8)(fingerThreshold >> 1u);
  37              		.loc 1 231 0
  38 0008 5108     		lsr	r1, r2, #1
  39 000a 0648     		ldr	r0, .L2+8
  40              	.LVL3:
  41 000c C154     		strb	r1, [r0, r3]
 232:.\Generated_Source\PSoC4/CapSense_SMS.c **** 		CapSense_negativeNoiseThreshold[widget] = (uint8)(fingerThreshold >> 1u);
  42              		.loc 1 232 0
  43 000e 0648     		ldr	r0, .L2+12
  44 0010 C154     		strb	r1, [r0, r3]
 233:.\Generated_Source\PSoC4/CapSense_SMS.c **** 		CapSense_hysteresis[widget] = (uint8)(fingerThreshold >> 3u);
  45              		.loc 1 233 0
  46 0012 D208     		lsr	r2, r2, #3
  47 0014 0549     		ldr	r1, .L2+16
  48 0016 CA54     		strb	r2, [r1, r3]
 234:.\Generated_Source\PSoC4/CapSense_SMS.c **** 	#else
 235:.\Generated_Source\PSoC4/CapSense_SMS.c **** 		/* Calculate Finger Threshold and Noise Threshold with Smartsense (automatic) */ 	
 236:.\Generated_Source\PSoC4/CapSense_SMS.c **** 		CalculateThresholds_P4_v2_20(&CapSense_config, (uint8)sensor, CapSense_sensorRaw, (uint8)widget, 
 237:.\Generated_Source\PSoC4/CapSense_SMS.c **** 		
ARM GAS  C:\Users\11401393\AppData\Local\Temp\ccZ3pqKX.s 			page 6


 238:.\Generated_Source\PSoC4/CapSense_SMS.c **** 	    fingerThreshold = CapSense_fingerThreshold[widget];
 239:.\Generated_Source\PSoC4/CapSense_SMS.c **** 		
 240:.\Generated_Source\PSoC4/CapSense_SMS.c **** 	    /* Update Threshold based on calculated with Smartsense (automatic) */
 241:.\Generated_Source\PSoC4/CapSense_SMS.c **** 		CapSense_negativeNoiseThreshold[widget] = CapSense_noiseThreshold[widget];
 242:.\Generated_Source\PSoC4/CapSense_SMS.c ****         
 243:.\Generated_Source\PSoC4/CapSense_SMS.c **** 		if(fingerThreshold < CapSense_THRESHOLD_1)
 244:.\Generated_Source\PSoC4/CapSense_SMS.c **** 		{
 245:.\Generated_Source\PSoC4/CapSense_SMS.c **** 			CapSense_hysteresis[widget] = (uint8)(fingerThreshold >> 3u);
 246:.\Generated_Source\PSoC4/CapSense_SMS.c **** 		}
 247:.\Generated_Source\PSoC4/CapSense_SMS.c **** 		else if(fingerThreshold <  CapSense_THRESHOLD_2)
 248:.\Generated_Source\PSoC4/CapSense_SMS.c **** 		{
 249:.\Generated_Source\PSoC4/CapSense_SMS.c **** 			CapSense_hysteresis[widget] = (uint8)(fingerThreshold >> 4u);
 250:.\Generated_Source\PSoC4/CapSense_SMS.c **** 		}
 251:.\Generated_Source\PSoC4/CapSense_SMS.c **** 		else if(fingerThreshold <  CapSense_THRESHOLD_3)
 252:.\Generated_Source\PSoC4/CapSense_SMS.c **** 		{
 253:.\Generated_Source\PSoC4/CapSense_SMS.c **** 			CapSense_hysteresis[widget] = (uint8)(fingerThreshold >> 5u);
 254:.\Generated_Source\PSoC4/CapSense_SMS.c **** 		}
 255:.\Generated_Source\PSoC4/CapSense_SMS.c **** 		else if(fingerThreshold <  CapSense_THRESHOLD_4)
 256:.\Generated_Source\PSoC4/CapSense_SMS.c **** 		{
 257:.\Generated_Source\PSoC4/CapSense_SMS.c **** 			CapSense_hysteresis[widget] = (uint8)(fingerThreshold >> 6u);
 258:.\Generated_Source\PSoC4/CapSense_SMS.c **** 		}
 259:.\Generated_Source\PSoC4/CapSense_SMS.c **** 		else
 260:.\Generated_Source\PSoC4/CapSense_SMS.c **** 		{
 261:.\Generated_Source\PSoC4/CapSense_SMS.c **** 			CapSense_hysteresis[widget] = 0u;
 262:.\Generated_Source\PSoC4/CapSense_SMS.c **** 		}
 263:.\Generated_Source\PSoC4/CapSense_SMS.c **** 	#endif /* (0u != CapSense_FLEXIBLE_THRESHOLDS_EN)  */
 264:.\Generated_Source\PSoC4/CapSense_SMS.c **** }
  49              		.loc 1 264 0
  50              		@ sp needed
  51 0018 7047     		bx	lr
  52              	.L3:
  53 001a C046     		.align	2
  54              	.L2:
  55 001c 00000000 		.word	CapSense_widgetNumber
  56 0020 00000000 		.word	CapSense_fingerThreshold
  57 0024 00000000 		.word	CapSense_noiseThreshold
  58 0028 00000000 		.word	CapSense_negativeNoiseThreshold
  59 002c 00000000 		.word	CapSense_hysteresis
  60              		.cfi_endproc
  61              	.LFE35:
  62              		.size	CapSense_UpdateThresholds, .-CapSense_UpdateThresholds
  63              		.section	.text.CapSense_SetAnalogSwitchesSrcDirect,"ax",%progbits
  64              		.align	2
  65              		.global	CapSense_SetAnalogSwitchesSrcDirect
  66              		.code	16
  67              		.thumb_func
  68              		.type	CapSense_SetAnalogSwitchesSrcDirect, %function
  69              	CapSense_SetAnalogSwitchesSrcDirect:
  70              	.LFB36:
 265:.\Generated_Source\PSoC4/CapSense_SMS.c **** 
 266:.\Generated_Source\PSoC4/CapSense_SMS.c **** /*******************************************************************************
 267:.\Generated_Source\PSoC4/CapSense_SMS.c **** * Function Name: CapSense_SetAnalogSwitchesSrcDirect
 268:.\Generated_Source\PSoC4/CapSense_SMS.c **** ********************************************************************************
 269:.\Generated_Source\PSoC4/CapSense_SMS.c **** *
 270:.\Generated_Source\PSoC4/CapSense_SMS.c **** * Summary:
 271:.\Generated_Source\PSoC4/CapSense_SMS.c **** *  This API switches the charge clock source to prescaler. 
 272:.\Generated_Source\PSoC4/CapSense_SMS.c **** *
ARM GAS  C:\Users\11401393\AppData\Local\Temp\ccZ3pqKX.s 			page 7


 273:.\Generated_Source\PSoC4/CapSense_SMS.c **** * Parameters:
 274:.\Generated_Source\PSoC4/CapSense_SMS.c **** *  None
 275:.\Generated_Source\PSoC4/CapSense_SMS.c **** *
 276:.\Generated_Source\PSoC4/CapSense_SMS.c **** * Return:
 277:.\Generated_Source\PSoC4/CapSense_SMS.c **** *  None
 278:.\Generated_Source\PSoC4/CapSense_SMS.c **** *
 279:.\Generated_Source\PSoC4/CapSense_SMS.c **** * Global Variables:
 280:.\Generated_Source\PSoC4/CapSense_SMS.c **** *  None
 281:.\Generated_Source\PSoC4/CapSense_SMS.c **** *
 282:.\Generated_Source\PSoC4/CapSense_SMS.c **** * Side Effects:
 283:.\Generated_Source\PSoC4/CapSense_SMS.c **** *  None
 284:.\Generated_Source\PSoC4/CapSense_SMS.c **** *
 285:.\Generated_Source\PSoC4/CapSense_SMS.c **** *******************************************************************************/
 286:.\Generated_Source\PSoC4/CapSense_SMS.c **** void CapSense_SetAnalogSwitchesSrcDirect(void)
 287:.\Generated_Source\PSoC4/CapSense_SMS.c **** {
  71              		.loc 1 287 0
  72              		.cfi_startproc
 288:.\Generated_Source\PSoC4/CapSense_SMS.c **** 	CapSense_CSD_CFG_REG &= ~(CapSense_CSD_CFG_PRS_SELECT);
  73              		.loc 1 288 0
  74 0000 024B     		ldr	r3, .L5
  75 0002 1A68     		ldr	r2, [r3]
  76 0004 4021     		mov	r1, #64
  77 0006 8A43     		bic	r2, r1
  78 0008 1A60     		str	r2, [r3]
 289:.\Generated_Source\PSoC4/CapSense_SMS.c **** }
  79              		.loc 1 289 0
  80              		@ sp needed
  81 000a 7047     		bx	lr
  82              	.L6:
  83              		.align	2
  84              	.L5:
  85 000c 04002840 		.word	1076363268
  86              		.cfi_endproc
  87              	.LFE36:
  88              		.size	CapSense_SetAnalogSwitchesSrcDirect, .-CapSense_SetAnalogSwitchesSrcDirect
  89              		.section	.text.CapSense_DisableBaselineIDAC,"ax",%progbits
  90              		.align	2
  91              		.global	CapSense_DisableBaselineIDAC
  92              		.code	16
  93              		.thumb_func
  94              		.type	CapSense_DisableBaselineIDAC, %function
  95              	CapSense_DisableBaselineIDAC:
  96              	.LFB37:
 290:.\Generated_Source\PSoC4/CapSense_SMS.c **** 
 291:.\Generated_Source\PSoC4/CapSense_SMS.c **** 
 292:.\Generated_Source\PSoC4/CapSense_SMS.c **** /*******************************************************************************
 293:.\Generated_Source\PSoC4/CapSense_SMS.c **** * Function Name: CapSense_DisableBaselineIDAC
 294:.\Generated_Source\PSoC4/CapSense_SMS.c **** ********************************************************************************
 295:.\Generated_Source\PSoC4/CapSense_SMS.c **** *
 296:.\Generated_Source\PSoC4/CapSense_SMS.c **** * Summary:
 297:.\Generated_Source\PSoC4/CapSense_SMS.c **** *  The API disables the Compensation IDAC. 
 298:.\Generated_Source\PSoC4/CapSense_SMS.c **** *
 299:.\Generated_Source\PSoC4/CapSense_SMS.c **** * Parameters:
 300:.\Generated_Source\PSoC4/CapSense_SMS.c **** *  None
 301:.\Generated_Source\PSoC4/CapSense_SMS.c **** *
 302:.\Generated_Source\PSoC4/CapSense_SMS.c **** * Return:
 303:.\Generated_Source\PSoC4/CapSense_SMS.c **** *  None
ARM GAS  C:\Users\11401393\AppData\Local\Temp\ccZ3pqKX.s 			page 8


 304:.\Generated_Source\PSoC4/CapSense_SMS.c **** *
 305:.\Generated_Source\PSoC4/CapSense_SMS.c **** * Global Variables:
 306:.\Generated_Source\PSoC4/CapSense_SMS.c **** *  None
 307:.\Generated_Source\PSoC4/CapSense_SMS.c **** *
 308:.\Generated_Source\PSoC4/CapSense_SMS.c **** * Side Effects:
 309:.\Generated_Source\PSoC4/CapSense_SMS.c **** *  None
 310:.\Generated_Source\PSoC4/CapSense_SMS.c **** *
 311:.\Generated_Source\PSoC4/CapSense_SMS.c **** *******************************************************************************/
 312:.\Generated_Source\PSoC4/CapSense_SMS.c **** void CapSense_DisableBaselineIDAC(void)
 313:.\Generated_Source\PSoC4/CapSense_SMS.c **** {
  97              		.loc 1 313 0
  98              		.cfi_startproc
 314:.\Generated_Source\PSoC4/CapSense_SMS.c **** 	uint32 newRegValue;
 315:.\Generated_Source\PSoC4/CapSense_SMS.c ****     
 316:.\Generated_Source\PSoC4/CapSense_SMS.c ****     newRegValue = CapSense_CSD_IDAC_REG;
  99              		.loc 1 316 0
 100 0000 044B     		ldr	r3, .L8
 101 0002 1968     		ldr	r1, [r3]
 102              	.LVL4:
 317:.\Generated_Source\PSoC4/CapSense_SMS.c ****     
 318:.\Generated_Source\PSoC4/CapSense_SMS.c ****     newRegValue &= ~(CapSense_CSD_IDAC1_MODE_MASK | CapSense_CSD_IDAC2_MODE_MASK);
 103              		.loc 1 318 0
 104 0004 044A     		ldr	r2, .L8+4
 105 0006 0A40     		and	r2, r1
 106              	.LVL5:
 319:.\Generated_Source\PSoC4/CapSense_SMS.c ****     newRegValue |= CapSense_CSD_IDAC1_MODE_VARIABLE;
 107              		.loc 1 319 0
 108 0008 8021     		mov	r1, #128
 109 000a 8900     		lsl	r1, r1, #2
 110 000c 0A43     		orr	r2, r1
 111              	.LVL6:
 320:.\Generated_Source\PSoC4/CapSense_SMS.c ****     
 321:.\Generated_Source\PSoC4/CapSense_SMS.c **** 	CapSense_CSD_IDAC_REG = newRegValue;
 112              		.loc 1 321 0
 113 000e 1A60     		str	r2, [r3]
 322:.\Generated_Source\PSoC4/CapSense_SMS.c **** }
 114              		.loc 1 322 0
 115              		@ sp needed
 116 0010 7047     		bx	lr
 117              	.L9:
 118 0012 C046     		.align	2
 119              	.L8:
 120 0014 08002840 		.word	1076363272
 121 0018 FFFCFFFC 		.word	-50332417
 122              		.cfi_endproc
 123              	.LFE37:
 124              		.size	CapSense_DisableBaselineIDAC, .-CapSense_DisableBaselineIDAC
 125              		.section	.text.CapSense_EnableBaselineIDAC,"ax",%progbits
 126              		.align	2
 127              		.global	CapSense_EnableBaselineIDAC
 128              		.code	16
 129              		.thumb_func
 130              		.type	CapSense_EnableBaselineIDAC, %function
 131              	CapSense_EnableBaselineIDAC:
 132              	.LFB38:
 323:.\Generated_Source\PSoC4/CapSense_SMS.c **** 
 324:.\Generated_Source\PSoC4/CapSense_SMS.c **** 
ARM GAS  C:\Users\11401393\AppData\Local\Temp\ccZ3pqKX.s 			page 9


 325:.\Generated_Source\PSoC4/CapSense_SMS.c **** /*******************************************************************************
 326:.\Generated_Source\PSoC4/CapSense_SMS.c **** * Function Name: CapSense_EnableBaselineIDAC
 327:.\Generated_Source\PSoC4/CapSense_SMS.c **** ********************************************************************************
 328:.\Generated_Source\PSoC4/CapSense_SMS.c **** *
 329:.\Generated_Source\PSoC4/CapSense_SMS.c **** * Summary:
 330:.\Generated_Source\PSoC4/CapSense_SMS.c **** *  The API enables the Compensation IDAC. 
 331:.\Generated_Source\PSoC4/CapSense_SMS.c **** *
 332:.\Generated_Source\PSoC4/CapSense_SMS.c **** * Parameters:
 333:.\Generated_Source\PSoC4/CapSense_SMS.c **** *  None
 334:.\Generated_Source\PSoC4/CapSense_SMS.c **** *
 335:.\Generated_Source\PSoC4/CapSense_SMS.c **** * Return:
 336:.\Generated_Source\PSoC4/CapSense_SMS.c **** *  None
 337:.\Generated_Source\PSoC4/CapSense_SMS.c **** *
 338:.\Generated_Source\PSoC4/CapSense_SMS.c **** * Global Variables:
 339:.\Generated_Source\PSoC4/CapSense_SMS.c **** *  CapSense_compensationIDAC[] - used to store a 7-bit idac value for all the sensors.
 340:.\Generated_Source\PSoC4/CapSense_SMS.c **** *
 341:.\Generated_Source\PSoC4/CapSense_SMS.c **** * Side Effects:
 342:.\Generated_Source\PSoC4/CapSense_SMS.c **** *  None
 343:.\Generated_Source\PSoC4/CapSense_SMS.c **** *
 344:.\Generated_Source\PSoC4/CapSense_SMS.c **** *******************************************************************************/
 345:.\Generated_Source\PSoC4/CapSense_SMS.c **** void  CapSense_EnableBaselineIDAC(const CapSense_CONFIG_TYPE_P4_v2_20 *config)
 346:.\Generated_Source\PSoC4/CapSense_SMS.c **** {
 133              		.loc 1 346 0
 134              		.cfi_startproc
 135              	.LVL7:
 136 0000 38B5     		push	{r3, r4, r5, lr}
 137              		.cfi_def_cfa_offset 16
 138              		.cfi_offset 3, -16
 139              		.cfi_offset 4, -12
 140              		.cfi_offset 5, -8
 141              		.cfi_offset 14, -4
 142              	.LVL8:
 347:.\Generated_Source\PSoC4/CapSense_SMS.c ****     uint32 curSensor;
 348:.\Generated_Source\PSoC4/CapSense_SMS.c ****     uint32 newRegValue;
 349:.\Generated_Source\PSoC4/CapSense_SMS.c **** 
 350:.\Generated_Source\PSoC4/CapSense_SMS.c ****     for(curSensor = 0u; curSensor < config->totalScanslotsNum; curSensor++)
 143              		.loc 1 350 0
 144 0002 0023     		mov	r3, #0
 351:.\Generated_Source\PSoC4/CapSense_SMS.c ****     {
 352:.\Generated_Source\PSoC4/CapSense_SMS.c **** 		CapSense_compensationIDAC[curSensor] = CapSense_modulationIDAC[curSensor] / 2u;
 145              		.loc 1 352 0
 146 0004 0D49     		ldr	r1, .L13
 147 0006 0E4D     		ldr	r5, .L13+4
 350:.\Generated_Source\PSoC4/CapSense_SMS.c ****     for(curSensor = 0u; curSensor < config->totalScanslotsNum; curSensor++)
 148              		.loc 1 350 0
 149 0008 06E0     		b	.L11
 150              	.LVL9:
 151              	.L12:
 152              		.loc 1 352 0 discriminator 2
 153 000a CA5C     		ldrb	r2, [r1, r3]
 154 000c 5408     		lsr	r4, r2, #1
 155 000e EC54     		strb	r4, [r5, r3]
 353:.\Generated_Source\PSoC4/CapSense_SMS.c **** 	    CapSense_modulationIDAC[curSensor] = (CapSense_modulationIDAC[curSensor] + 1u) / 2u;
 156              		.loc 1 353 0 discriminator 2
 157 0010 0132     		add	r2, r2, #1
 158 0012 5208     		lsr	r2, r2, #1
 159 0014 CA54     		strb	r2, [r1, r3]
ARM GAS  C:\Users\11401393\AppData\Local\Temp\ccZ3pqKX.s 			page 10


 350:.\Generated_Source\PSoC4/CapSense_SMS.c ****     for(curSensor = 0u; curSensor < config->totalScanslotsNum; curSensor++)
 160              		.loc 1 350 0 discriminator 2
 161 0016 0133     		add	r3, r3, #1
 162              	.LVL10:
 163              	.L11:
 350:.\Generated_Source\PSoC4/CapSense_SMS.c ****     for(curSensor = 0u; curSensor < config->totalScanslotsNum; curSensor++)
 164              		.loc 1 350 0 is_stmt 0 discriminator 1
 165 0018 0278     		ldrb	r2, [r0]
 166 001a 9A42     		cmp	r2, r3
 167 001c F5D8     		bhi	.L12
 354:.\Generated_Source\PSoC4/CapSense_SMS.c ****     }
 355:.\Generated_Source\PSoC4/CapSense_SMS.c **** 	
 356:.\Generated_Source\PSoC4/CapSense_SMS.c **** 	CyIntDisable(CapSense_ISR_NUMBER);
 168              		.loc 1 356 0 is_stmt 1
 169 001e 1120     		mov	r0, #17
 170              	.LVL11:
 171 0020 FFF7FEFF 		bl	CyIntDisable
 172              	.LVL12:
 357:.\Generated_Source\PSoC4/CapSense_SMS.c **** 	
 358:.\Generated_Source\PSoC4/CapSense_SMS.c **** 	newRegValue = CapSense_CSD_IDAC_REG;
 173              		.loc 1 358 0
 174 0024 074B     		ldr	r3, .L13+8
 175 0026 1968     		ldr	r1, [r3]
 176              	.LVL13:
 359:.\Generated_Source\PSoC4/CapSense_SMS.c ****     newRegValue &= ~(CapSense_CSD_IDAC1_MODE_MASK | CapSense_CSD_IDAC2_MODE_MASK);
 177              		.loc 1 359 0
 178 0028 074A     		ldr	r2, .L13+12
 179 002a 0A40     		and	r2, r1
 180              	.LVL14:
 360:.\Generated_Source\PSoC4/CapSense_SMS.c ****     newRegValue |= (CapSense_CSD_IDAC1_MODE_VARIABLE | CapSense_CSD_IDAC2_MODE_FIXED);
 181              		.loc 1 360 0
 182 002c 0749     		ldr	r1, .L13+16
 183 002e 0A43     		orr	r2, r1
 184              	.LVL15:
 361:.\Generated_Source\PSoC4/CapSense_SMS.c ****     CapSense_CSD_IDAC_REG = newRegValue;
 185              		.loc 1 361 0
 186 0030 1A60     		str	r2, [r3]
 362:.\Generated_Source\PSoC4/CapSense_SMS.c **** 	
 363:.\Generated_Source\PSoC4/CapSense_SMS.c **** 	CyIntEnable(CapSense_ISR_NUMBER);
 187              		.loc 1 363 0
 188 0032 1120     		mov	r0, #17
 189 0034 FFF7FEFF 		bl	CyIntEnable
 190              	.LVL16:
 364:.\Generated_Source\PSoC4/CapSense_SMS.c **** }
 191              		.loc 1 364 0
 192              		@ sp needed
 193 0038 38BD     		pop	{r3, r4, r5, pc}
 194              	.L14:
 195 003a C046     		.align	2
 196              	.L13:
 197 003c 00000000 		.word	CapSense_modulationIDAC
 198 0040 00000000 		.word	CapSense_compensationIDAC
 199 0044 08002840 		.word	1076363272
 200 0048 FFFCFFFC 		.word	-50332417
 201 004c 00020001 		.word	16777728
 202              		.cfi_endproc
 203              	.LFE38:
ARM GAS  C:\Users\11401393\AppData\Local\Temp\ccZ3pqKX.s 			page 11


 204              		.size	CapSense_EnableBaselineIDAC, .-CapSense_EnableBaselineIDAC
 205              		.section	.text.CapSense_AutoTune,"ax",%progbits
 206              		.align	2
 207              		.global	CapSense_AutoTune
 208              		.code	16
 209              		.thumb_func
 210              		.type	CapSense_AutoTune, %function
 211              	CapSense_AutoTune:
 212              	.LFB34:
 137:.\Generated_Source\PSoC4/CapSense_SMS.c **** {
 213              		.loc 1 137 0
 214              		.cfi_startproc
 215 0000 38B5     		push	{r3, r4, r5, lr}
 216              		.cfi_def_cfa_offset 16
 217              		.cfi_offset 3, -16
 218              		.cfi_offset 4, -12
 219              		.cfi_offset 5, -8
 220              		.cfi_offset 14, -4
 141:.\Generated_Source\PSoC4/CapSense_SMS.c **** 	CapSense_config.totalScanslotsNum = CapSense_TOTAL_SCANSLOT_COUNT;
 221              		.loc 1 141 0
 222 0002 204B     		ldr	r3, .L22
 223 0004 0C22     		mov	r2, #12
 224 0006 1A70     		strb	r2, [r3]
 142:.\Generated_Source\PSoC4/CapSense_SMS.c **** 	CapSense_config.totalWidgetsNum = CapSense_END_OF_WIDGETS_INDEX;
 225              		.loc 1 142 0
 226 0008 5A70     		strb	r2, [r3, #1]
 143:.\Generated_Source\PSoC4/CapSense_SMS.c **** 	CapSense_config.totalSensorsNum = CapSense_TOTAL_SENSOR_COUNT;
 227              		.loc 1 143 0
 228 000a 9A70     		strb	r2, [r3, #2]
 145:.\Generated_Source\PSoC4/CapSense_SMS.c **** 	CapSense_config.hfclkFreq_MHz = CYDEV_BCLK__HFCLK__MHZ;
 229              		.loc 1 145 0
 230 000c 3022     		mov	r2, #48
 231 000e DA80     		strh	r2, [r3, #6]
 146:.\Generated_Source\PSoC4/CapSense_SMS.c **** 	CapSense_config.sensetivitySeed = CapSense_SENSETIVITY_FACTOR;
 232              		.loc 1 146 0
 233 0010 1D4A     		ldr	r2, .L22+4
 234 0012 9A80     		strh	r2, [r3, #4]
 148:.\Generated_Source\PSoC4/CapSense_SMS.c ****     CapSense_config.pointers = &CapSense_configPointers;       
 235              		.loc 1 148 0
 236 0014 1D4A     		ldr	r2, .L22+8
 237 0016 9A60     		str	r2, [r3, #8]
 150:.\Generated_Source\PSoC4/CapSense_SMS.c **** 	CapSense_SetAnalogSwitchesSrcDirect();
 238              		.loc 1 150 0
 239 0018 FFF7FEFF 		bl	CapSense_SetAnalogSwitchesSrcDirect
 240              	.LVL17:
 152:.\Generated_Source\PSoC4/CapSense_SMS.c ****     for(widget = 0u; widget < CapSense_config.totalWidgetsNum; widget++)
 241              		.loc 1 152 0
 242 001c 0023     		mov	r3, #0
 243 001e 1949     		ldr	r1, .L22
 154:.\Generated_Source\PSoC4/CapSense_SMS.c ****         CapSense_widgetResolution[widget] = CapSense_CALIBRATION_RESOLUTION;
 244              		.loc 1 154 0
 245 0020 1B4C     		ldr	r4, .L22+12
 246 0022 1C48     		ldr	r0, .L22+16
 152:.\Generated_Source\PSoC4/CapSense_SMS.c ****     for(widget = 0u; widget < CapSense_config.totalWidgetsNum; widget++)
 247              		.loc 1 152 0
 248 0024 02E0     		b	.L16
 249              	.LVL18:
ARM GAS  C:\Users\11401393\AppData\Local\Temp\ccZ3pqKX.s 			page 12


 250              	.L17:
 154:.\Generated_Source\PSoC4/CapSense_SMS.c ****         CapSense_widgetResolution[widget] = CapSense_CALIBRATION_RESOLUTION;
 251              		.loc 1 154 0 discriminator 2
 252 0026 9A00     		lsl	r2, r3, #2
 253 0028 1051     		str	r0, [r2, r4]
 152:.\Generated_Source\PSoC4/CapSense_SMS.c ****     for(widget = 0u; widget < CapSense_config.totalWidgetsNum; widget++)
 254              		.loc 1 152 0 discriminator 2
 255 002a 0133     		add	r3, r3, #1
 256              	.LVL19:
 257              	.L16:
 152:.\Generated_Source\PSoC4/CapSense_SMS.c ****     for(widget = 0u; widget < CapSense_config.totalWidgetsNum; widget++)
 258              		.loc 1 152 0 is_stmt 0 discriminator 1
 259 002c 4A78     		ldrb	r2, [r1, #1]
 260 002e 9A42     		cmp	r2, r3
 261 0030 F9D8     		bhi	.L17
 262 0032 0023     		mov	r3, #0
 263              	.LVL20:
 160:.\Generated_Source\PSoC4/CapSense_SMS.c **** 		CapSense_senseClkDividerVal[curSensor] = CapSense_CALIBRATION_ASD;
 264              		.loc 1 160 0 is_stmt 1
 265 0034 184C     		ldr	r4, .L22+20
 266 0036 1020     		mov	r0, #16
 161:.\Generated_Source\PSoC4/CapSense_SMS.c **** 		CapSense_sampleClkDividerVal[curSensor] = CapSense_CALIBRATION_MD;
 267              		.loc 1 161 0
 268 0038 1849     		ldr	r1, .L22+24
 269 003a 0422     		mov	r2, #4
 270 003c 02E0     		b	.L18
 271              	.LVL21:
 272              	.L19:
 160:.\Generated_Source\PSoC4/CapSense_SMS.c **** 		CapSense_senseClkDividerVal[curSensor] = CapSense_CALIBRATION_ASD;
 273              		.loc 1 160 0 discriminator 2
 274 003e E054     		strb	r0, [r4, r3]
 161:.\Generated_Source\PSoC4/CapSense_SMS.c **** 		CapSense_sampleClkDividerVal[curSensor] = CapSense_CALIBRATION_MD;
 275              		.loc 1 161 0 discriminator 2
 276 0040 CA54     		strb	r2, [r1, r3]
 158:.\Generated_Source\PSoC4/CapSense_SMS.c **** 	for(curSensor = 0u; curSensor < CapSense_TOTAL_SCANSLOT_COUNT; curSensor++)
 277              		.loc 1 158 0 discriminator 2
 278 0042 0133     		add	r3, r3, #1
 279              	.LVL22:
 280              	.L18:
 158:.\Generated_Source\PSoC4/CapSense_SMS.c **** 	for(curSensor = 0u; curSensor < CapSense_TOTAL_SCANSLOT_COUNT; curSensor++)
 281              		.loc 1 158 0 is_stmt 0 discriminator 1
 282 0044 0B2B     		cmp	r3, #11
 283 0046 FAD9     		bls	.L19
 164:.\Generated_Source\PSoC4/CapSense_SMS.c ****     CapSense_DisableBaselineIDAC();
 284              		.loc 1 164 0 is_stmt 1
 285 0048 FFF7FEFF 		bl	CapSense_DisableBaselineIDAC
 286              	.LVL23:
 166:.\Generated_Source\PSoC4/CapSense_SMS.c ****     CalibrateSensors_P4_v2_20(&CapSense_config, CapSense_CAL_RAW_COUNT);
 287              		.loc 1 166 0
 288 004c 0D4C     		ldr	r4, .L22
 289 004e 144D     		ldr	r5, .L22+28
 290 0050 201C     		mov	r0, r4
 291 0052 291C     		mov	r1, r5
 292 0054 FFF7FEFF 		bl	CalibrateSensors_P4_v2_20
 293              	.LVL24:
 172:.\Generated_Source\PSoC4/CapSense_SMS.c ****     TunePrescalers_P4_v2_20(&CapSense_config);
 294              		.loc 1 172 0
ARM GAS  C:\Users\11401393\AppData\Local\Temp\ccZ3pqKX.s 			page 13


 295 0058 201C     		mov	r0, r4
 296 005a FFF7FEFF 		bl	TunePrescalers_P4_v2_20
 297              	.LVL25:
 178:.\Generated_Source\PSoC4/CapSense_SMS.c ****     CalibrateSensors_P4_v2_20(&CapSense_config, CapSense_CAL_RAW_COUNT);
 298              		.loc 1 178 0
 299 005e 201C     		mov	r0, r4
 300 0060 291C     		mov	r1, r5
 301 0062 FFF7FEFF 		bl	CalibrateSensors_P4_v2_20
 302              	.LVL26:
 182:.\Generated_Source\PSoC4/CapSense_SMS.c ****     TuneSensitivity_P4_v2_20(&CapSense_config);
 303              		.loc 1 182 0
 304 0066 201C     		mov	r0, r4
 305 0068 FFF7FEFF 		bl	TuneSensitivity_P4_v2_20
 306              	.LVL27:
 184:.\Generated_Source\PSoC4/CapSense_SMS.c **** 	CapSense_EnableBaselineIDAC(&CapSense_config);
 307              		.loc 1 184 0
 308 006c 201C     		mov	r0, r4
 309 006e FFF7FEFF 		bl	CapSense_EnableBaselineIDAC
 310              	.LVL28:
 186:.\Generated_Source\PSoC4/CapSense_SMS.c ****     for(curSensor = 0u; curSensor < CapSense_TOTAL_SCANSLOT_COUNT; curSensor++)
 311              		.loc 1 186 0
 312 0072 0024     		mov	r4, #0
 313 0074 03E0     		b	.L20
 314              	.LVL29:
 315              	.L21:
 188:.\Generated_Source\PSoC4/CapSense_SMS.c ****         CapSense_UpdateThresholds(curSensor);
 316              		.loc 1 188 0 discriminator 2
 317 0076 201C     		mov	r0, r4
 318 0078 FFF7FEFF 		bl	CapSense_UpdateThresholds
 319              	.LVL30:
 186:.\Generated_Source\PSoC4/CapSense_SMS.c ****     for(curSensor = 0u; curSensor < CapSense_TOTAL_SCANSLOT_COUNT; curSensor++)
 320              		.loc 1 186 0 discriminator 2
 321 007c 0134     		add	r4, r4, #1
 322              	.LVL31:
 323              	.L20:
 186:.\Generated_Source\PSoC4/CapSense_SMS.c ****     for(curSensor = 0u; curSensor < CapSense_TOTAL_SCANSLOT_COUNT; curSensor++)
 324              		.loc 1 186 0 is_stmt 0 discriminator 1
 325 007e 0B2C     		cmp	r4, #11
 326 0080 F9D9     		bls	.L21
 190:.\Generated_Source\PSoC4/CapSense_SMS.c **** }
 327              		.loc 1 190 0 is_stmt 1
 328              		@ sp needed
 329              	.LVL32:
 330 0082 38BD     		pop	{r3, r4, r5, pc}
 331              	.L23:
 332              		.align	2
 333              	.L22:
 334 0084 00000000 		.word	CapSense_config
 335 0088 98090000 		.word	2456
 336 008c 00000000 		.word	.LANCHOR0
 337 0090 00000000 		.word	CapSense_widgetResolution
 338 0094 0000FF0F 		.word	268369920
 339 0098 00000000 		.word	CapSense_senseClkDividerVal
 340 009c 00000000 		.word	CapSense_sampleClkDividerVal
 341 00a0 9A0D0000 		.word	3482
 342              		.cfi_endproc
 343              	.LFE34:
ARM GAS  C:\Users\11401393\AppData\Local\Temp\ccZ3pqKX.s 			page 14


 344              		.size	CapSense_AutoTune, .-CapSense_AutoTune
 345              		.section	.text.CapSense_SetSensitivity,"ax",%progbits
 346              		.align	2
 347              		.global	CapSense_SetSensitivity
 348              		.code	16
 349              		.thumb_func
 350              		.type	CapSense_SetSensitivity, %function
 351              	CapSense_SetSensitivity:
 352              	.LFB39:
 365:.\Generated_Source\PSoC4/CapSense_SMS.c **** 
 366:.\Generated_Source\PSoC4/CapSense_SMS.c **** 
 367:.\Generated_Source\PSoC4/CapSense_SMS.c **** /*******************************************************************************
 368:.\Generated_Source\PSoC4/CapSense_SMS.c **** * Function Name: CapSense_SetSensitivity
 369:.\Generated_Source\PSoC4/CapSense_SMS.c **** ********************************************************************************
 370:.\Generated_Source\PSoC4/CapSense_SMS.c **** *
 371:.\Generated_Source\PSoC4/CapSense_SMS.c **** * Summary:
 372:.\Generated_Source\PSoC4/CapSense_SMS.c **** *  This API sets the sensitivity value for the sensor. The sensitivity 
 373:.\Generated_Source\PSoC4/CapSense_SMS.c **** *  value is used during the auto-tuning algorithm executed as part of the CapSense_Start API.
 374:.\Generated_Source\PSoC4/CapSense_SMS.c **** *  This API is called by the application layer prior to calling the CapSense_Start API. 
 375:.\Generated_Source\PSoC4/CapSense_SMS.c **** *  Calling this API after execution of CapSense_Start API has no effect. 
 376:.\Generated_Source\PSoC4/CapSense_SMS.c **** *
 377:.\Generated_Source\PSoC4/CapSense_SMS.c **** * Parameters: 
 378:.\Generated_Source\PSoC4/CapSense_SMS.c **** *  sensor  Sensor index 
 379:.\Generated_Source\PSoC4/CapSense_SMS.c **** *  data    Sensitivity of the sensor. Possible values are below
 380:.\Generated_Source\PSoC4/CapSense_SMS.c **** *  1 - 0.1pf sensitivity
 381:.\Generated_Source\PSoC4/CapSense_SMS.c **** *  2 - 0.2pf sensitivity
 382:.\Generated_Source\PSoC4/CapSense_SMS.c **** *  3 - 0.3pf sensitivity
 383:.\Generated_Source\PSoC4/CapSense_SMS.c **** *  4 - 0.4pf sensitivity
 384:.\Generated_Source\PSoC4/CapSense_SMS.c **** *  5 - 0.5pf sensitivity
 385:.\Generated_Source\PSoC4/CapSense_SMS.c **** *  6 - 0.6pf sensitivity
 386:.\Generated_Source\PSoC4/CapSense_SMS.c **** *  7 - 0.7pf sensitivity
 387:.\Generated_Source\PSoC4/CapSense_SMS.c **** *  8 - 0.8pf sensitivity
 388:.\Generated_Source\PSoC4/CapSense_SMS.c **** *  9 - 0.9pf sensitivity
 389:.\Generated_Source\PSoC4/CapSense_SMS.c **** *  10 - 1.0pf sensitivity
 390:.\Generated_Source\PSoC4/CapSense_SMS.c **** *  All other values, set sensitivity to 1.0pf
 391:.\Generated_Source\PSoC4/CapSense_SMS.c **** *
 392:.\Generated_Source\PSoC4/CapSense_SMS.c **** *  Return Value:
 393:.\Generated_Source\PSoC4/CapSense_SMS.c **** *   None
 394:.\Generated_Source\PSoC4/CapSense_SMS.c **** *
 395:.\Generated_Source\PSoC4/CapSense_SMS.c **** * Global Variables:
 396:.\Generated_Source\PSoC4/CapSense_SMS.c **** * SMS_LIB_SensorSensitivity[] - This 8-bits array contains Sensitivity in the LSB nibble
 397:.\Generated_Source\PSoC4/CapSense_SMS.c **** *                                and Noise Reset Counter value in the MSB nibble.      
 398:.\Generated_Source\PSoC4/CapSense_SMS.c **** *
 399:.\Generated_Source\PSoC4/CapSense_SMS.c **** * Side Effects: 
 400:.\Generated_Source\PSoC4/CapSense_SMS.c **** *  None
 401:.\Generated_Source\PSoC4/CapSense_SMS.c **** *
 402:.\Generated_Source\PSoC4/CapSense_SMS.c **** *******************************************************************************/
 403:.\Generated_Source\PSoC4/CapSense_SMS.c **** void CapSense_SetSensitivity(uint32 sensor, uint32 value)
 404:.\Generated_Source\PSoC4/CapSense_SMS.c **** {
 353              		.loc 1 404 0
 354              		.cfi_startproc
 355              	.LVL33:
 356 0000 10B5     		push	{r4, lr}
 357              		.cfi_def_cfa_offset 8
 358              		.cfi_offset 4, -8
 359              		.cfi_offset 14, -4
 405:.\Generated_Source\PSoC4/CapSense_SMS.c **** 	if(value > 10u)
ARM GAS  C:\Users\11401393\AppData\Local\Temp\ccZ3pqKX.s 			page 15


 360              		.loc 1 405 0
 361 0002 0A29     		cmp	r1, #10
 362 0004 00D9     		bls	.L25
 406:.\Generated_Source\PSoC4/CapSense_SMS.c **** 	{
 407:.\Generated_Source\PSoC4/CapSense_SMS.c **** 		value = 10u;
 363              		.loc 1 407 0
 364 0006 0A21     		mov	r1, #10
 365              	.LVL34:
 366              	.L25:
 408:.\Generated_Source\PSoC4/CapSense_SMS.c **** 	}
 409:.\Generated_Source\PSoC4/CapSense_SMS.c **** 	
 410:.\Generated_Source\PSoC4/CapSense_SMS.c ****     /* Clear SensorSensitivity value in LSB nibble */
 411:.\Generated_Source\PSoC4/CapSense_SMS.c **** 	SMS_LIB_SensorSensitivity[sensor] &= (uint8)~CapSense_SENSITIVITY_MASK;
 367              		.loc 1 411 0
 368 0008 034B     		ldr	r3, .L27
 369 000a 1A5C     		ldrb	r2, [r3, r0]
 370 000c 0F24     		mov	r4, #15
 371 000e A243     		bic	r2, r4
 412:.\Generated_Source\PSoC4/CapSense_SMS.c **** 	/* Set SensorSensitivity value in LSB nibble */
 413:.\Generated_Source\PSoC4/CapSense_SMS.c **** 	SMS_LIB_SensorSensitivity[sensor] |= (uint8)value;
 372              		.loc 1 413 0
 373 0010 1143     		orr	r1, r2
 374              	.LVL35:
 375 0012 1954     		strb	r1, [r3, r0]
 414:.\Generated_Source\PSoC4/CapSense_SMS.c **** }
 376              		.loc 1 414 0
 377              		@ sp needed
 378 0014 10BD     		pop	{r4, pc}
 379              	.L28:
 380 0016 C046     		.align	2
 381              	.L27:
 382 0018 00000000 		.word	.LANCHOR1
 383              		.cfi_endproc
 384              	.LFE39:
 385              		.size	CapSense_SetSensitivity, .-CapSense_SetSensitivity
 386              		.section	.text.CapSense_GetSensitivityCoefficient,"ax",%progbits
 387              		.align	2
 388              		.global	CapSense_GetSensitivityCoefficient
 389              		.code	16
 390              		.thumb_func
 391              		.type	CapSense_GetSensitivityCoefficient, %function
 392              	CapSense_GetSensitivityCoefficient:
 393              	.LFB40:
 415:.\Generated_Source\PSoC4/CapSense_SMS.c **** 
 416:.\Generated_Source\PSoC4/CapSense_SMS.c **** 
 417:.\Generated_Source\PSoC4/CapSense_SMS.c **** /*******************************************************************************
 418:.\Generated_Source\PSoC4/CapSense_SMS.c **** * Function Name: CapSense_GetSensitivityCoefficient
 419:.\Generated_Source\PSoC4/CapSense_SMS.c **** ********************************************************************************
 420:.\Generated_Source\PSoC4/CapSense_SMS.c **** *
 421:.\Generated_Source\PSoC4/CapSense_SMS.c **** * Summary:
 422:.\Generated_Source\PSoC4/CapSense_SMS.c **** *  This API returns the K coefficient for the appropriate sensor. 
 423:.\Generated_Source\PSoC4/CapSense_SMS.c **** *
 424:.\Generated_Source\PSoC4/CapSense_SMS.c **** * Parameters: 
 425:.\Generated_Source\PSoC4/CapSense_SMS.c **** *  sensor:  Sensor index 
 426:.\Generated_Source\PSoC4/CapSense_SMS.c **** *
 427:.\Generated_Source\PSoC4/CapSense_SMS.c **** *  Return Value:
 428:.\Generated_Source\PSoC4/CapSense_SMS.c **** *   K - value for the appropriate sensor.
ARM GAS  C:\Users\11401393\AppData\Local\Temp\ccZ3pqKX.s 			page 16


 429:.\Generated_Source\PSoC4/CapSense_SMS.c **** *
 430:.\Generated_Source\PSoC4/CapSense_SMS.c **** * Global Variables:
 431:.\Generated_Source\PSoC4/CapSense_SMS.c **** *  kValueTbl[] - This 8-bits array contains the K value for each sensor.
 432:.\Generated_Source\PSoC4/CapSense_SMS.c **** *
 433:.\Generated_Source\PSoC4/CapSense_SMS.c **** * Side Effects: 
 434:.\Generated_Source\PSoC4/CapSense_SMS.c **** *  None
 435:.\Generated_Source\PSoC4/CapSense_SMS.c **** *
 436:.\Generated_Source\PSoC4/CapSense_SMS.c **** *******************************************************************************/
 437:.\Generated_Source\PSoC4/CapSense_SMS.c **** uint8 CapSense_GetSensitivityCoefficient(uint32 sensor)
 438:.\Generated_Source\PSoC4/CapSense_SMS.c **** {
 394              		.loc 1 438 0
 395              		.cfi_startproc
 396              	.LVL36:
 439:.\Generated_Source\PSoC4/CapSense_SMS.c **** 	return (kValueTbl[sensor]);
 397              		.loc 1 439 0
 398 0000 014B     		ldr	r3, .L30
 399 0002 185C     		ldrb	r0, [r3, r0]
 400              	.LVL37:
 440:.\Generated_Source\PSoC4/CapSense_SMS.c **** }
 401              		.loc 1 440 0
 402              		@ sp needed
 403 0004 7047     		bx	lr
 404              	.L31:
 405 0006 C046     		.align	2
 406              	.L30:
 407 0008 00000000 		.word	kValueTbl
 408              		.cfi_endproc
 409              	.LFE40:
 410              		.size	CapSense_GetSensitivityCoefficient, .-CapSense_GetSensitivityCoefficient
 411              		.section	.text.CapSense_GetNoiseEnvelope,"ax",%progbits
 412              		.align	2
 413              		.global	CapSense_GetNoiseEnvelope
 414              		.code	16
 415              		.thumb_func
 416              		.type	CapSense_GetNoiseEnvelope, %function
 417              	CapSense_GetNoiseEnvelope:
 418              	.LFB41:
 441:.\Generated_Source\PSoC4/CapSense_SMS.c **** 
 442:.\Generated_Source\PSoC4/CapSense_SMS.c **** 
 443:.\Generated_Source\PSoC4/CapSense_SMS.c **** /*******************************************************************************
 444:.\Generated_Source\PSoC4/CapSense_SMS.c **** * Function Name: CapSense_GetNoiseEnvelope
 445:.\Generated_Source\PSoC4/CapSense_SMS.c **** ********************************************************************************
 446:.\Generated_Source\PSoC4/CapSense_SMS.c **** *
 447:.\Generated_Source\PSoC4/CapSense_SMS.c **** * Summary:
 448:.\Generated_Source\PSoC4/CapSense_SMS.c **** *  This function returns the noise value of a
 449:.\Generated_Source\PSoC4/CapSense_SMS.c **** *  component.
 450:.\Generated_Source\PSoC4/CapSense_SMS.c **** *
 451:.\Generated_Source\PSoC4/CapSense_SMS.c **** * Parameters:
 452:.\Generated_Source\PSoC4/CapSense_SMS.c **** *  sensor - Sensor number.
 453:.\Generated_Source\PSoC4/CapSense_SMS.c **** *
 454:.\Generated_Source\PSoC4/CapSense_SMS.c **** * Return:
 455:.\Generated_Source\PSoC4/CapSense_SMS.c **** *  The noise envelope value of the sensor
 456:.\Generated_Source\PSoC4/CapSense_SMS.c **** *  indicated by argument.
 457:.\Generated_Source\PSoC4/CapSense_SMS.c **** *
 458:.\Generated_Source\PSoC4/CapSense_SMS.c **** * Global Variables:
 459:.\Generated_Source\PSoC4/CapSense_SMS.c **** *  baNoiseEnvelope[] - array with Noise Envelope.
 460:.\Generated_Source\PSoC4/CapSense_SMS.c **** *
ARM GAS  C:\Users\11401393\AppData\Local\Temp\ccZ3pqKX.s 			page 17


 461:.\Generated_Source\PSoC4/CapSense_SMS.c **** * Side Effects:
 462:.\Generated_Source\PSoC4/CapSense_SMS.c **** *  None
 463:.\Generated_Source\PSoC4/CapSense_SMS.c **** *
 464:.\Generated_Source\PSoC4/CapSense_SMS.c **** *******************************************************************************/
 465:.\Generated_Source\PSoC4/CapSense_SMS.c **** uint16 CapSense_GetNoiseEnvelope(uint32 sensor)
 466:.\Generated_Source\PSoC4/CapSense_SMS.c **** {
 419              		.loc 1 466 0
 420              		.cfi_startproc
 421              	.LVL38:
 467:.\Generated_Source\PSoC4/CapSense_SMS.c ****     return((uint16)((uint16)noiseEnvelopeTbl[sensor] << 1u) + 1u);
 422              		.loc 1 467 0
 423 0000 024B     		ldr	r3, .L33
 424 0002 185C     		ldrb	r0, [r3, r0]
 425              	.LVL39:
 426 0004 4000     		lsl	r0, r0, #1
 427 0006 0130     		add	r0, r0, #1
 468:.\Generated_Source\PSoC4/CapSense_SMS.c **** }
 428              		.loc 1 468 0
 429              		@ sp needed
 430 0008 7047     		bx	lr
 431              	.L34:
 432 000a C046     		.align	2
 433              	.L33:
 434 000c 00000000 		.word	noiseEnvelopeTbl
 435              		.cfi_endproc
 436              	.LFE41:
 437              		.size	CapSense_GetNoiseEnvelope, .-CapSense_GetNoiseEnvelope
 438              		.global	__aeabi_uidiv
 439              		.section	.text.CapSense_GetNormalizedDiffCountData,"ax",%progbits
 440              		.align	2
 441              		.global	CapSense_GetNormalizedDiffCountData
 442              		.code	16
 443              		.thumb_func
 444              		.type	CapSense_GetNormalizedDiffCountData, %function
 445              	CapSense_GetNormalizedDiffCountData:
 446              	.LFB42:
 469:.\Generated_Source\PSoC4/CapSense_SMS.c **** 
 470:.\Generated_Source\PSoC4/CapSense_SMS.c **** 
 471:.\Generated_Source\PSoC4/CapSense_SMS.c **** /*******************************************************************************
 472:.\Generated_Source\PSoC4/CapSense_SMS.c **** * Function Name: CapSense_GetNormalizedDiffCountData
 473:.\Generated_Source\PSoC4/CapSense_SMS.c **** ********************************************************************************
 474:.\Generated_Source\PSoC4/CapSense_SMS.c **** *
 475:.\Generated_Source\PSoC4/CapSense_SMS.c **** * Summary:
 476:.\Generated_Source\PSoC4/CapSense_SMS.c **** *  This API returns normalized difference count data.
 477:.\Generated_Source\PSoC4/CapSense_SMS.c **** *
 478:.\Generated_Source\PSoC4/CapSense_SMS.c **** * Parameters:
 479:.\Generated_Source\PSoC4/CapSense_SMS.c **** *  sensor:  Sensor number.
 480:.\Generated_Source\PSoC4/CapSense_SMS.c **** *
 481:.\Generated_Source\PSoC4/CapSense_SMS.c **** * Return:
 482:.\Generated_Source\PSoC4/CapSense_SMS.c **** *  This API returns a normalized count value of the sensor indicated by the 
 483:.\Generated_Source\PSoC4/CapSense_SMS.c **** *  argument. 
 484:.\Generated_Source\PSoC4/CapSense_SMS.c **** *
 485:.\Generated_Source\PSoC4/CapSense_SMS.c **** * Global Variables:
 486:.\Generated_Source\PSoC4/CapSense_SMS.c **** *  CapSense_sensorSignal[] - array with difference counts for sensors
 487:.\Generated_Source\PSoC4/CapSense_SMS.c **** * 
 488:.\Generated_Source\PSoC4/CapSense_SMS.c **** * Side Effects:
 489:.\Generated_Source\PSoC4/CapSense_SMS.c **** *  None
ARM GAS  C:\Users\11401393\AppData\Local\Temp\ccZ3pqKX.s 			page 18


 490:.\Generated_Source\PSoC4/CapSense_SMS.c **** *
 491:.\Generated_Source\PSoC4/CapSense_SMS.c **** *******************************************************************************/
 492:.\Generated_Source\PSoC4/CapSense_SMS.c **** uint16 CapSense_GetNormalizedDiffCountData(uint32 sensor)
 493:.\Generated_Source\PSoC4/CapSense_SMS.c **** {
 447              		.loc 1 493 0
 448              		.cfi_startproc
 449              	.LVL40:
 450 0000 08B5     		push	{r3, lr}
 451              		.cfi_def_cfa_offset 8
 452              		.cfi_offset 3, -8
 453              		.cfi_offset 14, -4
 454 0002 031C     		mov	r3, r0
 494:.\Generated_Source\PSoC4/CapSense_SMS.c **** 	return (uint16)(((uint32)CapSense_sensorSignal[sensor] << 7u) / kValueTbl[sensor]);
 455              		.loc 1 494 0
 456 0004 044A     		ldr	r2, .L36
 457 0006 105C     		ldrb	r0, [r2, r0]
 458              	.LVL41:
 459 0008 C001     		lsl	r0, r0, #7
 460 000a 044A     		ldr	r2, .L36+4
 461 000c D15C     		ldrb	r1, [r2, r3]
 462 000e FFF7FEFF 		bl	__aeabi_uidiv
 463              	.LVL42:
 464 0012 80B2     		uxth	r0, r0
 495:.\Generated_Source\PSoC4/CapSense_SMS.c **** }
 465              		.loc 1 495 0
 466              		@ sp needed
 467 0014 08BD     		pop	{r3, pc}
 468              	.L37:
 469 0016 C046     		.align	2
 470              	.L36:
 471 0018 00000000 		.word	CapSense_sensorSignal
 472 001c 00000000 		.word	kValueTbl
 473              		.cfi_endproc
 474              	.LFE42:
 475              		.size	CapSense_GetNormalizedDiffCountData, .-CapSense_GetNormalizedDiffCountData
 476              		.global	CapSense_configPointers
 477              		.comm	CapSense_config,12,4
 478              		.global	SMS_LIB_SensorSensitivity
 479              		.comm	kValueTbl,12,4
 480              		.comm	previousSampleTbl,24,4
 481              		.comm	sampleMaxTbl,24,4
 482              		.comm	sampleMinTbl,24,4
 483              		.comm	signRegisterTbl,12,4
 484              		.comm	runningDifferenceTbl,12,4
 485              		.comm	noiseEnvelopeTbl,12,4
 486              		.global	prescalerTable
 487              		.section	.rodata
 488              		.align	2
 489              		.set	.LANCHOR0,. + 0
 490              		.type	CapSense_configPointers, %object
 491              		.size	CapSense_configPointers, 56
 492              	CapSense_configPointers:
 493 0000 00000000 		.word	CapSense_modulationIDAC
 494 0004 00000000 		.word	CapSense_compensationIDAC
 495 0008 00000000 		.word	SMS_LIB_SensorSensitivity
 496 000c 00000000 		.word	CapSense_senseClkDividerVal
 497 0010 00000000 		.word	CapSense_sampleClkDividerVal
ARM GAS  C:\Users\11401393\AppData\Local\Temp\ccZ3pqKX.s 			page 19


 498 0014 00000000 		.word	CapSense_widgetNumber
 499 0018 00000000 		.word	CapSense_widgetResolution
 500 001c 00000000 		.word	CapSense_rawDataIndex
 501 0020 00000000 		.word	CapSense_numberOfSensors
 502 0024 00000000 		.word	CapSense_GetSensorRaw
 503 0028 00000000 		.word	CapSense_PreScan
 504 002c 00000000 		.word	CapSense_ReadSensorRaw
 505 0030 00000000 		.word	CapSense_GetBitValue
 506 0034 00000000 		.word	CapSense_SetBitValue
 507              		.type	prescalerTable, %object
 508              		.size	prescalerTable, 16
 509              	prescalerTable:
 510 0038 04       		.byte	4
 511 0039 04       		.byte	4
 512 003a 04       		.byte	4
 513 003b 08       		.byte	8
 514 003c 08       		.byte	8
 515 003d 08       		.byte	8
 516 003e 08       		.byte	8
 517 003f 10       		.byte	16
 518 0040 10       		.byte	16
 519 0041 10       		.byte	16
 520 0042 10       		.byte	16
 521 0043 10       		.byte	16
 522 0044 10       		.byte	16
 523 0045 10       		.byte	16
 524 0046 10       		.byte	16
 525 0047 10       		.byte	16
 526              		.data
 527              		.align	2
 528              		.set	.LANCHOR1,. + 0
 529              		.type	SMS_LIB_SensorSensitivity, %object
 530              		.size	SMS_LIB_SensorSensitivity, 12
 531              	SMS_LIB_SensorSensitivity:
 532 0000 02       		.byte	2
 533 0001 02       		.byte	2
 534 0002 02       		.byte	2
 535 0003 02       		.byte	2
 536 0004 02       		.byte	2
 537 0005 02       		.byte	2
 538 0006 02       		.byte	2
 539 0007 02       		.byte	2
 540 0008 02       		.byte	2
 541 0009 02       		.byte	2
 542 000a 02       		.byte	2
 543 000b 02       		.byte	2
 544              		.text
 545              	.Letext0:
 546              		.file 2 ".\\Generated_Source\\PSoC4\\cytypes.h"
 547              		.file 3 ".\\Generated_Source\\PSoC4\\CapSense_PVT.h"
 548              		.file 4 ".\\Generated_Source\\PSoC4\\CapSense.h"
 549              		.file 5 ".\\Generated_Source\\PSoC4\\CapSense_CSHL.h"
 550              		.file 6 ".\\Generated_Source\\PSoC4\\CyLib.h"