ARM GAS  C:\Users\11401393\AppData\Local\Temp\ccv2tvsi.s 			page 1


   1              		.cpu cortex-m0
   2              		.fpu softvfp
   3              		.eabi_attribute 20, 1
   4              		.eabi_attribute 21, 1
   5              		.eabi_attribute 23, 3
   6              		.eabi_attribute 24, 1
   7              		.eabi_attribute 25, 1
   8              		.eabi_attribute 26, 1
   9              		.eabi_attribute 30, 1
  10              		.eabi_attribute 34, 0
  11              		.eabi_attribute 18, 4
  12              		.code	16
  13              		.file	"CapSense_CSHL.c"
  14              		.text
  15              	.Ltext0:
  16              		.cfi_sections	.debug_frame
  17              		.section	.text.CapSense_BaseInit,"ax",%progbits
  18              		.align	2
  19              		.global	CapSense_BaseInit
  20              		.code	16
  21              		.thumb_func
  22              		.type	CapSense_BaseInit, %function
  23              	CapSense_BaseInit:
  24              	.LFB34:
  25              		.file 1 ".\\Generated_Source\\PSoC4\\CapSense_CSHL.c"
   1:.\Generated_Source\PSoC4/CapSense_CSHL.c **** /*******************************************************************************
   2:.\Generated_Source\PSoC4/CapSense_CSHL.c **** * File Name: CapSense_CSHL.c
   3:.\Generated_Source\PSoC4/CapSense_CSHL.c **** * Version 2.20
   4:.\Generated_Source\PSoC4/CapSense_CSHL.c **** *
   5:.\Generated_Source\PSoC4/CapSense_CSHL.c **** * Description:
   6:.\Generated_Source\PSoC4/CapSense_CSHL.c **** *  This file provides the source code to the High Level APIs for the CapSesne
   7:.\Generated_Source\PSoC4/CapSense_CSHL.c **** *  CSD component.
   8:.\Generated_Source\PSoC4/CapSense_CSHL.c **** *
   9:.\Generated_Source\PSoC4/CapSense_CSHL.c **** * Note:
  10:.\Generated_Source\PSoC4/CapSense_CSHL.c **** *
  11:.\Generated_Source\PSoC4/CapSense_CSHL.c **** ********************************************************************************
  12:.\Generated_Source\PSoC4/CapSense_CSHL.c **** * Copyright 2014, Cypress Semiconductor Corporation.  All rights reserved.
  13:.\Generated_Source\PSoC4/CapSense_CSHL.c **** * You may use this file only in accordance with the license, terms, conditions,
  14:.\Generated_Source\PSoC4/CapSense_CSHL.c **** * disclaimers, and limitations in the end user license agreement accompanying
  15:.\Generated_Source\PSoC4/CapSense_CSHL.c **** * the software package with which this file was provided.
  16:.\Generated_Source\PSoC4/CapSense_CSHL.c **** *******************************************************************************/
  17:.\Generated_Source\PSoC4/CapSense_CSHL.c **** 
  18:.\Generated_Source\PSoC4/CapSense_CSHL.c **** #include "CapSense_CSHL.h"
  19:.\Generated_Source\PSoC4/CapSense_CSHL.c **** #include "CapSense_PVT.h"
  20:.\Generated_Source\PSoC4/CapSense_CSHL.c **** 
  21:.\Generated_Source\PSoC4/CapSense_CSHL.c **** /* SmartSense functions */
  22:.\Generated_Source\PSoC4/CapSense_CSHL.c **** #if (CapSense_TUNING_METHOD == CapSense__TUNING_AUTO)
  23:.\Generated_Source\PSoC4/CapSense_CSHL.c ****     extern void CapSense_UpdateThresholds(uint32 sensor);
  24:.\Generated_Source\PSoC4/CapSense_CSHL.c **** #endif /* (CapSense_TUNING_METHOD == CapSense__TUNING_AUTO) */
  25:.\Generated_Source\PSoC4/CapSense_CSHL.c **** 
  26:.\Generated_Source\PSoC4/CapSense_CSHL.c **** /* Storage of filters data */
  27:.\Generated_Source\PSoC4/CapSense_CSHL.c **** #if ( (0u != (CapSense_RAW_FILTER_MASK & CapSense_MEDIAN_FILTER)) || \
  28:.\Generated_Source\PSoC4/CapSense_CSHL.c ****       (0u != (CapSense_RAW_FILTER_MASK & CapSense_AVERAGING_FILTER)) )
  29:.\Generated_Source\PSoC4/CapSense_CSHL.c **** 
  30:.\Generated_Source\PSoC4/CapSense_CSHL.c ****     uint16 CapSense_rawFilterData1[CapSense_TOTAL_SENSOR_COUNT];
  31:.\Generated_Source\PSoC4/CapSense_CSHL.c ****     uint16 CapSense_rawFilterData2[CapSense_TOTAL_SENSOR_COUNT];
  32:.\Generated_Source\PSoC4/CapSense_CSHL.c **** 
ARM GAS  C:\Users\11401393\AppData\Local\Temp\ccv2tvsi.s 			page 2


  33:.\Generated_Source\PSoC4/CapSense_CSHL.c **** #elif ( (0u != (CapSense_RAW_FILTER_MASK & CapSense_IIR2_FILTER))   || \
  34:.\Generated_Source\PSoC4/CapSense_CSHL.c ****         (0u != (CapSense_RAW_FILTER_MASK & CapSense_IIR4_FILTER))   || \
  35:.\Generated_Source\PSoC4/CapSense_CSHL.c ****         (0u != (CapSense_RAW_FILTER_MASK & CapSense_JITTER_FILTER)) || \
  36:.\Generated_Source\PSoC4/CapSense_CSHL.c ****         (0u != (CapSense_RAW_FILTER_MASK & CapSense_IIR8_FILTER))   || \
  37:.\Generated_Source\PSoC4/CapSense_CSHL.c ****         (0u != (CapSense_RAW_FILTER_MASK & CapSense_IIR16_FILTER)) )
  38:.\Generated_Source\PSoC4/CapSense_CSHL.c ****         
  39:.\Generated_Source\PSoC4/CapSense_CSHL.c ****     uint16 CapSense_rawFilterData1[CapSense_TOTAL_SENSOR_COUNT];
  40:.\Generated_Source\PSoC4/CapSense_CSHL.c **** #endif  /* ( (CapSense_RAW_FILTER_MASK & CapSense_MEDIAN_FILTER) || \
  41:.\Generated_Source\PSoC4/CapSense_CSHL.c ****         *    (CapSense_RAW_FILTER_MASK & CapSense_AVERAGING_FILTER) )
  42:.\Generated_Source\PSoC4/CapSense_CSHL.c ****         */
  43:.\Generated_Source\PSoC4/CapSense_CSHL.c **** 
  44:.\Generated_Source\PSoC4/CapSense_CSHL.c **** extern uint16 CapSense_sensorRaw[CapSense_TOTAL_SENSOR_COUNT];
  45:.\Generated_Source\PSoC4/CapSense_CSHL.c **** extern uint8 CapSense_sensorEnableMask[CapSense_TOTAL_SENSOR_MASK];
  46:.\Generated_Source\PSoC4/CapSense_CSHL.c **** extern const uint8 CapSense_widgetNumber[CapSense_TOTAL_SENSOR_COUNT];
  47:.\Generated_Source\PSoC4/CapSense_CSHL.c **** 
  48:.\Generated_Source\PSoC4/CapSense_CSHL.c **** #if (CapSense_TUNING_METHOD != CapSense__TUNING_NONE)
  49:.\Generated_Source\PSoC4/CapSense_CSHL.c **** 	extern uint32 CapSense_widgetResolution[CapSense_RESOLUTIONS_TBL_SIZE];	
  50:.\Generated_Source\PSoC4/CapSense_CSHL.c **** #endif /* (CapSense_TUNING_METHOD != CapSense__TUNING_NONE) */
  51:.\Generated_Source\PSoC4/CapSense_CSHL.c **** 
  52:.\Generated_Source\PSoC4/CapSense_CSHL.c **** uint16 CapSense_sensorBaseline[CapSense_TOTAL_SENSOR_COUNT] = {0u};
  53:.\Generated_Source\PSoC4/CapSense_CSHL.c **** uint8 CapSense_sensorBaselineLow[CapSense_TOTAL_SENSOR_COUNT] = {0u};
  54:.\Generated_Source\PSoC4/CapSense_CSHL.c **** uint8 CapSense_sensorSignal[CapSense_TOTAL_SENSOR_COUNT] = {0u};
  55:.\Generated_Source\PSoC4/CapSense_CSHL.c **** uint8 CapSense_sensorOnMask[CapSense_TOTAL_SENSOR_MASK] = {0u};
  56:.\Generated_Source\PSoC4/CapSense_CSHL.c **** 
  57:.\Generated_Source\PSoC4/CapSense_CSHL.c **** uint8 CapSense_lowBaselineResetCnt[CapSense_TOTAL_SENSOR_COUNT];
  58:.\Generated_Source\PSoC4/CapSense_CSHL.c **** uint8 CapSense_lowBaselineReset[CapSense_TOTAL_SENSOR_COUNT] = {
  59:.\Generated_Source\PSoC4/CapSense_CSHL.c ****     30u, 30u, 30u, 30u, 30u, 30u, 30u, 30u, 30u, 30u, 30u, 30u, 
  60:.\Generated_Source\PSoC4/CapSense_CSHL.c **** };
  61:.\Generated_Source\PSoC4/CapSense_CSHL.c **** 
  62:.\Generated_Source\PSoC4/CapSense_CSHL.c **** 
  63:.\Generated_Source\PSoC4/CapSense_CSHL.c **** 
  64:.\Generated_Source\PSoC4/CapSense_CSHL.c **** #if (CapSense_TUNING_METHOD == CapSense__TUNING_AUTO)
  65:.\Generated_Source\PSoC4/CapSense_CSHL.c **** 	extern CapSense_CONFIG_TYPE_P4_v2_20 CapSense_config;
  66:.\Generated_Source\PSoC4/CapSense_CSHL.c **** #endif  /* (CapSense_TUNING_METHOD == CapSense__TUNING_AUTO) */
  67:.\Generated_Source\PSoC4/CapSense_CSHL.c **** 
  68:.\Generated_Source\PSoC4/CapSense_CSHL.c **** #if (CapSense_RAW_FILTER_MASK != 0u)
  69:.\Generated_Source\PSoC4/CapSense_CSHL.c **** uint8 CapSense_enableRawFilters = CapSense_RAW_FILTERS_ENABLED;
  70:.\Generated_Source\PSoC4/CapSense_CSHL.c **** #endif  /* (CapSense_RAW_FILTER_MASK != 0u) */
  71:.\Generated_Source\PSoC4/CapSense_CSHL.c **** 
  72:.\Generated_Source\PSoC4/CapSense_CSHL.c **** /* Generated by Customizer */
  73:.\Generated_Source\PSoC4/CapSense_CSHL.c **** uint8 CapSense_fingerThreshold[] = {
  74:.\Generated_Source\PSoC4/CapSense_CSHL.c ****     100u, 100u, 100u, 100u, 100u, 100u, 100u, 100u, 100u, 100u, 100u, 220u, 
  75:.\Generated_Source\PSoC4/CapSense_CSHL.c **** };
  76:.\Generated_Source\PSoC4/CapSense_CSHL.c **** 
  77:.\Generated_Source\PSoC4/CapSense_CSHL.c **** uint8 CapSense_noiseThreshold[CapSense_THRESHOLD_TBL_SIZE];
  78:.\Generated_Source\PSoC4/CapSense_CSHL.c **** 
  79:.\Generated_Source\PSoC4/CapSense_CSHL.c **** uint8 CapSense_negativeNoiseThreshold[CapSense_THRESHOLD_TBL_SIZE];
  80:.\Generated_Source\PSoC4/CapSense_CSHL.c **** 
  81:.\Generated_Source\PSoC4/CapSense_CSHL.c **** uint8 CapSense_hysteresis[CapSense_WIDGET_PARAM_TBL_SIZE];
  82:.\Generated_Source\PSoC4/CapSense_CSHL.c **** 
  83:.\Generated_Source\PSoC4/CapSense_CSHL.c **** uint8 CapSense_debounce[] = {
  84:.\Generated_Source\PSoC4/CapSense_CSHL.c ****     5u, 5u, 5u, 5u, 5u, 5u, 5u, 5u, 5u, 5u, 5u, 5u, 
  85:.\Generated_Source\PSoC4/CapSense_CSHL.c **** };
  86:.\Generated_Source\PSoC4/CapSense_CSHL.c **** 
  87:.\Generated_Source\PSoC4/CapSense_CSHL.c **** static uint8 CapSense_debounceCounter[] = {
  88:.\Generated_Source\PSoC4/CapSense_CSHL.c ****     0u, 0u, 0u, 0u, 0u, 0u, 0u, 0u, 0u, 0u, 0u, 0u, 0u, 
  89:.\Generated_Source\PSoC4/CapSense_CSHL.c **** };
ARM GAS  C:\Users\11401393\AppData\Local\Temp\ccv2tvsi.s 			page 3


  90:.\Generated_Source\PSoC4/CapSense_CSHL.c **** 
  91:.\Generated_Source\PSoC4/CapSense_CSHL.c **** const uint8 CapSense_rawDataIndex[] = {
  92:.\Generated_Source\PSoC4/CapSense_CSHL.c ****     0u, /* Button1__BTN */
  93:.\Generated_Source\PSoC4/CapSense_CSHL.c ****     1u, /* Button2__BTN */
  94:.\Generated_Source\PSoC4/CapSense_CSHL.c ****     2u, /* Button3__BTN */
  95:.\Generated_Source\PSoC4/CapSense_CSHL.c ****     3u, /* Button4__BTN */
  96:.\Generated_Source\PSoC4/CapSense_CSHL.c ****     4u, /* Button5__BTN */
  97:.\Generated_Source\PSoC4/CapSense_CSHL.c ****     5u, /* Button6__BTN */
  98:.\Generated_Source\PSoC4/CapSense_CSHL.c ****     6u, /* Button7__BTN */
  99:.\Generated_Source\PSoC4/CapSense_CSHL.c ****     7u, /* Button8__BTN */
 100:.\Generated_Source\PSoC4/CapSense_CSHL.c ****     8u, /* Button9__BTN */
 101:.\Generated_Source\PSoC4/CapSense_CSHL.c ****     9u, /* Button10__BTN */
 102:.\Generated_Source\PSoC4/CapSense_CSHL.c ****     10u, /* Button11__BTN */
 103:.\Generated_Source\PSoC4/CapSense_CSHL.c ****     11u, /* Button12__BTN */
 104:.\Generated_Source\PSoC4/CapSense_CSHL.c **** };
 105:.\Generated_Source\PSoC4/CapSense_CSHL.c **** 
 106:.\Generated_Source\PSoC4/CapSense_CSHL.c **** const uint8 CapSense_numberOfSensors[] = {
 107:.\Generated_Source\PSoC4/CapSense_CSHL.c ****     1u, /* Button1__BTN */
 108:.\Generated_Source\PSoC4/CapSense_CSHL.c ****     1u, /* Button2__BTN */
 109:.\Generated_Source\PSoC4/CapSense_CSHL.c ****     1u, /* Button3__BTN */
 110:.\Generated_Source\PSoC4/CapSense_CSHL.c ****     1u, /* Button4__BTN */
 111:.\Generated_Source\PSoC4/CapSense_CSHL.c ****     1u, /* Button5__BTN */
 112:.\Generated_Source\PSoC4/CapSense_CSHL.c ****     1u, /* Button6__BTN */
 113:.\Generated_Source\PSoC4/CapSense_CSHL.c ****     1u, /* Button7__BTN */
 114:.\Generated_Source\PSoC4/CapSense_CSHL.c ****     1u, /* Button8__BTN */
 115:.\Generated_Source\PSoC4/CapSense_CSHL.c ****     1u, /* Button9__BTN */
 116:.\Generated_Source\PSoC4/CapSense_CSHL.c ****     1u, /* Button10__BTN */
 117:.\Generated_Source\PSoC4/CapSense_CSHL.c ****     1u, /* Button11__BTN */
 118:.\Generated_Source\PSoC4/CapSense_CSHL.c ****     1u, /* Button12__BTN */
 119:.\Generated_Source\PSoC4/CapSense_CSHL.c **** };
 120:.\Generated_Source\PSoC4/CapSense_CSHL.c **** 
 121:.\Generated_Source\PSoC4/CapSense_CSHL.c **** 
 122:.\Generated_Source\PSoC4/CapSense_CSHL.c **** 
 123:.\Generated_Source\PSoC4/CapSense_CSHL.c **** 
 124:.\Generated_Source\PSoC4/CapSense_CSHL.c **** /*******************************************************************************
 125:.\Generated_Source\PSoC4/CapSense_CSHL.c **** * Function Name: CapSense_BaseInit
 126:.\Generated_Source\PSoC4/CapSense_CSHL.c **** ********************************************************************************
 127:.\Generated_Source\PSoC4/CapSense_CSHL.c **** *
 128:.\Generated_Source\PSoC4/CapSense_CSHL.c **** * Summary:
 129:.\Generated_Source\PSoC4/CapSense_CSHL.c **** *  Loads the CapSense_sensorBaseline[sensor] array element with an 
 130:.\Generated_Source\PSoC4/CapSense_CSHL.c **** *  initial value which is equal to the raw count value. 
 131:.\Generated_Source\PSoC4/CapSense_CSHL.c **** *  Resets to zero CapSense_sensorBaselineLow[sensor] and 
 132:.\Generated_Source\PSoC4/CapSense_CSHL.c **** *  CapSense_sensorSignal[sensor] array element.
 133:.\Generated_Source\PSoC4/CapSense_CSHL.c **** *  Loads the CapSense_rawFilterData2[sensor] and 
 134:.\Generated_Source\PSoC4/CapSense_CSHL.c **** *  CapSense_rawFilterData2[sensor] array element with an 
 135:.\Generated_Source\PSoC4/CapSense_CSHL.c **** *  initial value which is equal to the raw count value if the raw data filter is enabled.
 136:.\Generated_Source\PSoC4/CapSense_CSHL.c **** *
 137:.\Generated_Source\PSoC4/CapSense_CSHL.c **** * Parameters:
 138:.\Generated_Source\PSoC4/CapSense_CSHL.c **** *  sensor:  Sensor number.
 139:.\Generated_Source\PSoC4/CapSense_CSHL.c **** *
 140:.\Generated_Source\PSoC4/CapSense_CSHL.c **** * Return:
 141:.\Generated_Source\PSoC4/CapSense_CSHL.c **** *  None
 142:.\Generated_Source\PSoC4/CapSense_CSHL.c **** *
 143:.\Generated_Source\PSoC4/CapSense_CSHL.c **** * Global Variables:
 144:.\Generated_Source\PSoC4/CapSense_CSHL.c **** *  CapSense_sensorBaseline[]    - used to store the baseline value.
 145:.\Generated_Source\PSoC4/CapSense_CSHL.c **** *  CapSense_sensorBaselineLow[] - used to store the fraction byte of 
 146:.\Generated_Source\PSoC4/CapSense_CSHL.c **** *  the baseline value.
ARM GAS  C:\Users\11401393\AppData\Local\Temp\ccv2tvsi.s 			page 4


 147:.\Generated_Source\PSoC4/CapSense_CSHL.c **** *  CapSense_sensorSignal[]      - used to store a difference between 
 148:.\Generated_Source\PSoC4/CapSense_CSHL.c **** *  the current value of raw data and the previous value of the baseline.
 149:.\Generated_Source\PSoC4/CapSense_CSHL.c **** *  CapSense_rawFilterData1[]    - used to store a previous sample of 
 150:.\Generated_Source\PSoC4/CapSense_CSHL.c **** *  any enabled raw data filter.
 151:.\Generated_Source\PSoC4/CapSense_CSHL.c **** *  CapSense_rawFilterData2[]    - used to store before a previous sample
 152:.\Generated_Source\PSoC4/CapSense_CSHL.c **** *  of the enabled raw data filter. Required only for median or average filters.
 153:.\Generated_Source\PSoC4/CapSense_CSHL.c **** *
 154:.\Generated_Source\PSoC4/CapSense_CSHL.c **** * Side Effects:
 155:.\Generated_Source\PSoC4/CapSense_CSHL.c **** *  None
 156:.\Generated_Source\PSoC4/CapSense_CSHL.c **** * 
 157:.\Generated_Source\PSoC4/CapSense_CSHL.c **** *******************************************************************************/
 158:.\Generated_Source\PSoC4/CapSense_CSHL.c **** void CapSense_BaseInit(uint32 sensor)
 159:.\Generated_Source\PSoC4/CapSense_CSHL.c **** {
  26              		.loc 1 159 0
  27              		.cfi_startproc
  28              	.LVL0:
  29 0000 70B5     		push	{r4, r5, r6, lr}
  30              		.cfi_def_cfa_offset 16
  31              		.cfi_offset 4, -16
  32              		.cfi_offset 5, -12
  33              		.cfi_offset 6, -8
  34              		.cfi_offset 14, -4
 160:.\Generated_Source\PSoC4/CapSense_CSHL.c ****     #if ((CapSense_TOTAL_BUTTONS_COUNT) || (CapSense_TOTAL_MATRIX_BUTTONS_COUNT) || \
 161:.\Generated_Source\PSoC4/CapSense_CSHL.c ****          (CapSense_TOTAL_GENERICS_COUNT))
 162:.\Generated_Source\PSoC4/CapSense_CSHL.c ****         uint8 widget = CapSense_widgetNumber[sensor];
  35              		.loc 1 162 0
  36 0002 0A4B     		ldr	r3, .L2
  37 0004 1C5C     		ldrb	r4, [r3, r0]
  38              	.LVL1:
 163:.\Generated_Source\PSoC4/CapSense_CSHL.c ****     #endif /* ((CapSense_TOTAL_MATRIX_BUTTONS_COUNT) || (CapSense_TOTAL_MATRIX_BUTTONS_COUNT)) */
 164:.\Generated_Source\PSoC4/CapSense_CSHL.c ****     
 165:.\Generated_Source\PSoC4/CapSense_CSHL.c ****     #if (CapSense_TOTAL_MATRIX_BUTTONS_COUNT)
 166:.\Generated_Source\PSoC4/CapSense_CSHL.c ****         uint8 debounceIndex;
 167:.\Generated_Source\PSoC4/CapSense_CSHL.c ****     #endif  /* (CapSense_TOTAL_MATRIX_BUTTONS_COUNT) */
 168:.\Generated_Source\PSoC4/CapSense_CSHL.c ****     
 169:.\Generated_Source\PSoC4/CapSense_CSHL.c ****     #if (CapSense_TOTAL_GENERICS_COUNT)
 170:.\Generated_Source\PSoC4/CapSense_CSHL.c ****         /* Exclude generic widget */
 171:.\Generated_Source\PSoC4/CapSense_CSHL.c ****         if(widget < CapSense_END_OF_WIDGETS_INDEX)
 172:.\Generated_Source\PSoC4/CapSense_CSHL.c ****         {
 173:.\Generated_Source\PSoC4/CapSense_CSHL.c ****     #endif  /* CapSense_TOTAL_GENERICS_COUNT */
 174:.\Generated_Source\PSoC4/CapSense_CSHL.c ****     
 175:.\Generated_Source\PSoC4/CapSense_CSHL.c ****     /* Initialize Baseline */
 176:.\Generated_Source\PSoC4/CapSense_CSHL.c ****     CapSense_sensorBaseline[sensor] = CapSense_sensorRaw[sensor];
  39              		.loc 1 176 0
  40 0006 4200     		lsl	r2, r0, #1
  41 0008 094B     		ldr	r3, .L2+4
  42              	.LVL2:
  43 000a D15A     		ldrh	r1, [r2, r3]
  44 000c 094B     		ldr	r3, .L2+8
  45 000e D152     		strh	r1, [r2, r3]
 177:.\Generated_Source\PSoC4/CapSense_CSHL.c ****     CapSense_sensorBaselineLow[sensor] = 0u;
  46              		.loc 1 177 0
  47 0010 1E18     		add	r6, r3, r0
  48 0012 0025     		mov	r5, #0
  49 0014 3576     		strb	r5, [r6, #24]
 178:.\Generated_Source\PSoC4/CapSense_CSHL.c ****     CapSense_sensorSignal[sensor] = 0u;
  50              		.loc 1 178 0
ARM GAS  C:\Users\11401393\AppData\Local\Temp\ccv2tvsi.s 			page 5


  51 0016 1E1C     		mov	r6, r3
  52 0018 2436     		add	r6, r6, #36
  53 001a 3554     		strb	r5, [r6, r0]
 179:.\Generated_Source\PSoC4/CapSense_CSHL.c ****         
 180:.\Generated_Source\PSoC4/CapSense_CSHL.c ****     CapSense_debounceCounter[widget] =  CapSense_debounce[widget];
  54              		.loc 1 180 0
  55 001c 0648     		ldr	r0, .L2+12
  56              	.LVL3:
  57 001e 005D     		ldrb	r0, [r0, r4]
  58 0020 3033     		add	r3, r3, #48
  59 0022 1855     		strb	r0, [r3, r4]
 181:.\Generated_Source\PSoC4/CapSense_CSHL.c **** 
 182:.\Generated_Source\PSoC4/CapSense_CSHL.c ****     
 183:.\Generated_Source\PSoC4/CapSense_CSHL.c ****     #if ((0u != (CapSense_RAW_FILTER_MASK & CapSense_MEDIAN_FILTER)) ||\
 184:.\Generated_Source\PSoC4/CapSense_CSHL.c ****          (0u != (CapSense_RAW_FILTER_MASK & CapSense_AVERAGING_FILTER)))
 185:.\Generated_Source\PSoC4/CapSense_CSHL.c **** 
 186:.\Generated_Source\PSoC4/CapSense_CSHL.c ****         CapSense_rawFilterData1[sensor] = CapSense_sensorRaw[sensor];
 187:.\Generated_Source\PSoC4/CapSense_CSHL.c ****         CapSense_rawFilterData2[sensor] = CapSense_sensorRaw[sensor];
 188:.\Generated_Source\PSoC4/CapSense_CSHL.c ****     
 189:.\Generated_Source\PSoC4/CapSense_CSHL.c ****     #elif ((CapSense_RAW_FILTER_MASK & CapSense_IIR2_FILTER) ||\
 190:.\Generated_Source\PSoC4/CapSense_CSHL.c ****            (CapSense_RAW_FILTER_MASK & CapSense_IIR4_FILTER) ||\
 191:.\Generated_Source\PSoC4/CapSense_CSHL.c ****            (CapSense_RAW_FILTER_MASK & CapSense_JITTER_FILTER) ||\
 192:.\Generated_Source\PSoC4/CapSense_CSHL.c ****            (CapSense_RAW_FILTER_MASK & CapSense_IIR8_FILTER) ||\
 193:.\Generated_Source\PSoC4/CapSense_CSHL.c ****            (CapSense_RAW_FILTER_MASK & CapSense_IIR16_FILTER))
 194:.\Generated_Source\PSoC4/CapSense_CSHL.c ****             
 195:.\Generated_Source\PSoC4/CapSense_CSHL.c ****         CapSense_rawFilterData1[sensor] = CapSense_sensorRaw[sensor];
  60              		.loc 1 195 0
  61 0024 054B     		ldr	r3, .L2+16
  62 0026 D152     		strh	r1, [r2, r3]
 196:.\Generated_Source\PSoC4/CapSense_CSHL.c ****     
 197:.\Generated_Source\PSoC4/CapSense_CSHL.c ****     #else
 198:.\Generated_Source\PSoC4/CapSense_CSHL.c ****         /* No Raw filters */
 199:.\Generated_Source\PSoC4/CapSense_CSHL.c ****     #endif  /* ((CapSense_RAW_FILTER_MASK & CapSense_MEDIAN_FILTER) || \
 200:.\Generated_Source\PSoC4/CapSense_CSHL.c ****             *   (CapSense_RAW_FILTER_MASK & CapSense_AVERAGING_FILTER))
 201:.\Generated_Source\PSoC4/CapSense_CSHL.c ****             */
 202:.\Generated_Source\PSoC4/CapSense_CSHL.c ****     
 203:.\Generated_Source\PSoC4/CapSense_CSHL.c ****     #if (CapSense_TOTAL_GENERICS_COUNT)
 204:.\Generated_Source\PSoC4/CapSense_CSHL.c ****         /* Exclude generic widget */
 205:.\Generated_Source\PSoC4/CapSense_CSHL.c ****         }
 206:.\Generated_Source\PSoC4/CapSense_CSHL.c ****     #endif  /* CapSense_TOTAL_GENERICS_COUNT */
 207:.\Generated_Source\PSoC4/CapSense_CSHL.c **** }
  63              		.loc 1 207 0
  64              		@ sp needed
  65              	.LVL4:
  66 0028 70BD     		pop	{r4, r5, r6, pc}
  67              	.L3:
  68 002a C046     		.align	2
  69              	.L2:
  70 002c 00000000 		.word	CapSense_widgetNumber
  71 0030 00000000 		.word	CapSense_sensorRaw
  72 0034 00000000 		.word	.LANCHOR0
  73 0038 00000000 		.word	.LANCHOR1
  74 003c 00000000 		.word	CapSense_rawFilterData1
  75              		.cfi_endproc
  76              	.LFE34:
  77              		.size	CapSense_BaseInit, .-CapSense_BaseInit
  78              		.section	.text.CapSense_InitializeSensorBaseline,"ax",%progbits
ARM GAS  C:\Users\11401393\AppData\Local\Temp\ccv2tvsi.s 			page 6


  79              		.align	2
  80              		.global	CapSense_InitializeSensorBaseline
  81              		.code	16
  82              		.thumb_func
  83              		.type	CapSense_InitializeSensorBaseline, %function
  84              	CapSense_InitializeSensorBaseline:
  85              	.LFB35:
 208:.\Generated_Source\PSoC4/CapSense_CSHL.c **** 
 209:.\Generated_Source\PSoC4/CapSense_CSHL.c **** 
 210:.\Generated_Source\PSoC4/CapSense_CSHL.c **** /*******************************************************************************
 211:.\Generated_Source\PSoC4/CapSense_CSHL.c **** * Function Name: CapSense_InitializeSensorBaseline
 212:.\Generated_Source\PSoC4/CapSense_CSHL.c **** ********************************************************************************
 213:.\Generated_Source\PSoC4/CapSense_CSHL.c **** *
 214:.\Generated_Source\PSoC4/CapSense_CSHL.c **** * Summary:
 215:.\Generated_Source\PSoC4/CapSense_CSHL.c **** *  Loads the CapSense_sensorBaseline[sensor] array element with an 
 216:.\Generated_Source\PSoC4/CapSense_CSHL.c **** *  initial value by scanning the selected sensor (one channel design) or a pair 
 217:.\Generated_Source\PSoC4/CapSense_CSHL.c **** *  of sensors (two channels designs). The raw count value is copied into the 
 218:.\Generated_Source\PSoC4/CapSense_CSHL.c **** *  baseline array for each sensor. The raw data filters are initialized if 
 219:.\Generated_Source\PSoC4/CapSense_CSHL.c **** *  enabled.
 220:.\Generated_Source\PSoC4/CapSense_CSHL.c **** *
 221:.\Generated_Source\PSoC4/CapSense_CSHL.c **** * Parameters:
 222:.\Generated_Source\PSoC4/CapSense_CSHL.c **** *  sensor:  Sensor number.
 223:.\Generated_Source\PSoC4/CapSense_CSHL.c **** *
 224:.\Generated_Source\PSoC4/CapSense_CSHL.c **** * Return:
 225:.\Generated_Source\PSoC4/CapSense_CSHL.c **** *  None
 226:.\Generated_Source\PSoC4/CapSense_CSHL.c **** *
 227:.\Generated_Source\PSoC4/CapSense_CSHL.c **** * Global Variables:
 228:.\Generated_Source\PSoC4/CapSense_CSHL.c **** *  None
 229:.\Generated_Source\PSoC4/CapSense_CSHL.c **** *
 230:.\Generated_Source\PSoC4/CapSense_CSHL.c **** * Side Effects:
 231:.\Generated_Source\PSoC4/CapSense_CSHL.c **** *  None
 232:.\Generated_Source\PSoC4/CapSense_CSHL.c **** * 
 233:.\Generated_Source\PSoC4/CapSense_CSHL.c **** *******************************************************************************/
 234:.\Generated_Source\PSoC4/CapSense_CSHL.c **** void CapSense_InitializeSensorBaseline(uint32 sensor)
 235:.\Generated_Source\PSoC4/CapSense_CSHL.c **** {
  86              		.loc 1 235 0
  87              		.cfi_startproc
  88              	.LVL5:
  89 0000 10B5     		push	{r4, lr}
  90              		.cfi_def_cfa_offset 8
  91              		.cfi_offset 4, -8
  92              		.cfi_offset 14, -4
  93 0002 041C     		mov	r4, r0
 236:.\Generated_Source\PSoC4/CapSense_CSHL.c ****     /* Scan sensor */
 237:.\Generated_Source\PSoC4/CapSense_CSHL.c ****     CapSense_ScanSensor(sensor);
  94              		.loc 1 237 0
  95 0004 FFF7FEFF 		bl	CapSense_ScanSensor
  96              	.LVL6:
  97              	.L5:
 238:.\Generated_Source\PSoC4/CapSense_CSHL.c ****     while(CapSense_IsBusy() != 0u)
  98              		.loc 1 238 0 discriminator 1
  99 0008 FFF7FEFF 		bl	CapSense_IsBusy
 100              	.LVL7:
 101 000c 0028     		cmp	r0, #0
 102 000e FBD1     		bne	.L5
 239:.\Generated_Source\PSoC4/CapSense_CSHL.c ****     {
 240:.\Generated_Source\PSoC4/CapSense_CSHL.c ****         /* Wait while sensor is busy */
ARM GAS  C:\Users\11401393\AppData\Local\Temp\ccv2tvsi.s 			page 7


 241:.\Generated_Source\PSoC4/CapSense_CSHL.c ****     }
 242:.\Generated_Source\PSoC4/CapSense_CSHL.c ****     
 243:.\Generated_Source\PSoC4/CapSense_CSHL.c ****     /* Initialize Baseline, Signal and debounce counters */       
 244:.\Generated_Source\PSoC4/CapSense_CSHL.c ****     CapSense_BaseInit(sensor);
 103              		.loc 1 244 0
 104 0010 201C     		mov	r0, r4
 105 0012 FFF7FEFF 		bl	CapSense_BaseInit
 106              	.LVL8:
 245:.\Generated_Source\PSoC4/CapSense_CSHL.c **** }
 107              		.loc 1 245 0
 108              		@ sp needed
 109              	.LVL9:
 110 0016 10BD     		pop	{r4, pc}
 111              		.cfi_endproc
 112              	.LFE35:
 113              		.size	CapSense_InitializeSensorBaseline, .-CapSense_InitializeSensorBaseline
 114              		.section	.text.CapSense_InitializeAllBaselines,"ax",%progbits
 115              		.align	2
 116              		.global	CapSense_InitializeAllBaselines
 117              		.code	16
 118              		.thumb_func
 119              		.type	CapSense_InitializeAllBaselines, %function
 120              	CapSense_InitializeAllBaselines:
 121              	.LFB36:
 246:.\Generated_Source\PSoC4/CapSense_CSHL.c **** 
 247:.\Generated_Source\PSoC4/CapSense_CSHL.c **** 
 248:.\Generated_Source\PSoC4/CapSense_CSHL.c **** /*******************************************************************************
 249:.\Generated_Source\PSoC4/CapSense_CSHL.c **** * Function Name: CapSense_InitializeAllBaselines
 250:.\Generated_Source\PSoC4/CapSense_CSHL.c **** ********************************************************************************
 251:.\Generated_Source\PSoC4/CapSense_CSHL.c **** *
 252:.\Generated_Source\PSoC4/CapSense_CSHL.c **** * Summary:
 253:.\Generated_Source\PSoC4/CapSense_CSHL.c **** *  Uses the CapSense_InitializeSensorBaseline function to load the 
 254:.\Generated_Source\PSoC4/CapSense_CSHL.c **** *  CapSense_sensorBaseline[] array with an initial values by scanning 
 255:.\Generated_Source\PSoC4/CapSense_CSHL.c **** *  all the sensors. The raw count values are copied into the baseline array for 
 256:.\Generated_Source\PSoC4/CapSense_CSHL.c **** *  all the sensors. The raw data filters are initialized if enabled.
 257:.\Generated_Source\PSoC4/CapSense_CSHL.c **** *
 258:.\Generated_Source\PSoC4/CapSense_CSHL.c **** * Parameters:
 259:.\Generated_Source\PSoC4/CapSense_CSHL.c **** *  None
 260:.\Generated_Source\PSoC4/CapSense_CSHL.c **** *
 261:.\Generated_Source\PSoC4/CapSense_CSHL.c **** * Return:
 262:.\Generated_Source\PSoC4/CapSense_CSHL.c **** *  None
 263:.\Generated_Source\PSoC4/CapSense_CSHL.c **** *
 264:.\Generated_Source\PSoC4/CapSense_CSHL.c **** * Global Variables:
 265:.\Generated_Source\PSoC4/CapSense_CSHL.c **** *  None
 266:.\Generated_Source\PSoC4/CapSense_CSHL.c **** *
 267:.\Generated_Source\PSoC4/CapSense_CSHL.c **** * Side Effects:
 268:.\Generated_Source\PSoC4/CapSense_CSHL.c **** *  None
 269:.\Generated_Source\PSoC4/CapSense_CSHL.c **** * 
 270:.\Generated_Source\PSoC4/CapSense_CSHL.c **** *******************************************************************************/
 271:.\Generated_Source\PSoC4/CapSense_CSHL.c **** void CapSense_InitializeAllBaselines(void)
 272:.\Generated_Source\PSoC4/CapSense_CSHL.c **** {
 122              		.loc 1 272 0
 123              		.cfi_startproc
 124 0000 10B5     		push	{r4, lr}
 125              		.cfi_def_cfa_offset 8
 126              		.cfi_offset 4, -8
 127              		.cfi_offset 14, -4
ARM GAS  C:\Users\11401393\AppData\Local\Temp\ccv2tvsi.s 			page 8


 128              	.LVL10:
 273:.\Generated_Source\PSoC4/CapSense_CSHL.c ****     uint32 i;
 274:.\Generated_Source\PSoC4/CapSense_CSHL.c ****     
 275:.\Generated_Source\PSoC4/CapSense_CSHL.c **** 	for(i = 0u; i < CapSense_TOTAL_SCANSLOT_COUNT; i++)
 129              		.loc 1 275 0
 130 0002 0024     		mov	r4, #0
 131 0004 03E0     		b	.L8
 132              	.LVL11:
 133              	.L9:
 276:.\Generated_Source\PSoC4/CapSense_CSHL.c **** 	{
 277:.\Generated_Source\PSoC4/CapSense_CSHL.c ****     	CapSense_InitializeSensorBaseline(i);
 134              		.loc 1 277 0 discriminator 2
 135 0006 201C     		mov	r0, r4
 136 0008 FFF7FEFF 		bl	CapSense_InitializeSensorBaseline
 137              	.LVL12:
 275:.\Generated_Source\PSoC4/CapSense_CSHL.c **** 	for(i = 0u; i < CapSense_TOTAL_SCANSLOT_COUNT; i++)
 138              		.loc 1 275 0 discriminator 2
 139 000c 0134     		add	r4, r4, #1
 140              	.LVL13:
 141              	.L8:
 275:.\Generated_Source\PSoC4/CapSense_CSHL.c **** 	for(i = 0u; i < CapSense_TOTAL_SCANSLOT_COUNT; i++)
 142              		.loc 1 275 0 is_stmt 0 discriminator 1
 143 000e 0B2C     		cmp	r4, #11
 144 0010 F9D9     		bls	.L9
 278:.\Generated_Source\PSoC4/CapSense_CSHL.c **** 	}
 279:.\Generated_Source\PSoC4/CapSense_CSHL.c **** }
 145              		.loc 1 279 0 is_stmt 1
 146              		@ sp needed
 147              	.LVL14:
 148 0012 10BD     		pop	{r4, pc}
 149              		.cfi_endproc
 150              	.LFE36:
 151              		.size	CapSense_InitializeAllBaselines, .-CapSense_InitializeAllBaselines
 152              		.section	.text.CapSense_InitializeEnabledBaselines,"ax",%progbits
 153              		.align	2
 154              		.global	CapSense_InitializeEnabledBaselines
 155              		.code	16
 156              		.thumb_func
 157              		.type	CapSense_InitializeEnabledBaselines, %function
 158              	CapSense_InitializeEnabledBaselines:
 159              	.LFB37:
 280:.\Generated_Source\PSoC4/CapSense_CSHL.c **** 
 281:.\Generated_Source\PSoC4/CapSense_CSHL.c **** 
 282:.\Generated_Source\PSoC4/CapSense_CSHL.c **** /*******************************************************************************
 283:.\Generated_Source\PSoC4/CapSense_CSHL.c **** * Function Name: CapSense_InitializeEnabledBaselines
 284:.\Generated_Source\PSoC4/CapSense_CSHL.c **** ********************************************************************************
 285:.\Generated_Source\PSoC4/CapSense_CSHL.c **** *
 286:.\Generated_Source\PSoC4/CapSense_CSHL.c **** * Summary:
 287:.\Generated_Source\PSoC4/CapSense_CSHL.c **** *  Scans all the enabled widgets and the raw count values are copied into the 
 288:.\Generated_Source\PSoC4/CapSense_CSHL.c **** *  baseline array for all the sensors enabled in the scanning process. The baselines 
 289:.\Generated_Source\PSoC4/CapSense_CSHL.c **** *  are initialized with zero values for sensors disabled from the scanning process. 
 290:.\Generated_Source\PSoC4/CapSense_CSHL.c **** *  The raw data filters are initialized if enabled.
 291:.\Generated_Source\PSoC4/CapSense_CSHL.c **** *
 292:.\Generated_Source\PSoC4/CapSense_CSHL.c **** * Parameters:
 293:.\Generated_Source\PSoC4/CapSense_CSHL.c **** *  None
 294:.\Generated_Source\PSoC4/CapSense_CSHL.c **** *
 295:.\Generated_Source\PSoC4/CapSense_CSHL.c **** * Return:
ARM GAS  C:\Users\11401393\AppData\Local\Temp\ccv2tvsi.s 			page 9


 296:.\Generated_Source\PSoC4/CapSense_CSHL.c **** *  None
 297:.\Generated_Source\PSoC4/CapSense_CSHL.c **** *
 298:.\Generated_Source\PSoC4/CapSense_CSHL.c **** * Global Variables:
 299:.\Generated_Source\PSoC4/CapSense_CSHL.c **** *  CapSense_sensorRaw[] - used to store the sensors raw data.
 300:.\Generated_Source\PSoC4/CapSense_CSHL.c **** *  CapSense_sensorEnableMask[ ] - used to store bit masks of the enabled sensors.
 301:.\Generated_Source\PSoC4/CapSense_CSHL.c **** *
 302:.\Generated_Source\PSoC4/CapSense_CSHL.c **** * Side Effects:
 303:.\Generated_Source\PSoC4/CapSense_CSHL.c **** *  None
 304:.\Generated_Source\PSoC4/CapSense_CSHL.c **** * 
 305:.\Generated_Source\PSoC4/CapSense_CSHL.c **** *******************************************************************************/
 306:.\Generated_Source\PSoC4/CapSense_CSHL.c **** void CapSense_InitializeEnabledBaselines(void)
 307:.\Generated_Source\PSoC4/CapSense_CSHL.c **** {
 160              		.loc 1 307 0
 161              		.cfi_startproc
 162 0000 38B5     		push	{r3, r4, r5, lr}
 163              		.cfi_def_cfa_offset 16
 164              		.cfi_offset 3, -16
 165              		.cfi_offset 4, -12
 166              		.cfi_offset 5, -8
 167              		.cfi_offset 14, -4
 308:.\Generated_Source\PSoC4/CapSense_CSHL.c ****     uint32 i;
 309:.\Generated_Source\PSoC4/CapSense_CSHL.c ****     uint32 isSensorEnabled;
 310:.\Generated_Source\PSoC4/CapSense_CSHL.c ****     
 311:.\Generated_Source\PSoC4/CapSense_CSHL.c ****     CapSense_ScanEnabledWidgets();
 168              		.loc 1 311 0
 169 0002 FFF7FEFF 		bl	CapSense_ScanEnabledWidgets
 170              	.LVL15:
 171              	.L11:
 312:.\Generated_Source\PSoC4/CapSense_CSHL.c ****     while(CapSense_IsBusy() != 0u)
 172              		.loc 1 312 0 discriminator 1
 173 0006 FFF7FEFF 		bl	CapSense_IsBusy
 174              	.LVL16:
 175 000a 0028     		cmp	r0, #0
 176 000c FBD1     		bne	.L11
 177 000e 0024     		mov	r4, #0
 313:.\Generated_Source\PSoC4/CapSense_CSHL.c ****     {
 314:.\Generated_Source\PSoC4/CapSense_CSHL.c ****         /* Wait while sensor is busy */
 315:.\Generated_Source\PSoC4/CapSense_CSHL.c ****     }
 316:.\Generated_Source\PSoC4/CapSense_CSHL.c ****     
 317:.\Generated_Source\PSoC4/CapSense_CSHL.c ****     for(i = 0u; i < CapSense_TOTAL_SENSOR_COUNT; i++)
 318:.\Generated_Source\PSoC4/CapSense_CSHL.c ****     {
 319:.\Generated_Source\PSoC4/CapSense_CSHL.c ****         isSensorEnabled = CapSense_GetBitValue(CapSense_sensorEnableMask, i);
 178              		.loc 1 319 0
 179 0010 074D     		ldr	r5, .L16
 180 0012 09E0     		b	.L12
 181              	.LVL17:
 182              	.L14:
 183 0014 281C     		mov	r0, r5
 184 0016 211C     		mov	r1, r4
 185 0018 FFF7FEFF 		bl	CapSense_GetBitValue
 186              	.LVL18:
 320:.\Generated_Source\PSoC4/CapSense_CSHL.c ****         
 321:.\Generated_Source\PSoC4/CapSense_CSHL.c ****         /* Clear raw data if sensor is disabled from scanning process */
 322:.\Generated_Source\PSoC4/CapSense_CSHL.c ****         if(isSensorEnabled != 0u)
 187              		.loc 1 322 0
 188 001c 0028     		cmp	r0, #0
 189 001e 02D0     		beq	.L13
ARM GAS  C:\Users\11401393\AppData\Local\Temp\ccv2tvsi.s 			page 10


 323:.\Generated_Source\PSoC4/CapSense_CSHL.c ****         {
 324:.\Generated_Source\PSoC4/CapSense_CSHL.c ****             /* Initialize baselines */
 325:.\Generated_Source\PSoC4/CapSense_CSHL.c ****             CapSense_BaseInit(i);
 190              		.loc 1 325 0
 191 0020 201C     		mov	r0, r4
 192              	.LVL19:
 193 0022 FFF7FEFF 		bl	CapSense_BaseInit
 194              	.LVL20:
 195              	.L13:
 317:.\Generated_Source\PSoC4/CapSense_CSHL.c ****     for(i = 0u; i < CapSense_TOTAL_SENSOR_COUNT; i++)
 196              		.loc 1 317 0
 197 0026 0134     		add	r4, r4, #1
 198              	.LVL21:
 199              	.L12:
 317:.\Generated_Source\PSoC4/CapSense_CSHL.c ****     for(i = 0u; i < CapSense_TOTAL_SENSOR_COUNT; i++)
 200              		.loc 1 317 0 is_stmt 0 discriminator 1
 201 0028 0B2C     		cmp	r4, #11
 202 002a F3D9     		bls	.L14
 326:.\Generated_Source\PSoC4/CapSense_CSHL.c ****         }
 327:.\Generated_Source\PSoC4/CapSense_CSHL.c ****     }
 328:.\Generated_Source\PSoC4/CapSense_CSHL.c **** }  
 203              		.loc 1 328 0 is_stmt 1
 204              		@ sp needed
 205              	.LVL22:
 206 002c 38BD     		pop	{r3, r4, r5, pc}
 207              	.L17:
 208 002e C046     		.align	2
 209              	.L16:
 210 0030 00000000 		.word	CapSense_sensorEnableMask
 211              		.cfi_endproc
 212              	.LFE37:
 213              		.size	CapSense_InitializeEnabledBaselines, .-CapSense_InitializeEnabledBaselines
 214              		.section	.text.CapSense_GetBaselineData,"ax",%progbits
 215              		.align	2
 216              		.global	CapSense_GetBaselineData
 217              		.code	16
 218              		.thumb_func
 219              		.type	CapSense_GetBaselineData, %function
 220              	CapSense_GetBaselineData:
 221              	.LFB42:
 329:.\Generated_Source\PSoC4/CapSense_CSHL.c **** 
 330:.\Generated_Source\PSoC4/CapSense_CSHL.c **** 
 331:.\Generated_Source\PSoC4/CapSense_CSHL.c **** /*******************************************************************************
 332:.\Generated_Source\PSoC4/CapSense_CSHL.c **** * Function Name: CapSense_UpdateBaselineNoThreshold
 333:.\Generated_Source\PSoC4/CapSense_CSHL.c **** ********************************************************************************
 334:.\Generated_Source\PSoC4/CapSense_CSHL.c **** *
 335:.\Generated_Source\PSoC4/CapSense_CSHL.c **** * Summary:
 336:.\Generated_Source\PSoC4/CapSense_CSHL.c **** *  Updates the CapSense_sensorBaseline[sensor] array element using the 
 337:.\Generated_Source\PSoC4/CapSense_CSHL.c **** *  LP filter with k = 256. The signal calculates the difference of count by 
 338:.\Generated_Source\PSoC4/CapSense_CSHL.c **** *  subtracting the previous baseline from the current raw count value and stores
 339:.\Generated_Source\PSoC4/CapSense_CSHL.c **** *  it in CapSense_sensorSignal[sensor]. 
 340:.\Generated_Source\PSoC4/CapSense_CSHL.c **** *  If the auto reset option is enabled, the baseline updated regards the noise threshold. 
 341:.\Generated_Source\PSoC4/CapSense_CSHL.c **** *  If the auto reset option is disabled, the baseline stops updating; baseline is loaded 
 342:.\Generated_Source\PSoC4/CapSense_CSHL.c **** *  with a raw count value if a signal is greater than zero and if signal is less 
 343:.\Generated_Source\PSoC4/CapSense_CSHL.c **** *  than noise threshold.
 344:.\Generated_Source\PSoC4/CapSense_CSHL.c **** *  Raw data filters are applied to the values if enabled before baseline 
 345:.\Generated_Source\PSoC4/CapSense_CSHL.c **** *  calculation.
ARM GAS  C:\Users\11401393\AppData\Local\Temp\ccv2tvsi.s 			page 11


 346:.\Generated_Source\PSoC4/CapSense_CSHL.c **** *
 347:.\Generated_Source\PSoC4/CapSense_CSHL.c **** *  This API does not update the thresholds in the Smartsense Mode.
 348:.\Generated_Source\PSoC4/CapSense_CSHL.c **** *
 349:.\Generated_Source\PSoC4/CapSense_CSHL.c **** * Parameters:
 350:.\Generated_Source\PSoC4/CapSense_CSHL.c **** *  sensor:  Sensor number.
 351:.\Generated_Source\PSoC4/CapSense_CSHL.c **** *
 352:.\Generated_Source\PSoC4/CapSense_CSHL.c **** * Return:
 353:.\Generated_Source\PSoC4/CapSense_CSHL.c **** *  None
 354:.\Generated_Source\PSoC4/CapSense_CSHL.c **** *
 355:.\Generated_Source\PSoC4/CapSense_CSHL.c **** * Global Variables:
 356:.\Generated_Source\PSoC4/CapSense_CSHL.c **** *  CapSense_widgetNumber[]  - stores widget numbers.
 357:.\Generated_Source\PSoC4/CapSense_CSHL.c **** *  CapSense_sensorBaseline[]    - used to store baseline value.
 358:.\Generated_Source\PSoC4/CapSense_CSHL.c **** *  CapSense_sensorBaselineLow[] - used to store fraction byte of 
 359:.\Generated_Source\PSoC4/CapSense_CSHL.c **** *  baseline value.
 360:.\Generated_Source\PSoC4/CapSense_CSHL.c **** *  CapSense_sensorSignal[]      - used to store difference between 
 361:.\Generated_Source\PSoC4/CapSense_CSHL.c **** *  current value of raw data and previous value of baseline.
 362:.\Generated_Source\PSoC4/CapSense_CSHL.c **** *  CapSense_rawFilterData1[]    - used to store previous sample of 
 363:.\Generated_Source\PSoC4/CapSense_CSHL.c **** *  any enabled raw data filter.
 364:.\Generated_Source\PSoC4/CapSense_CSHL.c **** *  CapSense_rawFilterData2[]    - used to store before previous sample
 365:.\Generated_Source\PSoC4/CapSense_CSHL.c **** *  of enabled raw data filter. Only required for median or average filters.
 366:.\Generated_Source\PSoC4/CapSense_CSHL.c **** * 
 367:.\Generated_Source\PSoC4/CapSense_CSHL.c **** * Side Effects:
 368:.\Generated_Source\PSoC4/CapSense_CSHL.c **** *  None
 369:.\Generated_Source\PSoC4/CapSense_CSHL.c **** * 
 370:.\Generated_Source\PSoC4/CapSense_CSHL.c **** *******************************************************************************/
 371:.\Generated_Source\PSoC4/CapSense_CSHL.c **** void CapSense_UpdateBaselineNoThreshold(uint32 sensor)
 372:.\Generated_Source\PSoC4/CapSense_CSHL.c **** {
 373:.\Generated_Source\PSoC4/CapSense_CSHL.c ****     uint32 calc;
 374:.\Generated_Source\PSoC4/CapSense_CSHL.c **** 	uint32 sign;
 375:.\Generated_Source\PSoC4/CapSense_CSHL.c ****     uint16 tempRaw;
 376:.\Generated_Source\PSoC4/CapSense_CSHL.c ****     uint16 filteredRawData;
 377:.\Generated_Source\PSoC4/CapSense_CSHL.c ****     uint8 widget = CapSense_widgetNumber[sensor];
 378:.\Generated_Source\PSoC4/CapSense_CSHL.c ****     uint8 noiseThreshold = CapSense_noiseThreshold[widget];
 379:.\Generated_Source\PSoC4/CapSense_CSHL.c ****     
 380:.\Generated_Source\PSoC4/CapSense_CSHL.c ****     #if (CapSense_TOTAL_GENERICS_COUNT)
 381:.\Generated_Source\PSoC4/CapSense_CSHL.c ****         /* Exclude generic widget */
 382:.\Generated_Source\PSoC4/CapSense_CSHL.c ****         if(widget < CapSense_END_OF_WIDGETS_INDEX)
 383:.\Generated_Source\PSoC4/CapSense_CSHL.c ****         {
 384:.\Generated_Source\PSoC4/CapSense_CSHL.c ****     #endif  /* CapSense_TOTAL_GENERICS_COUNT */
 385:.\Generated_Source\PSoC4/CapSense_CSHL.c ****     
 386:.\Generated_Source\PSoC4/CapSense_CSHL.c ****     filteredRawData = CapSense_sensorRaw[sensor];
 387:.\Generated_Source\PSoC4/CapSense_CSHL.c **** 
 388:.\Generated_Source\PSoC4/CapSense_CSHL.c **** 	#if (CapSense_RAW_FILTER_MASK != 0u)
 389:.\Generated_Source\PSoC4/CapSense_CSHL.c **** 	if(CapSense_enableRawFilters != 0u)
 390:.\Generated_Source\PSoC4/CapSense_CSHL.c **** 	{
 391:.\Generated_Source\PSoC4/CapSense_CSHL.c **** 		#if (CapSense_RAW_FILTER_MASK & CapSense_MEDIAN_FILTER)
 392:.\Generated_Source\PSoC4/CapSense_CSHL.c **** 			tempRaw = filteredRawData;
 393:.\Generated_Source\PSoC4/CapSense_CSHL.c **** 			filteredRawData = CapSense_MedianFilter(filteredRawData, CapSense_rawFilterData1[sensor], 
 394:.\Generated_Source\PSoC4/CapSense_CSHL.c **** 															CapSense_rawFilterData2[sensor]);
 395:.\Generated_Source\PSoC4/CapSense_CSHL.c **** 			CapSense_rawFilterData2[sensor] = CapSense_rawFilterData1[sensor];
 396:.\Generated_Source\PSoC4/CapSense_CSHL.c **** 			CapSense_rawFilterData1[sensor] = tempRaw;
 397:.\Generated_Source\PSoC4/CapSense_CSHL.c **** 			
 398:.\Generated_Source\PSoC4/CapSense_CSHL.c **** 		#elif (CapSense_RAW_FILTER_MASK & CapSense_AVERAGING_FILTER)
 399:.\Generated_Source\PSoC4/CapSense_CSHL.c **** 			tempRaw = filteredRawData;
 400:.\Generated_Source\PSoC4/CapSense_CSHL.c **** 			filteredRawData = CapSense_AveragingFilter(filteredRawData, CapSense_rawFilterData1[sensor],
 401:.\Generated_Source\PSoC4/CapSense_CSHL.c **** 															   CapSense_rawFilterData2[sensor]);
 402:.\Generated_Source\PSoC4/CapSense_CSHL.c **** 			CapSense_rawFilterData2[sensor] = CapSense_rawFilterData1[sensor];
ARM GAS  C:\Users\11401393\AppData\Local\Temp\ccv2tvsi.s 			page 12


 403:.\Generated_Source\PSoC4/CapSense_CSHL.c **** 			CapSense_rawFilterData1[sensor] = tempRaw;
 404:.\Generated_Source\PSoC4/CapSense_CSHL.c **** 			
 405:.\Generated_Source\PSoC4/CapSense_CSHL.c **** 		#elif (CapSense_RAW_FILTER_MASK & CapSense_IIR2_FILTER)
 406:.\Generated_Source\PSoC4/CapSense_CSHL.c **** 			filteredRawData = CapSense_IIR2Filter(filteredRawData, CapSense_rawFilterData1[sensor]);
 407:.\Generated_Source\PSoC4/CapSense_CSHL.c **** 			CapSense_rawFilterData1[sensor] = filteredRawData;
 408:.\Generated_Source\PSoC4/CapSense_CSHL.c **** 			
 409:.\Generated_Source\PSoC4/CapSense_CSHL.c **** 		#elif (CapSense_RAW_FILTER_MASK & CapSense_IIR4_FILTER)
 410:.\Generated_Source\PSoC4/CapSense_CSHL.c **** 			filteredRawData = CapSense_IIR4Filter(filteredRawData, CapSense_rawFilterData1[sensor]);
 411:.\Generated_Source\PSoC4/CapSense_CSHL.c **** 			CapSense_rawFilterData1[sensor] = filteredRawData;
 412:.\Generated_Source\PSoC4/CapSense_CSHL.c **** 				
 413:.\Generated_Source\PSoC4/CapSense_CSHL.c **** 		#elif (CapSense_RAW_FILTER_MASK & CapSense_JITTER_FILTER)
 414:.\Generated_Source\PSoC4/CapSense_CSHL.c **** 			filteredRawData = CapSense_JitterFilter(filteredRawData, CapSense_rawFilterData1[sensor]);
 415:.\Generated_Source\PSoC4/CapSense_CSHL.c **** 			CapSense_rawFilterData1[sensor] = filteredRawData;
 416:.\Generated_Source\PSoC4/CapSense_CSHL.c **** 			
 417:.\Generated_Source\PSoC4/CapSense_CSHL.c **** 		#elif (CapSense_RAW_FILTER_MASK & CapSense_IIR8_FILTER)
 418:.\Generated_Source\PSoC4/CapSense_CSHL.c **** 			filteredRawData = CapSense_IIR8Filter(filteredRawData, CapSense_rawFilterData1[sensor]);
 419:.\Generated_Source\PSoC4/CapSense_CSHL.c **** 			CapSense_rawFilterData1[sensor] = filteredRawData;
 420:.\Generated_Source\PSoC4/CapSense_CSHL.c **** 			
 421:.\Generated_Source\PSoC4/CapSense_CSHL.c **** 		#elif (CapSense_RAW_FILTER_MASK & CapSense_IIR16_FILTER)
 422:.\Generated_Source\PSoC4/CapSense_CSHL.c **** 			filteredRawData = CapSense_IIR16Filter(filteredRawData, CapSense_rawFilterData1[sensor]);
 423:.\Generated_Source\PSoC4/CapSense_CSHL.c **** 			CapSense_rawFilterData1[sensor] = filteredRawData;
 424:.\Generated_Source\PSoC4/CapSense_CSHL.c **** 			
 425:.\Generated_Source\PSoC4/CapSense_CSHL.c **** 		#else
 426:.\Generated_Source\PSoC4/CapSense_CSHL.c **** 			/* No Raw filters */
 427:.\Generated_Source\PSoC4/CapSense_CSHL.c **** 		#endif  /* (CapSense_RAW_FILTER_MASK & CapSense_MEDIAN_FILTER) */
 428:.\Generated_Source\PSoC4/CapSense_CSHL.c **** 	}
 429:.\Generated_Source\PSoC4/CapSense_CSHL.c **** 	#endif  /* (CapSense_RAW_FILTER_MASK != 0u) */
 430:.\Generated_Source\PSoC4/CapSense_CSHL.c **** 	
 431:.\Generated_Source\PSoC4/CapSense_CSHL.c **** 	#if (CapSense_TUNING_METHOD == CapSense__TUNING_AUTO)
 432:.\Generated_Source\PSoC4/CapSense_CSHL.c **** 	    MeasureNoiseEnvelope_P4_v2_20(&CapSense_config, (uint8)sensor, CapSense_sensorRaw);
 433:.\Generated_Source\PSoC4/CapSense_CSHL.c **** 	#endif /* (CapSense_TUNING_METHOD == CapSense__TUNING_AUTO) */
 434:.\Generated_Source\PSoC4/CapSense_CSHL.c **** 
 435:.\Generated_Source\PSoC4/CapSense_CSHL.c ****     /* Baseline calculation */
 436:.\Generated_Source\PSoC4/CapSense_CSHL.c ****     /* Calculate difference RawData[cur] - Baseline[prev] */
 437:.\Generated_Source\PSoC4/CapSense_CSHL.c ****     if(filteredRawData >= CapSense_sensorBaseline[sensor])
 438:.\Generated_Source\PSoC4/CapSense_CSHL.c ****     {
 439:.\Generated_Source\PSoC4/CapSense_CSHL.c **** 		CapSense_lowBaselineResetCnt[sensor] = 0u;	
 440:.\Generated_Source\PSoC4/CapSense_CSHL.c ****         tempRaw = filteredRawData - CapSense_sensorBaseline[sensor];
 441:.\Generated_Source\PSoC4/CapSense_CSHL.c ****         sign = 1u;    /* Positive difference - Calculate the Signal */
 442:.\Generated_Source\PSoC4/CapSense_CSHL.c ****     }
 443:.\Generated_Source\PSoC4/CapSense_CSHL.c ****     else
 444:.\Generated_Source\PSoC4/CapSense_CSHL.c ****     {
 445:.\Generated_Source\PSoC4/CapSense_CSHL.c ****         tempRaw = CapSense_sensorBaseline[sensor] - filteredRawData;
 446:.\Generated_Source\PSoC4/CapSense_CSHL.c ****         sign = 0u;    /* Negative difference - Do NOT calculate the Signal */
 447:.\Generated_Source\PSoC4/CapSense_CSHL.c ****     }
 448:.\Generated_Source\PSoC4/CapSense_CSHL.c **** 
 449:.\Generated_Source\PSoC4/CapSense_CSHL.c **** 	#if (CapSense_TUNING_METHOD != CapSense__TUNING_NONE)
 450:.\Generated_Source\PSoC4/CapSense_CSHL.c **** 	if((sign == 0u) && (tempRaw > (uint16) CapSense_negativeNoiseThreshold[widget]))
 451:.\Generated_Source\PSoC4/CapSense_CSHL.c **** 	#else
 452:.\Generated_Source\PSoC4/CapSense_CSHL.c **** 	if((sign == 0u) && (tempRaw > (uint16) CapSense_NEGATIVE_NOISE_THRESHOLD))
 453:.\Generated_Source\PSoC4/CapSense_CSHL.c **** 	#endif /* (CapSense_TUNING_METHOD != CapSense__TUNING_NONE) */ 
 454:.\Generated_Source\PSoC4/CapSense_CSHL.c ****     {
 455:.\Generated_Source\PSoC4/CapSense_CSHL.c ****         if(CapSense_lowBaselineResetCnt[sensor] >= CapSense_lowBaselineReset[sensor])
 456:.\Generated_Source\PSoC4/CapSense_CSHL.c ****         {
 457:.\Generated_Source\PSoC4/CapSense_CSHL.c ****             CapSense_BaseInit(sensor);
 458:.\Generated_Source\PSoC4/CapSense_CSHL.c ****             CapSense_lowBaselineResetCnt[sensor] = 0u;
 459:.\Generated_Source\PSoC4/CapSense_CSHL.c ****         }
ARM GAS  C:\Users\11401393\AppData\Local\Temp\ccv2tvsi.s 			page 13


 460:.\Generated_Source\PSoC4/CapSense_CSHL.c ****         else
 461:.\Generated_Source\PSoC4/CapSense_CSHL.c ****         {
 462:.\Generated_Source\PSoC4/CapSense_CSHL.c ****             CapSense_lowBaselineResetCnt[sensor]++;
 463:.\Generated_Source\PSoC4/CapSense_CSHL.c ****         }
 464:.\Generated_Source\PSoC4/CapSense_CSHL.c ****     }
 465:.\Generated_Source\PSoC4/CapSense_CSHL.c ****     else
 466:.\Generated_Source\PSoC4/CapSense_CSHL.c ****     {
 467:.\Generated_Source\PSoC4/CapSense_CSHL.c ****         #if (CapSense_AUTO_RESET == CapSense_AUTO_RESET_DISABLE)
 468:.\Generated_Source\PSoC4/CapSense_CSHL.c **** 		#if (CapSense_TUNING_METHOD != CapSense__TUNING_NONE)			
 469:.\Generated_Source\PSoC4/CapSense_CSHL.c **** 			/* Update Baseline if lower than noiseThreshold */
 470:.\Generated_Source\PSoC4/CapSense_CSHL.c **** 			if ( (tempRaw <= noiseThreshold) || 
 471:.\Generated_Source\PSoC4/CapSense_CSHL.c **** 			 ((tempRaw < (uint16) CapSense_negativeNoiseThreshold[widget])
 472:.\Generated_Source\PSoC4/CapSense_CSHL.c **** 			   && (sign == 0u)))
 473:.\Generated_Source\PSoC4/CapSense_CSHL.c **** 			{
 474:.\Generated_Source\PSoC4/CapSense_CSHL.c **** 		#else
 475:.\Generated_Source\PSoC4/CapSense_CSHL.c **** 			/* Update Baseline if lower than noiseThreshold */
 476:.\Generated_Source\PSoC4/CapSense_CSHL.c **** 			if ( (tempRaw <= noiseThreshold) || 
 477:.\Generated_Source\PSoC4/CapSense_CSHL.c **** 				 ((tempRaw < (uint16) CapSense_NEGATIVE_NOISE_THRESHOLD)
 478:.\Generated_Source\PSoC4/CapSense_CSHL.c **** 				   && (sign == 0u)))
 479:.\Generated_Source\PSoC4/CapSense_CSHL.c **** 			{
 480:.\Generated_Source\PSoC4/CapSense_CSHL.c **** 		#endif /* (CapSense_TUNING_METHOD != CapSense__TUNING_NONE) */ 
 481:.\Generated_Source\PSoC4/CapSense_CSHL.c ****         #endif /* (CapSense_AUTO_RESET == CapSense_AUTO_RESET_DISABLE) */
 482:.\Generated_Source\PSoC4/CapSense_CSHL.c ****                 /* Make full Baseline 23 bits */
 483:.\Generated_Source\PSoC4/CapSense_CSHL.c ****                 calc = (uint32) CapSense_sensorBaseline[sensor] << 8u;
 484:.\Generated_Source\PSoC4/CapSense_CSHL.c ****                 calc |= (uint32) CapSense_sensorBaselineLow[sensor];
 485:.\Generated_Source\PSoC4/CapSense_CSHL.c **** 
 486:.\Generated_Source\PSoC4/CapSense_CSHL.c ****                 /* Add Raw Data to Baseline */
 487:.\Generated_Source\PSoC4/CapSense_CSHL.c ****                 calc += filteredRawData;
 488:.\Generated_Source\PSoC4/CapSense_CSHL.c **** 
 489:.\Generated_Source\PSoC4/CapSense_CSHL.c ****                 /* Sub the high Baseline */
 490:.\Generated_Source\PSoC4/CapSense_CSHL.c ****                 calc -= CapSense_sensorBaseline[sensor];
 491:.\Generated_Source\PSoC4/CapSense_CSHL.c **** 
 492:.\Generated_Source\PSoC4/CapSense_CSHL.c ****                 /* Put Baseline and BaselineLow */
 493:.\Generated_Source\PSoC4/CapSense_CSHL.c ****                 CapSense_sensorBaseline[sensor] = ((uint16) (calc >> 8u));
 494:.\Generated_Source\PSoC4/CapSense_CSHL.c ****                 CapSense_sensorBaselineLow[sensor] = ((uint8) calc);
 495:.\Generated_Source\PSoC4/CapSense_CSHL.c **** 
 496:.\Generated_Source\PSoC4/CapSense_CSHL.c ****                 CapSense_lowBaselineResetCnt[sensor] = 0u;
 497:.\Generated_Source\PSoC4/CapSense_CSHL.c ****         #if (CapSense_AUTO_RESET == CapSense_AUTO_RESET_DISABLE)
 498:.\Generated_Source\PSoC4/CapSense_CSHL.c ****             }
 499:.\Generated_Source\PSoC4/CapSense_CSHL.c ****         #endif /* (CapSense_AUTO_RESET == CapSense_AUTO_RESET_DISABLE) */
 500:.\Generated_Source\PSoC4/CapSense_CSHL.c ****     }
 501:.\Generated_Source\PSoC4/CapSense_CSHL.c **** 
 502:.\Generated_Source\PSoC4/CapSense_CSHL.c ****     /* Calculate Signal if positive difference > noiseThreshold */
 503:.\Generated_Source\PSoC4/CapSense_CSHL.c ****     if((tempRaw > (uint16) noiseThreshold) && (sign != 0u))
 504:.\Generated_Source\PSoC4/CapSense_CSHL.c ****     {
 505:.\Generated_Source\PSoC4/CapSense_CSHL.c ****         #if (CapSense_SIGNAL_SIZE == CapSense_SIGNAL_SIZE_UINT8)
 506:.\Generated_Source\PSoC4/CapSense_CSHL.c ****             /* Over flow defence for uint8 */
 507:.\Generated_Source\PSoC4/CapSense_CSHL.c ****             if (tempRaw > 0xFFu)
 508:.\Generated_Source\PSoC4/CapSense_CSHL.c ****             {
 509:.\Generated_Source\PSoC4/CapSense_CSHL.c ****                 CapSense_sensorSignal[sensor] = 0xFFu;
 510:.\Generated_Source\PSoC4/CapSense_CSHL.c ****             }    
 511:.\Generated_Source\PSoC4/CapSense_CSHL.c ****             else 
 512:.\Generated_Source\PSoC4/CapSense_CSHL.c ****             {
 513:.\Generated_Source\PSoC4/CapSense_CSHL.c ****                 CapSense_sensorSignal[sensor] = ((uint8) tempRaw);
 514:.\Generated_Source\PSoC4/CapSense_CSHL.c ****             }
 515:.\Generated_Source\PSoC4/CapSense_CSHL.c ****         #else
 516:.\Generated_Source\PSoC4/CapSense_CSHL.c ****             CapSense_sensorSignal[sensor] = ((uint16) tempRaw);
ARM GAS  C:\Users\11401393\AppData\Local\Temp\ccv2tvsi.s 			page 14


 517:.\Generated_Source\PSoC4/CapSense_CSHL.c ****         #endif  /* (CapSense_SIGNAL_SIZE == CapSense_SIGNAL_SIZE_UINT8) */
 518:.\Generated_Source\PSoC4/CapSense_CSHL.c ****     }
 519:.\Generated_Source\PSoC4/CapSense_CSHL.c ****     else
 520:.\Generated_Source\PSoC4/CapSense_CSHL.c ****     {
 521:.\Generated_Source\PSoC4/CapSense_CSHL.c ****         /* Signal is zero */
 522:.\Generated_Source\PSoC4/CapSense_CSHL.c ****         CapSense_sensorSignal[sensor] = 0u;
 523:.\Generated_Source\PSoC4/CapSense_CSHL.c ****     }
 524:.\Generated_Source\PSoC4/CapSense_CSHL.c **** 
 525:.\Generated_Source\PSoC4/CapSense_CSHL.c ****     #if (CapSense_TOTAL_GENERICS_COUNT)
 526:.\Generated_Source\PSoC4/CapSense_CSHL.c ****         /* Exclude generic widget */
 527:.\Generated_Source\PSoC4/CapSense_CSHL.c ****         }
 528:.\Generated_Source\PSoC4/CapSense_CSHL.c ****     #endif  /* CapSense_TOTAL_GENERICS_COUNT */
 529:.\Generated_Source\PSoC4/CapSense_CSHL.c **** }
 530:.\Generated_Source\PSoC4/CapSense_CSHL.c **** 
 531:.\Generated_Source\PSoC4/CapSense_CSHL.c **** 
 532:.\Generated_Source\PSoC4/CapSense_CSHL.c **** /*******************************************************************************
 533:.\Generated_Source\PSoC4/CapSense_CSHL.c **** * Function Name: CapSense_UpdateSensorBaseline
 534:.\Generated_Source\PSoC4/CapSense_CSHL.c **** ********************************************************************************
 535:.\Generated_Source\PSoC4/CapSense_CSHL.c **** *
 536:.\Generated_Source\PSoC4/CapSense_CSHL.c **** * Summary:
 537:.\Generated_Source\PSoC4/CapSense_CSHL.c **** *  Updates the CapSense_sensorBaseline[sensor] array element using the 
 538:.\Generated_Source\PSoC4/CapSense_CSHL.c **** *  LP filter with k = 256. The signal calculates the difference of count by 
 539:.\Generated_Source\PSoC4/CapSense_CSHL.c **** *  subtracting the previous baseline from the current raw count value and stores
 540:.\Generated_Source\PSoC4/CapSense_CSHL.c **** *  it in CapSense_sensorSignal[sensor]. 
 541:.\Generated_Source\PSoC4/CapSense_CSHL.c **** *  If the auto reset option is enabled, the baseline updated regards the noise threshold. 
 542:.\Generated_Source\PSoC4/CapSense_CSHL.c **** *  If the auto reset option is disabled, the baseline stops updating. 
 543:.\Generated_Source\PSoC4/CapSense_CSHL.c **** *  Baseline is loaded with raw count value if a signal is greater than zero and  
 544:.\Generated_Source\PSoC4/CapSense_CSHL.c **** *  if signal is less than noise threshold.
 545:.\Generated_Source\PSoC4/CapSense_CSHL.c **** *  Raw data filters are applied to the values if enabled before baseline 
 546:.\Generated_Source\PSoC4/CapSense_CSHL.c **** *  calculation.
 547:.\Generated_Source\PSoC4/CapSense_CSHL.c **** *  This API updates the thresholds in the Smartsense Mode.
 548:.\Generated_Source\PSoC4/CapSense_CSHL.c **** *
 549:.\Generated_Source\PSoC4/CapSense_CSHL.c **** * Parameters:
 550:.\Generated_Source\PSoC4/CapSense_CSHL.c **** *  sensor:  Sensor number.
 551:.\Generated_Source\PSoC4/CapSense_CSHL.c **** *
 552:.\Generated_Source\PSoC4/CapSense_CSHL.c **** * Return:
 553:.\Generated_Source\PSoC4/CapSense_CSHL.c **** *  None
 554:.\Generated_Source\PSoC4/CapSense_CSHL.c **** *
 555:.\Generated_Source\PSoC4/CapSense_CSHL.c **** * Global Variables:
 556:.\Generated_Source\PSoC4/CapSense_CSHL.c **** *  CapSense_widgetNumber[]  - stores widget numbers.
 557:.\Generated_Source\PSoC4/CapSense_CSHL.c **** * 
 558:.\Generated_Source\PSoC4/CapSense_CSHL.c **** * Side Effects:
 559:.\Generated_Source\PSoC4/CapSense_CSHL.c **** *  None
 560:.\Generated_Source\PSoC4/CapSense_CSHL.c **** * 
 561:.\Generated_Source\PSoC4/CapSense_CSHL.c **** *******************************************************************************/
 562:.\Generated_Source\PSoC4/CapSense_CSHL.c ****  void CapSense_UpdateSensorBaseline(uint32 sensor)
 563:.\Generated_Source\PSoC4/CapSense_CSHL.c **** {
 564:.\Generated_Source\PSoC4/CapSense_CSHL.c ****     #if (CapSense_TOTAL_GENERICS_COUNT)
 565:.\Generated_Source\PSoC4/CapSense_CSHL.c **** 		uint32 widget;
 566:.\Generated_Source\PSoC4/CapSense_CSHL.c **** 		
 567:.\Generated_Source\PSoC4/CapSense_CSHL.c **** 		widget = CapSense_widgetNumber[sensor];
 568:.\Generated_Source\PSoC4/CapSense_CSHL.c **** 	
 569:.\Generated_Source\PSoC4/CapSense_CSHL.c ****         /* Exclude generic widget */
 570:.\Generated_Source\PSoC4/CapSense_CSHL.c ****         if(widget < CapSense_END_OF_WIDGETS_INDEX)
 571:.\Generated_Source\PSoC4/CapSense_CSHL.c ****         {
 572:.\Generated_Source\PSoC4/CapSense_CSHL.c ****     #endif  /* CapSense_TOTAL_GENERICS_COUNT */
 573:.\Generated_Source\PSoC4/CapSense_CSHL.c **** 
ARM GAS  C:\Users\11401393\AppData\Local\Temp\ccv2tvsi.s 			page 15


 574:.\Generated_Source\PSoC4/CapSense_CSHL.c ****     #if (CapSense_TUNING_METHOD == CapSense__TUNING_AUTO)
 575:.\Generated_Source\PSoC4/CapSense_CSHL.c ****     	CapSense_UpdateThresholds(sensor);
 576:.\Generated_Source\PSoC4/CapSense_CSHL.c ****     #endif /* (CapSense_TUNING_METHOD == CapSense__TUNING_AUTO) */
 577:.\Generated_Source\PSoC4/CapSense_CSHL.c **** 
 578:.\Generated_Source\PSoC4/CapSense_CSHL.c ****     CapSense_UpdateBaselineNoThreshold(sensor);
 579:.\Generated_Source\PSoC4/CapSense_CSHL.c ****     
 580:.\Generated_Source\PSoC4/CapSense_CSHL.c ****     #if (CapSense_TOTAL_GENERICS_COUNT)
 581:.\Generated_Source\PSoC4/CapSense_CSHL.c ****         /* Exclude generic widget */
 582:.\Generated_Source\PSoC4/CapSense_CSHL.c ****         }
 583:.\Generated_Source\PSoC4/CapSense_CSHL.c ****     #endif  /* CapSense_TOTAL_GENERICS_COUNT */
 584:.\Generated_Source\PSoC4/CapSense_CSHL.c **** }
 585:.\Generated_Source\PSoC4/CapSense_CSHL.c **** 
 586:.\Generated_Source\PSoC4/CapSense_CSHL.c **** 
 587:.\Generated_Source\PSoC4/CapSense_CSHL.c **** /*******************************************************************************
 588:.\Generated_Source\PSoC4/CapSense_CSHL.c **** * Function Name: CapSense_UpdateEnabledBaselines
 589:.\Generated_Source\PSoC4/CapSense_CSHL.c **** ********************************************************************************
 590:.\Generated_Source\PSoC4/CapSense_CSHL.c **** *
 591:.\Generated_Source\PSoC4/CapSense_CSHL.c **** * Summary:
 592:.\Generated_Source\PSoC4/CapSense_CSHL.c **** *  Checks CapSense_sensorEnableMask[] array and calls the 
 593:.\Generated_Source\PSoC4/CapSense_CSHL.c **** *  CapSense_UpdateSensorBaseline function to update the baselines 
 594:.\Generated_Source\PSoC4/CapSense_CSHL.c **** *  for the enabled sensors.
 595:.\Generated_Source\PSoC4/CapSense_CSHL.c **** *
 596:.\Generated_Source\PSoC4/CapSense_CSHL.c **** * Parameters:
 597:.\Generated_Source\PSoC4/CapSense_CSHL.c **** *  None
 598:.\Generated_Source\PSoC4/CapSense_CSHL.c **** *
 599:.\Generated_Source\PSoC4/CapSense_CSHL.c **** * Return:
 600:.\Generated_Source\PSoC4/CapSense_CSHL.c **** *  None
 601:.\Generated_Source\PSoC4/CapSense_CSHL.c **** *
 602:.\Generated_Source\PSoC4/CapSense_CSHL.c **** * Global Variables:
 603:.\Generated_Source\PSoC4/CapSense_CSHL.c **** *  CapSense_sensorEnableMask[] - used to store the sensor scanning 
 604:.\Generated_Source\PSoC4/CapSense_CSHL.c **** *  state.
 605:.\Generated_Source\PSoC4/CapSense_CSHL.c **** *  CapSense_sensorEnableMask[0] contains the masked bits for sensors 
 606:.\Generated_Source\PSoC4/CapSense_CSHL.c **** *   0 through 7 (sensor 0 is bit 0, sensor 1 is bit 1).
 607:.\Generated_Source\PSoC4/CapSense_CSHL.c **** *  CapSense_sensorEnableMask[1] contains the masked bits for 
 608:.\Generated_Source\PSoC4/CapSense_CSHL.c **** *  sensors 8 through 15 (if needed), and so on.
 609:.\Generated_Source\PSoC4/CapSense_CSHL.c **** *  0 - sensor doesn't scan by CapSense_ScanEnabledWidgets().
 610:.\Generated_Source\PSoC4/CapSense_CSHL.c **** *  1 - sensor scans by CapSense_ScanEnabledWidgets().
 611:.\Generated_Source\PSoC4/CapSense_CSHL.c **** * 
 612:.\Generated_Source\PSoC4/CapSense_CSHL.c **** * Side Effects:
 613:.\Generated_Source\PSoC4/CapSense_CSHL.c **** *  None
 614:.\Generated_Source\PSoC4/CapSense_CSHL.c **** * 
 615:.\Generated_Source\PSoC4/CapSense_CSHL.c **** *******************************************************************************/
 616:.\Generated_Source\PSoC4/CapSense_CSHL.c ****  void CapSense_UpdateEnabledBaselines(void)
 617:.\Generated_Source\PSoC4/CapSense_CSHL.c **** {
 618:.\Generated_Source\PSoC4/CapSense_CSHL.c ****     uint32 i;
 619:.\Generated_Source\PSoC4/CapSense_CSHL.c ****     uint32 isSensorEnabled;
 620:.\Generated_Source\PSoC4/CapSense_CSHL.c ****     
 621:.\Generated_Source\PSoC4/CapSense_CSHL.c ****     for(i = 0u; i < CapSense_TOTAL_SENSOR_COUNT; i++)
 622:.\Generated_Source\PSoC4/CapSense_CSHL.c ****     {
 623:.\Generated_Source\PSoC4/CapSense_CSHL.c ****         isSensorEnabled = CapSense_GetBitValue(CapSense_sensorEnableMask, i);
 624:.\Generated_Source\PSoC4/CapSense_CSHL.c ****         
 625:.\Generated_Source\PSoC4/CapSense_CSHL.c ****         if(0u != isSensorEnabled)
 626:.\Generated_Source\PSoC4/CapSense_CSHL.c ****         {
 627:.\Generated_Source\PSoC4/CapSense_CSHL.c ****             CapSense_UpdateSensorBaseline(i);
 628:.\Generated_Source\PSoC4/CapSense_CSHL.c ****         }
 629:.\Generated_Source\PSoC4/CapSense_CSHL.c ****     }
 630:.\Generated_Source\PSoC4/CapSense_CSHL.c **** }
ARM GAS  C:\Users\11401393\AppData\Local\Temp\ccv2tvsi.s 			page 16


 631:.\Generated_Source\PSoC4/CapSense_CSHL.c **** 
 632:.\Generated_Source\PSoC4/CapSense_CSHL.c **** /*******************************************************************************
 633:.\Generated_Source\PSoC4/CapSense_CSHL.c **** * Function Name: CapSense_UpdateWidgetBaseline
 634:.\Generated_Source\PSoC4/CapSense_CSHL.c **** ********************************************************************************
 635:.\Generated_Source\PSoC4/CapSense_CSHL.c **** *
 636:.\Generated_Source\PSoC4/CapSense_CSHL.c **** * Summary:
 637:.\Generated_Source\PSoC4/CapSense_CSHL.c **** *  Checks CapSense_sensorEnableMask[] array and calls the 
 638:.\Generated_Source\PSoC4/CapSense_CSHL.c **** *  CapSense_UpdateSensorBaseline function to update the baselines 
 639:.\Generated_Source\PSoC4/CapSense_CSHL.c **** *  for the enabled sensors that belong to widget.
 640:.\Generated_Source\PSoC4/CapSense_CSHL.c **** *
 641:.\Generated_Source\PSoC4/CapSense_CSHL.c **** * Parameters:
 642:.\Generated_Source\PSoC4/CapSense_CSHL.c **** *  widget:  Widget number.
 643:.\Generated_Source\PSoC4/CapSense_CSHL.c **** *
 644:.\Generated_Source\PSoC4/CapSense_CSHL.c **** * Return:
 645:.\Generated_Source\PSoC4/CapSense_CSHL.c **** *  None
 646:.\Generated_Source\PSoC4/CapSense_CSHL.c **** *
 647:.\Generated_Source\PSoC4/CapSense_CSHL.c **** * Global Variables:
 648:.\Generated_Source\PSoC4/CapSense_CSHL.c **** *  CapSense_sensorEnableMask[] - used to store the sensor scanning 
 649:.\Generated_Source\PSoC4/CapSense_CSHL.c **** *  state.
 650:.\Generated_Source\PSoC4/CapSense_CSHL.c **** *  CapSense_sensorEnableMask[0] contains the masked bits for sensors 
 651:.\Generated_Source\PSoC4/CapSense_CSHL.c **** *   0 through 7 (sensor 0 is bit 0, sensor 1 is bit 1).
 652:.\Generated_Source\PSoC4/CapSense_CSHL.c **** *  CapSense_sensorEnableMask[1] contains the masked bits for 
 653:.\Generated_Source\PSoC4/CapSense_CSHL.c **** *  sensors 8 through 15 (if needed), and so on.
 654:.\Generated_Source\PSoC4/CapSense_CSHL.c **** *  0 - sensor doesn't scan by CapSense_ScanEnabledWidgets().
 655:.\Generated_Source\PSoC4/CapSense_CSHL.c **** *  1 - sensor scans by CapSense_ScanEnabledWidgets().
 656:.\Generated_Source\PSoC4/CapSense_CSHL.c **** * 
 657:.\Generated_Source\PSoC4/CapSense_CSHL.c **** * Side Effects:
 658:.\Generated_Source\PSoC4/CapSense_CSHL.c **** *  None
 659:.\Generated_Source\PSoC4/CapSense_CSHL.c **** * 
 660:.\Generated_Source\PSoC4/CapSense_CSHL.c **** *******************************************************************************/
 661:.\Generated_Source\PSoC4/CapSense_CSHL.c **** void CapSense_UpdateWidgetBaseline(uint32 widget)
 662:.\Generated_Source\PSoC4/CapSense_CSHL.c **** {
 663:.\Generated_Source\PSoC4/CapSense_CSHL.c ****     uint32 sensorsPerWidget;
 664:.\Generated_Source\PSoC4/CapSense_CSHL.c ****     uint32 firstSensor;
 665:.\Generated_Source\PSoC4/CapSense_CSHL.c ****     uint32 lastSensor;
 666:.\Generated_Source\PSoC4/CapSense_CSHL.c ****     uint32 i;
 667:.\Generated_Source\PSoC4/CapSense_CSHL.c ****     uint32 isSensorEnabled;
 668:.\Generated_Source\PSoC4/CapSense_CSHL.c ****     
 669:.\Generated_Source\PSoC4/CapSense_CSHL.c **** 	/* Get number of sensors in widget */
 670:.\Generated_Source\PSoC4/CapSense_CSHL.c **** 	sensorsPerWidget = CapSense_numberOfSensors[widget];
 671:.\Generated_Source\PSoC4/CapSense_CSHL.c **** 
 672:.\Generated_Source\PSoC4/CapSense_CSHL.c **** 	/* Get first sensor in widget */
 673:.\Generated_Source\PSoC4/CapSense_CSHL.c **** 	firstSensor = CapSense_rawDataIndex[widget];
 674:.\Generated_Source\PSoC4/CapSense_CSHL.c **** 	
 675:.\Generated_Source\PSoC4/CapSense_CSHL.c **** 	/* Get last sensor in widget */
 676:.\Generated_Source\PSoC4/CapSense_CSHL.c **** 	lastSensor = (CapSense_rawDataIndex[widget] + sensorsPerWidget);
 677:.\Generated_Source\PSoC4/CapSense_CSHL.c **** 	
 678:.\Generated_Source\PSoC4/CapSense_CSHL.c ****     for(i = firstSensor; i < lastSensor; i++)
 679:.\Generated_Source\PSoC4/CapSense_CSHL.c ****     {
 680:.\Generated_Source\PSoC4/CapSense_CSHL.c ****         isSensorEnabled = CapSense_GetBitValue(CapSense_sensorEnableMask, i);
 681:.\Generated_Source\PSoC4/CapSense_CSHL.c ****         
 682:.\Generated_Source\PSoC4/CapSense_CSHL.c ****         if(0u != isSensorEnabled)
 683:.\Generated_Source\PSoC4/CapSense_CSHL.c ****         {
 684:.\Generated_Source\PSoC4/CapSense_CSHL.c ****             CapSense_UpdateSensorBaseline(i);
 685:.\Generated_Source\PSoC4/CapSense_CSHL.c ****         }
 686:.\Generated_Source\PSoC4/CapSense_CSHL.c ****     }
 687:.\Generated_Source\PSoC4/CapSense_CSHL.c **** }
ARM GAS  C:\Users\11401393\AppData\Local\Temp\ccv2tvsi.s 			page 17


 688:.\Generated_Source\PSoC4/CapSense_CSHL.c **** 
 689:.\Generated_Source\PSoC4/CapSense_CSHL.c **** 
 690:.\Generated_Source\PSoC4/CapSense_CSHL.c **** /*******************************************************************************
 691:.\Generated_Source\PSoC4/CapSense_CSHL.c **** * Function Name: CapSense_GetBaselineData
 692:.\Generated_Source\PSoC4/CapSense_CSHL.c **** ********************************************************************************
 693:.\Generated_Source\PSoC4/CapSense_CSHL.c **** *
 694:.\Generated_Source\PSoC4/CapSense_CSHL.c **** * Summary:
 695:.\Generated_Source\PSoC4/CapSense_CSHL.c **** *  This function reads the sensor baseline from the component.
 696:.\Generated_Source\PSoC4/CapSense_CSHL.c **** *
 697:.\Generated_Source\PSoC4/CapSense_CSHL.c **** * Parameters:
 698:.\Generated_Source\PSoC4/CapSense_CSHL.c **** *  sensor:  Sensor number.
 699:.\Generated_Source\PSoC4/CapSense_CSHL.c **** *
 700:.\Generated_Source\PSoC4/CapSense_CSHL.c **** * Return:
 701:.\Generated_Source\PSoC4/CapSense_CSHL.c **** *  This API returns the baseline value of the sensor indicated by an argument.
 702:.\Generated_Source\PSoC4/CapSense_CSHL.c **** *
 703:.\Generated_Source\PSoC4/CapSense_CSHL.c **** * Global Variables:
 704:.\Generated_Source\PSoC4/CapSense_CSHL.c **** *  CapSense_sensorBaseline[] - the array with an initial values by scanning
 705:.\Generated_Source\PSoC4/CapSense_CSHL.c **** * 
 706:.\Generated_Source\PSoC4/CapSense_CSHL.c **** * Side Effects:
 707:.\Generated_Source\PSoC4/CapSense_CSHL.c **** *  None
 708:.\Generated_Source\PSoC4/CapSense_CSHL.c **** *
 709:.\Generated_Source\PSoC4/CapSense_CSHL.c **** *******************************************************************************/
 710:.\Generated_Source\PSoC4/CapSense_CSHL.c **** uint16 CapSense_GetBaselineData(uint32 sensor)
 711:.\Generated_Source\PSoC4/CapSense_CSHL.c **** {
 222              		.loc 1 711 0
 223              		.cfi_startproc
 224              	.LVL23:
 712:.\Generated_Source\PSoC4/CapSense_CSHL.c **** 	return (CapSense_sensorBaseline[sensor]);
 225              		.loc 1 712 0
 226 0000 4000     		lsl	r0, r0, #1
 227              	.LVL24:
 228 0002 014B     		ldr	r3, .L19
 229 0004 185A     		ldrh	r0, [r3, r0]
 713:.\Generated_Source\PSoC4/CapSense_CSHL.c **** }
 230              		.loc 1 713 0
 231              		@ sp needed
 232 0006 7047     		bx	lr
 233              	.L20:
 234              		.align	2
 235              	.L19:
 236 0008 00000000 		.word	.LANCHOR0
 237              		.cfi_endproc
 238              	.LFE42:
 239              		.size	CapSense_GetBaselineData, .-CapSense_GetBaselineData
 240              		.section	.text.CapSense_SetBaselineData,"ax",%progbits
 241              		.align	2
 242              		.global	CapSense_SetBaselineData
 243              		.code	16
 244              		.thumb_func
 245              		.type	CapSense_SetBaselineData, %function
 246              	CapSense_SetBaselineData:
 247              	.LFB43:
 714:.\Generated_Source\PSoC4/CapSense_CSHL.c **** 
 715:.\Generated_Source\PSoC4/CapSense_CSHL.c **** 
 716:.\Generated_Source\PSoC4/CapSense_CSHL.c **** /*******************************************************************************
 717:.\Generated_Source\PSoC4/CapSense_CSHL.c **** * Function Name: CapSense_SetBaselineData
 718:.\Generated_Source\PSoC4/CapSense_CSHL.c **** ********************************************************************************
ARM GAS  C:\Users\11401393\AppData\Local\Temp\ccv2tvsi.s 			page 18


 719:.\Generated_Source\PSoC4/CapSense_CSHL.c **** *
 720:.\Generated_Source\PSoC4/CapSense_CSHL.c **** * Summary:
 721:.\Generated_Source\PSoC4/CapSense_CSHL.c **** *  This API writes the data value passed as an argument to the sensor baseline array.
 722:.\Generated_Source\PSoC4/CapSense_CSHL.c **** *
 723:.\Generated_Source\PSoC4/CapSense_CSHL.c **** * Parameters:
 724:.\Generated_Source\PSoC4/CapSense_CSHL.c **** *  sensor:  Sensor number.
 725:.\Generated_Source\PSoC4/CapSense_CSHL.c **** *  data:    Sensor baseline.
 726:.\Generated_Source\PSoC4/CapSense_CSHL.c **** *
 727:.\Generated_Source\PSoC4/CapSense_CSHL.c **** * Return:
 728:.\Generated_Source\PSoC4/CapSense_CSHL.c **** *  None.
 729:.\Generated_Source\PSoC4/CapSense_CSHL.c **** *
 730:.\Generated_Source\PSoC4/CapSense_CSHL.c **** * Global Variables:
 731:.\Generated_Source\PSoC4/CapSense_CSHL.c **** *  CapSense_sensorBaseline[] - the array with initial values by scanning
 732:.\Generated_Source\PSoC4/CapSense_CSHL.c **** * 
 733:.\Generated_Source\PSoC4/CapSense_CSHL.c **** * Side Effects:
 734:.\Generated_Source\PSoC4/CapSense_CSHL.c **** *  None
 735:.\Generated_Source\PSoC4/CapSense_CSHL.c **** *
 736:.\Generated_Source\PSoC4/CapSense_CSHL.c **** *******************************************************************************/
 737:.\Generated_Source\PSoC4/CapSense_CSHL.c **** void CapSense_SetBaselineData(uint32 sensor, uint16 data)
 738:.\Generated_Source\PSoC4/CapSense_CSHL.c **** {
 248              		.loc 1 738 0
 249              		.cfi_startproc
 250              	.LVL25:
 739:.\Generated_Source\PSoC4/CapSense_CSHL.c **** 	CapSense_sensorBaseline[sensor] = data;
 251              		.loc 1 739 0
 252 0000 4000     		lsl	r0, r0, #1
 253              	.LVL26:
 254 0002 014B     		ldr	r3, .L22
 255 0004 C152     		strh	r1, [r0, r3]
 740:.\Generated_Source\PSoC4/CapSense_CSHL.c **** }
 256              		.loc 1 740 0
 257              		@ sp needed
 258 0006 7047     		bx	lr
 259              	.L23:
 260              		.align	2
 261              	.L22:
 262 0008 00000000 		.word	.LANCHOR0
 263              		.cfi_endproc
 264              	.LFE43:
 265              		.size	CapSense_SetBaselineData, .-CapSense_SetBaselineData
 266              		.section	.text.CapSense_GetDiffCountData,"ax",%progbits
 267              		.align	2
 268              		.global	CapSense_GetDiffCountData
 269              		.code	16
 270              		.thumb_func
 271              		.type	CapSense_GetDiffCountData, %function
 272              	CapSense_GetDiffCountData:
 273              	.LFB44:
 741:.\Generated_Source\PSoC4/CapSense_CSHL.c **** 
 742:.\Generated_Source\PSoC4/CapSense_CSHL.c **** 
 743:.\Generated_Source\PSoC4/CapSense_CSHL.c **** /*******************************************************************************
 744:.\Generated_Source\PSoC4/CapSense_CSHL.c **** * Function Name: CapSense_GetDiffCountData
 745:.\Generated_Source\PSoC4/CapSense_CSHL.c **** ********************************************************************************
 746:.\Generated_Source\PSoC4/CapSense_CSHL.c **** *
 747:.\Generated_Source\PSoC4/CapSense_CSHL.c **** * Summary:
 748:.\Generated_Source\PSoC4/CapSense_CSHL.c **** *  This function returns the Sensor Signal from the component.
 749:.\Generated_Source\PSoC4/CapSense_CSHL.c **** *
ARM GAS  C:\Users\11401393\AppData\Local\Temp\ccv2tvsi.s 			page 19


 750:.\Generated_Source\PSoC4/CapSense_CSHL.c **** * Parameters:
 751:.\Generated_Source\PSoC4/CapSense_CSHL.c **** *  sensor:  Sensor number.
 752:.\Generated_Source\PSoC4/CapSense_CSHL.c **** *
 753:.\Generated_Source\PSoC4/CapSense_CSHL.c **** * Return:
 754:.\Generated_Source\PSoC4/CapSense_CSHL.c **** *  This API returns the difference count value of the sensor indicated by the 
 755:.\Generated_Source\PSoC4/CapSense_CSHL.c **** *  argument. 
 756:.\Generated_Source\PSoC4/CapSense_CSHL.c **** *
 757:.\Generated_Source\PSoC4/CapSense_CSHL.c **** * Global Variables:
 758:.\Generated_Source\PSoC4/CapSense_CSHL.c **** *  CapSense_sensorSignal[] - the array with difference counts for sensors
 759:.\Generated_Source\PSoC4/CapSense_CSHL.c **** * 
 760:.\Generated_Source\PSoC4/CapSense_CSHL.c **** * Side Effects:
 761:.\Generated_Source\PSoC4/CapSense_CSHL.c **** *  None
 762:.\Generated_Source\PSoC4/CapSense_CSHL.c **** *
 763:.\Generated_Source\PSoC4/CapSense_CSHL.c **** *******************************************************************************/
 764:.\Generated_Source\PSoC4/CapSense_CSHL.c **** uint8 CapSense_GetDiffCountData(uint32 sensor)
 765:.\Generated_Source\PSoC4/CapSense_CSHL.c **** {
 274              		.loc 1 765 0
 275              		.cfi_startproc
 276              	.LVL27:
 766:.\Generated_Source\PSoC4/CapSense_CSHL.c **** 	return (CapSense_sensorSignal[sensor]);
 277              		.loc 1 766 0
 278 0000 014B     		ldr	r3, .L25
 279 0002 2433     		add	r3, r3, #36
 280 0004 185C     		ldrb	r0, [r3, r0]
 281              	.LVL28:
 767:.\Generated_Source\PSoC4/CapSense_CSHL.c **** }
 282              		.loc 1 767 0
 283              		@ sp needed
 284 0006 7047     		bx	lr
 285              	.L26:
 286              		.align	2
 287              	.L25:
 288 0008 00000000 		.word	.LANCHOR0
 289              		.cfi_endproc
 290              	.LFE44:
 291              		.size	CapSense_GetDiffCountData, .-CapSense_GetDiffCountData
 292              		.section	.text.CapSense_SetDiffCountData,"ax",%progbits
 293              		.align	2
 294              		.global	CapSense_SetDiffCountData
 295              		.code	16
 296              		.thumb_func
 297              		.type	CapSense_SetDiffCountData, %function
 298              	CapSense_SetDiffCountData:
 299              	.LFB45:
 768:.\Generated_Source\PSoC4/CapSense_CSHL.c **** 
 769:.\Generated_Source\PSoC4/CapSense_CSHL.c **** 
 770:.\Generated_Source\PSoC4/CapSense_CSHL.c **** /*******************************************************************************
 771:.\Generated_Source\PSoC4/CapSense_CSHL.c **** * Function Name: CapSense_SetDiffCountData
 772:.\Generated_Source\PSoC4/CapSense_CSHL.c **** ********************************************************************************
 773:.\Generated_Source\PSoC4/CapSense_CSHL.c **** *
 774:.\Generated_Source\PSoC4/CapSense_CSHL.c **** * Summary:
 775:.\Generated_Source\PSoC4/CapSense_CSHL.c **** *  This API writes the data value passed as an argument to the sensor signal array.
 776:.\Generated_Source\PSoC4/CapSense_CSHL.c **** *
 777:.\Generated_Source\PSoC4/CapSense_CSHL.c **** * Parameters:
 778:.\Generated_Source\PSoC4/CapSense_CSHL.c **** *  sensor:  Sensor number.
 779:.\Generated_Source\PSoC4/CapSense_CSHL.c **** *  value:   Sensor signal.
 780:.\Generated_Source\PSoC4/CapSense_CSHL.c **** *
ARM GAS  C:\Users\11401393\AppData\Local\Temp\ccv2tvsi.s 			page 20


 781:.\Generated_Source\PSoC4/CapSense_CSHL.c **** * Return:
 782:.\Generated_Source\PSoC4/CapSense_CSHL.c **** *  None. 
 783:.\Generated_Source\PSoC4/CapSense_CSHL.c **** *
 784:.\Generated_Source\PSoC4/CapSense_CSHL.c **** * Global Variables:
 785:.\Generated_Source\PSoC4/CapSense_CSHL.c **** *  CapSense_sensorSignal[] - the array with difference counts for sensors
 786:.\Generated_Source\PSoC4/CapSense_CSHL.c **** * 
 787:.\Generated_Source\PSoC4/CapSense_CSHL.c **** * Side Effects:
 788:.\Generated_Source\PSoC4/CapSense_CSHL.c **** *  None
 789:.\Generated_Source\PSoC4/CapSense_CSHL.c **** *
 790:.\Generated_Source\PSoC4/CapSense_CSHL.c **** *******************************************************************************/
 791:.\Generated_Source\PSoC4/CapSense_CSHL.c **** void CapSense_SetDiffCountData(uint32 sensor, uint8 value)
 792:.\Generated_Source\PSoC4/CapSense_CSHL.c **** {
 300              		.loc 1 792 0
 301              		.cfi_startproc
 302              	.LVL29:
 793:.\Generated_Source\PSoC4/CapSense_CSHL.c ****     CapSense_sensorSignal[sensor] = value;
 303              		.loc 1 793 0
 304 0000 014B     		ldr	r3, .L28
 305 0002 2433     		add	r3, r3, #36
 306 0004 1954     		strb	r1, [r3, r0]
 794:.\Generated_Source\PSoC4/CapSense_CSHL.c **** }
 307              		.loc 1 794 0
 308              		@ sp needed
 309 0006 7047     		bx	lr
 310              	.L29:
 311              		.align	2
 312              	.L28:
 313 0008 00000000 		.word	.LANCHOR0
 314              		.cfi_endproc
 315              	.LFE45:
 316              		.size	CapSense_SetDiffCountData, .-CapSense_SetDiffCountData
 317              		.section	.text.CapSense_GetFingerThreshold,"ax",%progbits
 318              		.align	2
 319              		.global	CapSense_GetFingerThreshold
 320              		.code	16
 321              		.thumb_func
 322              		.type	CapSense_GetFingerThreshold, %function
 323              	CapSense_GetFingerThreshold:
 324              	.LFB46:
 795:.\Generated_Source\PSoC4/CapSense_CSHL.c **** 
 796:.\Generated_Source\PSoC4/CapSense_CSHL.c **** 
 797:.\Generated_Source\PSoC4/CapSense_CSHL.c **** /*******************************************************************************
 798:.\Generated_Source\PSoC4/CapSense_CSHL.c **** * Function Name: CapSense_GetFingerThreshold
 799:.\Generated_Source\PSoC4/CapSense_CSHL.c **** ********************************************************************************
 800:.\Generated_Source\PSoC4/CapSense_CSHL.c **** *
 801:.\Generated_Source\PSoC4/CapSense_CSHL.c **** * Summary:
 802:.\Generated_Source\PSoC4/CapSense_CSHL.c **** *  This function reads the finger threshold from the component.
 803:.\Generated_Source\PSoC4/CapSense_CSHL.c **** *
 804:.\Generated_Source\PSoC4/CapSense_CSHL.c **** * Parameters:
 805:.\Generated_Source\PSoC4/CapSense_CSHL.c **** *  widget:  widget number.
 806:.\Generated_Source\PSoC4/CapSense_CSHL.c **** *
 807:.\Generated_Source\PSoC4/CapSense_CSHL.c **** * Return:
 808:.\Generated_Source\PSoC4/CapSense_CSHL.c **** *  This API returns the finger threshold of the widget indicated by the argument. 
 809:.\Generated_Source\PSoC4/CapSense_CSHL.c **** *
 810:.\Generated_Source\PSoC4/CapSense_CSHL.c **** * Global Variables:
 811:.\Generated_Source\PSoC4/CapSense_CSHL.c **** *  CapSense_fingerThreshold[] - This array contains the level of signal 
 812:.\Generated_Source\PSoC4/CapSense_CSHL.c **** *  for each widget that is determined if a finger is present on the widget.
ARM GAS  C:\Users\11401393\AppData\Local\Temp\ccv2tvsi.s 			page 21


 813:.\Generated_Source\PSoC4/CapSense_CSHL.c **** *
 814:.\Generated_Source\PSoC4/CapSense_CSHL.c **** * Side Effects:
 815:.\Generated_Source\PSoC4/CapSense_CSHL.c **** *  None
 816:.\Generated_Source\PSoC4/CapSense_CSHL.c **** *
 817:.\Generated_Source\PSoC4/CapSense_CSHL.c **** *******************************************************************************/
 818:.\Generated_Source\PSoC4/CapSense_CSHL.c **** uint8 CapSense_GetFingerThreshold(uint32 widget)
 819:.\Generated_Source\PSoC4/CapSense_CSHL.c **** {
 325              		.loc 1 819 0
 326              		.cfi_startproc
 327              	.LVL30:
 820:.\Generated_Source\PSoC4/CapSense_CSHL.c **** 	return(CapSense_fingerThreshold[widget]);
 328              		.loc 1 820 0
 329 0000 014B     		ldr	r3, .L31
 330 0002 1818     		add	r0, r3, r0
 331              	.LVL31:
 332 0004 007B     		ldrb	r0, [r0, #12]
 821:.\Generated_Source\PSoC4/CapSense_CSHL.c **** }
 333              		.loc 1 821 0
 334              		@ sp needed
 335 0006 7047     		bx	lr
 336              	.L32:
 337              		.align	2
 338              	.L31:
 339 0008 00000000 		.word	.LANCHOR1
 340              		.cfi_endproc
 341              	.LFE46:
 342              		.size	CapSense_GetFingerThreshold, .-CapSense_GetFingerThreshold
 343              		.section	.text.CapSense_GetNoiseThreshold,"ax",%progbits
 344              		.align	2
 345              		.global	CapSense_GetNoiseThreshold
 346              		.code	16
 347              		.thumb_func
 348              		.type	CapSense_GetNoiseThreshold, %function
 349              	CapSense_GetNoiseThreshold:
 350              	.LFB47:
 822:.\Generated_Source\PSoC4/CapSense_CSHL.c **** 
 823:.\Generated_Source\PSoC4/CapSense_CSHL.c **** 
 824:.\Generated_Source\PSoC4/CapSense_CSHL.c **** /*******************************************************************************
 825:.\Generated_Source\PSoC4/CapSense_CSHL.c **** * Function Name: CapSense_GetNoiseThreshold
 826:.\Generated_Source\PSoC4/CapSense_CSHL.c **** ********************************************************************************
 827:.\Generated_Source\PSoC4/CapSense_CSHL.c **** *
 828:.\Generated_Source\PSoC4/CapSense_CSHL.c **** * Summary:
 829:.\Generated_Source\PSoC4/CapSense_CSHL.c **** *  This function reads the noise threshold from the component.
 830:.\Generated_Source\PSoC4/CapSense_CSHL.c **** *
 831:.\Generated_Source\PSoC4/CapSense_CSHL.c **** * Parameters:
 832:.\Generated_Source\PSoC4/CapSense_CSHL.c **** *  widget:  widget number.
 833:.\Generated_Source\PSoC4/CapSense_CSHL.c **** *
 834:.\Generated_Source\PSoC4/CapSense_CSHL.c **** * Return:
 835:.\Generated_Source\PSoC4/CapSense_CSHL.c **** *  This API returns the noise threshold of the widget indicated by the argument. 
 836:.\Generated_Source\PSoC4/CapSense_CSHL.c **** *
 837:.\Generated_Source\PSoC4/CapSense_CSHL.c **** * Global Variables:
 838:.\Generated_Source\PSoC4/CapSense_CSHL.c **** *  CapSense_noiseThreshold[] - This array contains the level of signal 
 839:.\Generated_Source\PSoC4/CapSense_CSHL.c **** *  for each widget that determines the level of noise in the capacitive scan.
 840:.\Generated_Source\PSoC4/CapSense_CSHL.c **** * 
 841:.\Generated_Source\PSoC4/CapSense_CSHL.c **** * Side Effects:
 842:.\Generated_Source\PSoC4/CapSense_CSHL.c **** *  None
 843:.\Generated_Source\PSoC4/CapSense_CSHL.c **** *
ARM GAS  C:\Users\11401393\AppData\Local\Temp\ccv2tvsi.s 			page 22


 844:.\Generated_Source\PSoC4/CapSense_CSHL.c **** *******************************************************************************/
 845:.\Generated_Source\PSoC4/CapSense_CSHL.c **** uint8 CapSense_GetNoiseThreshold(uint32 widget)
 846:.\Generated_Source\PSoC4/CapSense_CSHL.c **** {
 351              		.loc 1 846 0
 352              		.cfi_startproc
 353              	.LVL32:
 847:.\Generated_Source\PSoC4/CapSense_CSHL.c **** 	return (CapSense_noiseThreshold[widget]);
 354              		.loc 1 847 0
 355 0000 014B     		ldr	r3, .L34
 356 0002 185C     		ldrb	r0, [r3, r0]
 357              	.LVL33:
 848:.\Generated_Source\PSoC4/CapSense_CSHL.c **** }
 358              		.loc 1 848 0
 359              		@ sp needed
 360 0004 7047     		bx	lr
 361              	.L35:
 362 0006 C046     		.align	2
 363              	.L34:
 364 0008 00000000 		.word	CapSense_noiseThreshold
 365              		.cfi_endproc
 366              	.LFE47:
 367              		.size	CapSense_GetNoiseThreshold, .-CapSense_GetNoiseThreshold
 368              		.section	.text.CapSense_GetFingerHysteresis,"ax",%progbits
 369              		.align	2
 370              		.global	CapSense_GetFingerHysteresis
 371              		.code	16
 372              		.thumb_func
 373              		.type	CapSense_GetFingerHysteresis, %function
 374              	CapSense_GetFingerHysteresis:
 375              	.LFB48:
 849:.\Generated_Source\PSoC4/CapSense_CSHL.c **** 
 850:.\Generated_Source\PSoC4/CapSense_CSHL.c **** 
 851:.\Generated_Source\PSoC4/CapSense_CSHL.c **** /*******************************************************************************
 852:.\Generated_Source\PSoC4/CapSense_CSHL.c **** * Function Name: CapSense_GetFingerHysteresis
 853:.\Generated_Source\PSoC4/CapSense_CSHL.c **** ********************************************************************************
 854:.\Generated_Source\PSoC4/CapSense_CSHL.c **** *
 855:.\Generated_Source\PSoC4/CapSense_CSHL.c **** * Summary:
 856:.\Generated_Source\PSoC4/CapSense_CSHL.c **** *  This function reads the Hysteresis value from the component.
 857:.\Generated_Source\PSoC4/CapSense_CSHL.c **** *
 858:.\Generated_Source\PSoC4/CapSense_CSHL.c **** * Parameters:
 859:.\Generated_Source\PSoC4/CapSense_CSHL.c **** *  widget:  widget number.
 860:.\Generated_Source\PSoC4/CapSense_CSHL.c **** *
 861:.\Generated_Source\PSoC4/CapSense_CSHL.c **** * Return:
 862:.\Generated_Source\PSoC4/CapSense_CSHL.c **** *  This API returns the Hysteresis of the widget indicated by the argument. 
 863:.\Generated_Source\PSoC4/CapSense_CSHL.c **** *
 864:.\Generated_Source\PSoC4/CapSense_CSHL.c **** * Global Variables:
 865:.\Generated_Source\PSoC4/CapSense_CSHL.c **** *  CapSense_hysteresis[] - This array contains the hysteresis value 
 866:.\Generated_Source\PSoC4/CapSense_CSHL.c **** *   for each widget.
 867:.\Generated_Source\PSoC4/CapSense_CSHL.c **** *  CapSense_widgetNumberSld - structure with dynamic sliders' parameters.
 868:.\Generated_Source\PSoC4/CapSense_CSHL.c **** *
 869:.\Generated_Source\PSoC4/CapSense_CSHL.c **** * Side Effects:
 870:.\Generated_Source\PSoC4/CapSense_CSHL.c **** *  None
 871:.\Generated_Source\PSoC4/CapSense_CSHL.c **** *
 872:.\Generated_Source\PSoC4/CapSense_CSHL.c **** *******************************************************************************/
 873:.\Generated_Source\PSoC4/CapSense_CSHL.c **** uint8 CapSense_GetFingerHysteresis(uint32 widget)
 874:.\Generated_Source\PSoC4/CapSense_CSHL.c **** {
 376              		.loc 1 874 0
ARM GAS  C:\Users\11401393\AppData\Local\Temp\ccv2tvsi.s 			page 23


 377              		.cfi_startproc
 378              	.LVL34:
 875:.\Generated_Source\PSoC4/CapSense_CSHL.c **** 	return(CapSense_hysteresis[widget]);
 379              		.loc 1 875 0
 380 0000 014B     		ldr	r3, .L37
 381 0002 185C     		ldrb	r0, [r3, r0]
 382              	.LVL35:
 876:.\Generated_Source\PSoC4/CapSense_CSHL.c **** }
 383              		.loc 1 876 0
 384              		@ sp needed
 385 0004 7047     		bx	lr
 386              	.L38:
 387 0006 C046     		.align	2
 388              	.L37:
 389 0008 00000000 		.word	CapSense_hysteresis
 390              		.cfi_endproc
 391              	.LFE48:
 392              		.size	CapSense_GetFingerHysteresis, .-CapSense_GetFingerHysteresis
 393              		.section	.text.CapSense_GetNegativeNoiseThreshold,"ax",%progbits
 394              		.align	2
 395              		.global	CapSense_GetNegativeNoiseThreshold
 396              		.code	16
 397              		.thumb_func
 398              		.type	CapSense_GetNegativeNoiseThreshold, %function
 399              	CapSense_GetNegativeNoiseThreshold:
 400              	.LFB49:
 877:.\Generated_Source\PSoC4/CapSense_CSHL.c **** 
 878:.\Generated_Source\PSoC4/CapSense_CSHL.c **** 
 879:.\Generated_Source\PSoC4/CapSense_CSHL.c **** /*******************************************************************************
 880:.\Generated_Source\PSoC4/CapSense_CSHL.c **** * Function Name: CapSense_GetNegativeNoiseThreshold
 881:.\Generated_Source\PSoC4/CapSense_CSHL.c **** ********************************************************************************
 882:.\Generated_Source\PSoC4/CapSense_CSHL.c **** *
 883:.\Generated_Source\PSoC4/CapSense_CSHL.c **** * Summary:
 884:.\Generated_Source\PSoC4/CapSense_CSHL.c **** *  This function reads the negative noise threshold from the component.
 885:.\Generated_Source\PSoC4/CapSense_CSHL.c **** *
 886:.\Generated_Source\PSoC4/CapSense_CSHL.c **** * Parameters: 
 887:.\Generated_Source\PSoC4/CapSense_CSHL.c **** *  None.
 888:.\Generated_Source\PSoC4/CapSense_CSHL.c **** *
 889:.\Generated_Source\PSoC4/CapSense_CSHL.c **** * Return Value: 
 890:.\Generated_Source\PSoC4/CapSense_CSHL.c **** *  This API returns the negative noise threshold
 891:.\Generated_Source\PSoC4/CapSense_CSHL.c **** *
 892:.\Generated_Source\PSoC4/CapSense_CSHL.c **** * Global Variables:
 893:.\Generated_Source\PSoC4/CapSense_CSHL.c **** *  CapSense_negativeNoiseThreshold - This variable specifies the negative 
 894:.\Generated_Source\PSoC4/CapSense_CSHL.c **** *   difference between the raw count and baseline levels for Baseline resetting
 895:.\Generated_Source\PSoC4/CapSense_CSHL.c **** *   to the raw count level.
 896:.\Generated_Source\PSoC4/CapSense_CSHL.c **** * 
 897:.\Generated_Source\PSoC4/CapSense_CSHL.c **** * Side Effects:
 898:.\Generated_Source\PSoC4/CapSense_CSHL.c **** *  None
 899:.\Generated_Source\PSoC4/CapSense_CSHL.c **** *
 900:.\Generated_Source\PSoC4/CapSense_CSHL.c **** *******************************************************************************/
 901:.\Generated_Source\PSoC4/CapSense_CSHL.c **** uint8 CapSense_GetNegativeNoiseThreshold(uint32 widget)
 902:.\Generated_Source\PSoC4/CapSense_CSHL.c **** {
 401              		.loc 1 902 0
 402              		.cfi_startproc
 403              	.LVL36:
 903:.\Generated_Source\PSoC4/CapSense_CSHL.c **** #if (CapSense_TUNING_METHOD != CapSense__TUNING_NONE)
 904:.\Generated_Source\PSoC4/CapSense_CSHL.c **** 	return(CapSense_negativeNoiseThreshold[widget]);
ARM GAS  C:\Users\11401393\AppData\Local\Temp\ccv2tvsi.s 			page 24


 404              		.loc 1 904 0
 405 0000 014B     		ldr	r3, .L40
 406 0002 185C     		ldrb	r0, [r3, r0]
 407              	.LVL37:
 905:.\Generated_Source\PSoC4/CapSense_CSHL.c **** #else
 906:.\Generated_Source\PSoC4/CapSense_CSHL.c **** 	return(CapSense_NEGATIVE_NOISE_THRESHOLD);
 907:.\Generated_Source\PSoC4/CapSense_CSHL.c **** #endif /* (CapSense_TUNING_METHOD != CapSense__TUNING_NONE) */ 
 908:.\Generated_Source\PSoC4/CapSense_CSHL.c **** }
 408              		.loc 1 908 0
 409              		@ sp needed
 410 0004 7047     		bx	lr
 411              	.L41:
 412 0006 C046     		.align	2
 413              	.L40:
 414 0008 00000000 		.word	CapSense_negativeNoiseThreshold
 415              		.cfi_endproc
 416              	.LFE49:
 417              		.size	CapSense_GetNegativeNoiseThreshold, .-CapSense_GetNegativeNoiseThreshold
 418              		.section	.text.CapSense_SetFingerThreshold,"ax",%progbits
 419              		.align	2
 420              		.global	CapSense_SetFingerThreshold
 421              		.code	16
 422              		.thumb_func
 423              		.type	CapSense_SetFingerThreshold, %function
 424              	CapSense_SetFingerThreshold:
 425              	.LFB50:
 909:.\Generated_Source\PSoC4/CapSense_CSHL.c **** 
 910:.\Generated_Source\PSoC4/CapSense_CSHL.c **** 
 911:.\Generated_Source\PSoC4/CapSense_CSHL.c **** #if(CapSense_TUNING_METHOD != CapSense__TUNING_NONE)
 912:.\Generated_Source\PSoC4/CapSense_CSHL.c **** 	/*******************************************************************************
 913:.\Generated_Source\PSoC4/CapSense_CSHL.c **** 	* Function Name: CapSense_SetFingerThreshold
 914:.\Generated_Source\PSoC4/CapSense_CSHL.c **** 	********************************************************************************
 915:.\Generated_Source\PSoC4/CapSense_CSHL.c **** 	*
 916:.\Generated_Source\PSoC4/CapSense_CSHL.c **** 	* Summary:
 917:.\Generated_Source\PSoC4/CapSense_CSHL.c **** 	*  This API sets the finger threshold value for a widget. 
 918:.\Generated_Source\PSoC4/CapSense_CSHL.c **** 	*
 919:.\Generated_Source\PSoC4/CapSense_CSHL.c **** 	* Parameters: 
 920:.\Generated_Source\PSoC4/CapSense_CSHL.c **** 	*  sensorNumber:  widget index. 
 921:.\Generated_Source\PSoC4/CapSense_CSHL.c **** 	*  value:  Finger threshold value for the widget.
 922:.\Generated_Source\PSoC4/CapSense_CSHL.c **** 	*
 923:.\Generated_Source\PSoC4/CapSense_CSHL.c **** 	* Return Value: 
 924:.\Generated_Source\PSoC4/CapSense_CSHL.c **** 	*  None
 925:.\Generated_Source\PSoC4/CapSense_CSHL.c **** 	*
 926:.\Generated_Source\PSoC4/CapSense_CSHL.c **** 	* Global Variables:
 927:.\Generated_Source\PSoC4/CapSense_CSHL.c **** 	*  CapSense_fingerThreshold[] - This array contains the level of signal 
 928:.\Generated_Source\PSoC4/CapSense_CSHL.c **** 	*   for each widget that determines if a finger is present on the widget.
 929:.\Generated_Source\PSoC4/CapSense_CSHL.c **** 	* 
 930:.\Generated_Source\PSoC4/CapSense_CSHL.c **** 	* Side Effects:
 931:.\Generated_Source\PSoC4/CapSense_CSHL.c **** 	*  None
 932:.\Generated_Source\PSoC4/CapSense_CSHL.c **** 	*
 933:.\Generated_Source\PSoC4/CapSense_CSHL.c **** 	*******************************************************************************/
 934:.\Generated_Source\PSoC4/CapSense_CSHL.c **** 	void CapSense_SetFingerThreshold(uint32 widget, uint8 value)
 935:.\Generated_Source\PSoC4/CapSense_CSHL.c **** 	{	
 426              		.loc 1 935 0
 427              		.cfi_startproc
 428              	.LVL38:
 936:.\Generated_Source\PSoC4/CapSense_CSHL.c **** 		CapSense_fingerThreshold[widget] = value;
ARM GAS  C:\Users\11401393\AppData\Local\Temp\ccv2tvsi.s 			page 25


 429              		.loc 1 936 0
 430 0000 014B     		ldr	r3, .L43
 431 0002 1818     		add	r0, r3, r0
 432              	.LVL39:
 433 0004 0173     		strb	r1, [r0, #12]
 937:.\Generated_Source\PSoC4/CapSense_CSHL.c **** 	}
 434              		.loc 1 937 0
 435              		@ sp needed
 436 0006 7047     		bx	lr
 437              	.L44:
 438              		.align	2
 439              	.L43:
 440 0008 00000000 		.word	.LANCHOR1
 441              		.cfi_endproc
 442              	.LFE50:
 443              		.size	CapSense_SetFingerThreshold, .-CapSense_SetFingerThreshold
 444              		.section	.text.CapSense_SetNoiseThreshold,"ax",%progbits
 445              		.align	2
 446              		.global	CapSense_SetNoiseThreshold
 447              		.code	16
 448              		.thumb_func
 449              		.type	CapSense_SetNoiseThreshold, %function
 450              	CapSense_SetNoiseThreshold:
 451              	.LFB51:
 938:.\Generated_Source\PSoC4/CapSense_CSHL.c **** 
 939:.\Generated_Source\PSoC4/CapSense_CSHL.c **** 
 940:.\Generated_Source\PSoC4/CapSense_CSHL.c **** 	/*******************************************************************************
 941:.\Generated_Source\PSoC4/CapSense_CSHL.c **** 	* Function Name: CapSense_SetNoiseThreshold
 942:.\Generated_Source\PSoC4/CapSense_CSHL.c **** 	********************************************************************************
 943:.\Generated_Source\PSoC4/CapSense_CSHL.c **** 	*
 944:.\Generated_Source\PSoC4/CapSense_CSHL.c **** 	* Summary:
 945:.\Generated_Source\PSoC4/CapSense_CSHL.c **** 	*  This API sets the Noise Threshold value for each widget.
 946:.\Generated_Source\PSoC4/CapSense_CSHL.c **** 	*
 947:.\Generated_Source\PSoC4/CapSense_CSHL.c **** 	* Parameters:
 948:.\Generated_Source\PSoC4/CapSense_CSHL.c **** 	*  widget:  Sensor index number.
 949:.\Generated_Source\PSoC4/CapSense_CSHL.c **** 	*  value:   Noise Threshold value for widget.
 950:.\Generated_Source\PSoC4/CapSense_CSHL.c **** 	*
 951:.\Generated_Source\PSoC4/CapSense_CSHL.c **** 	* Return Value: 
 952:.\Generated_Source\PSoC4/CapSense_CSHL.c **** 	*  None
 953:.\Generated_Source\PSoC4/CapSense_CSHL.c **** 	*
 954:.\Generated_Source\PSoC4/CapSense_CSHL.c **** 	* Global Variables:
 955:.\Generated_Source\PSoC4/CapSense_CSHL.c **** 	*  CapSense_noiseThreshold[] - This array contains the level of signal 
 956:.\Generated_Source\PSoC4/CapSense_CSHL.c **** 	*   for each widget that determines the level of noise in the capacitive scan.
 957:.\Generated_Source\PSoC4/CapSense_CSHL.c **** 	* 
 958:.\Generated_Source\PSoC4/CapSense_CSHL.c **** 	* Side Effects:
 959:.\Generated_Source\PSoC4/CapSense_CSHL.c **** 	*  None
 960:.\Generated_Source\PSoC4/CapSense_CSHL.c **** 	*
 961:.\Generated_Source\PSoC4/CapSense_CSHL.c **** 	*******************************************************************************/
 962:.\Generated_Source\PSoC4/CapSense_CSHL.c **** 	void CapSense_SetNoiseThreshold(uint32 widget, uint8 value)
 963:.\Generated_Source\PSoC4/CapSense_CSHL.c **** 	{
 452              		.loc 1 963 0
 453              		.cfi_startproc
 454              	.LVL40:
 964:.\Generated_Source\PSoC4/CapSense_CSHL.c **** 		CapSense_noiseThreshold[widget] = value;
 455              		.loc 1 964 0
 456 0000 014B     		ldr	r3, .L46
 457 0002 1954     		strb	r1, [r3, r0]
ARM GAS  C:\Users\11401393\AppData\Local\Temp\ccv2tvsi.s 			page 26


 965:.\Generated_Source\PSoC4/CapSense_CSHL.c **** 	}
 458              		.loc 1 965 0
 459              		@ sp needed
 460 0004 7047     		bx	lr
 461              	.L47:
 462 0006 C046     		.align	2
 463              	.L46:
 464 0008 00000000 		.word	CapSense_noiseThreshold
 465              		.cfi_endproc
 466              	.LFE51:
 467              		.size	CapSense_SetNoiseThreshold, .-CapSense_SetNoiseThreshold
 468              		.section	.text.CapSense_SetFingerHysteresis,"ax",%progbits
 469              		.align	2
 470              		.global	CapSense_SetFingerHysteresis
 471              		.code	16
 472              		.thumb_func
 473              		.type	CapSense_SetFingerHysteresis, %function
 474              	CapSense_SetFingerHysteresis:
 475              	.LFB52:
 966:.\Generated_Source\PSoC4/CapSense_CSHL.c **** 
 967:.\Generated_Source\PSoC4/CapSense_CSHL.c **** 
 968:.\Generated_Source\PSoC4/CapSense_CSHL.c **** 	/*******************************************************************************
 969:.\Generated_Source\PSoC4/CapSense_CSHL.c **** 	* Function Name: CapSense_SetFingerHysteresis
 970:.\Generated_Source\PSoC4/CapSense_CSHL.c **** 	********************************************************************************
 971:.\Generated_Source\PSoC4/CapSense_CSHL.c **** 	*
 972:.\Generated_Source\PSoC4/CapSense_CSHL.c **** 	* Summary:
 973:.\Generated_Source\PSoC4/CapSense_CSHL.c **** 	*  This API sets the Hysteresis value of a widget
 974:.\Generated_Source\PSoC4/CapSense_CSHL.c **** 	*
 975:.\Generated_Source\PSoC4/CapSense_CSHL.c **** 	* Parameters: 
 976:.\Generated_Source\PSoC4/CapSense_CSHL.c **** 	*  value:  Hysteresis value for widgets.
 977:.\Generated_Source\PSoC4/CapSense_CSHL.c **** 	*  widget:  widget number
 978:.\Generated_Source\PSoC4/CapSense_CSHL.c **** 	*
 979:.\Generated_Source\PSoC4/CapSense_CSHL.c **** 	* Return Value: 
 980:.\Generated_Source\PSoC4/CapSense_CSHL.c **** 	*  None
 981:.\Generated_Source\PSoC4/CapSense_CSHL.c **** 	*
 982:.\Generated_Source\PSoC4/CapSense_CSHL.c **** 	* Global Variables:
 983:.\Generated_Source\PSoC4/CapSense_CSHL.c **** 	*  CapSense_hysteresis[] - This array contains the hysteresis value for each widget.
 984:.\Generated_Source\PSoC4/CapSense_CSHL.c **** 	*  CapSense_widgetNumberSld - structure with dynamic sliders' parameters.
 985:.\Generated_Source\PSoC4/CapSense_CSHL.c **** 	*
 986:.\Generated_Source\PSoC4/CapSense_CSHL.c **** 	* Side Effects:
 987:.\Generated_Source\PSoC4/CapSense_CSHL.c **** 	*  None
 988:.\Generated_Source\PSoC4/CapSense_CSHL.c **** 	*
 989:.\Generated_Source\PSoC4/CapSense_CSHL.c **** 	*******************************************************************************/
 990:.\Generated_Source\PSoC4/CapSense_CSHL.c **** 	void CapSense_SetFingerHysteresis(uint32 widget, uint8 value)
 991:.\Generated_Source\PSoC4/CapSense_CSHL.c **** 	{
 476              		.loc 1 991 0
 477              		.cfi_startproc
 478              	.LVL41:
 992:.\Generated_Source\PSoC4/CapSense_CSHL.c **** 		CapSense_hysteresis[widget] = value;
 479              		.loc 1 992 0
 480 0000 014B     		ldr	r3, .L49
 481 0002 1954     		strb	r1, [r3, r0]
 993:.\Generated_Source\PSoC4/CapSense_CSHL.c **** 	}
 482              		.loc 1 993 0
 483              		@ sp needed
 484 0004 7047     		bx	lr
 485              	.L50:
ARM GAS  C:\Users\11401393\AppData\Local\Temp\ccv2tvsi.s 			page 27


 486 0006 C046     		.align	2
 487              	.L49:
 488 0008 00000000 		.word	CapSense_hysteresis
 489              		.cfi_endproc
 490              	.LFE52:
 491              		.size	CapSense_SetFingerHysteresis, .-CapSense_SetFingerHysteresis
 492              		.section	.text.CapSense_SetNegativeNoiseThreshold,"ax",%progbits
 493              		.align	2
 494              		.global	CapSense_SetNegativeNoiseThreshold
 495              		.code	16
 496              		.thumb_func
 497              		.type	CapSense_SetNegativeNoiseThreshold, %function
 498              	CapSense_SetNegativeNoiseThreshold:
 499              	.LFB53:
 994:.\Generated_Source\PSoC4/CapSense_CSHL.c **** 
 995:.\Generated_Source\PSoC4/CapSense_CSHL.c **** 
 996:.\Generated_Source\PSoC4/CapSense_CSHL.c **** 	/*******************************************************************************
 997:.\Generated_Source\PSoC4/CapSense_CSHL.c **** 	* Function Name: CapSense_SetNegativeNoiseThreshold
 998:.\Generated_Source\PSoC4/CapSense_CSHL.c **** 	********************************************************************************
 999:.\Generated_Source\PSoC4/CapSense_CSHL.c **** 	*
1000:.\Generated_Source\PSoC4/CapSense_CSHL.c **** 	* Summary:
1001:.\Generated_Source\PSoC4/CapSense_CSHL.c **** 	*  This API sets the Negative Noise Threshold value of a widget
1002:.\Generated_Source\PSoC4/CapSense_CSHL.c **** 	*
1003:.\Generated_Source\PSoC4/CapSense_CSHL.c **** 	* Parameters: 
1004:.\Generated_Source\PSoC4/CapSense_CSHL.c **** 	*  value:  Negative Noise Threshold value for widgets.
1005:.\Generated_Source\PSoC4/CapSense_CSHL.c **** 	*  widget: widget number
1006:.\Generated_Source\PSoC4/CapSense_CSHL.c **** 	*
1007:.\Generated_Source\PSoC4/CapSense_CSHL.c **** 	* Return Value: 
1008:.\Generated_Source\PSoC4/CapSense_CSHL.c **** 	*  None
1009:.\Generated_Source\PSoC4/CapSense_CSHL.c **** 	*
1010:.\Generated_Source\PSoC4/CapSense_CSHL.c **** 	* Global Variables:
1011:.\Generated_Source\PSoC4/CapSense_CSHL.c **** 	*  CapSense_negativeNoiseThreshold  - This parameter specifies the negative 
1012:.\Generated_Source\PSoC4/CapSense_CSHL.c **** 	*   difference between the raw count and baseline levels for Baseline resetting to 
1013:.\Generated_Source\PSoC4/CapSense_CSHL.c **** 	*   the raw count level.
1014:.\Generated_Source\PSoC4/CapSense_CSHL.c **** 	* 
1015:.\Generated_Source\PSoC4/CapSense_CSHL.c **** 	* Side Effects:
1016:.\Generated_Source\PSoC4/CapSense_CSHL.c **** 	*  None
1017:.\Generated_Source\PSoC4/CapSense_CSHL.c **** 	*
1018:.\Generated_Source\PSoC4/CapSense_CSHL.c **** 	*******************************************************************************/
1019:.\Generated_Source\PSoC4/CapSense_CSHL.c **** 	void CapSense_SetNegativeNoiseThreshold(uint32 widget, uint8 value)
1020:.\Generated_Source\PSoC4/CapSense_CSHL.c **** 	{
 500              		.loc 1 1020 0
 501              		.cfi_startproc
 502              	.LVL42:
1021:.\Generated_Source\PSoC4/CapSense_CSHL.c **** 		CapSense_negativeNoiseThreshold[widget] = value;
 503              		.loc 1 1021 0
 504 0000 014B     		ldr	r3, .L52
 505 0002 1954     		strb	r1, [r3, r0]
1022:.\Generated_Source\PSoC4/CapSense_CSHL.c **** 	}
 506              		.loc 1 1022 0
 507              		@ sp needed
 508 0004 7047     		bx	lr
 509              	.L53:
 510 0006 C046     		.align	2
 511              	.L52:
 512 0008 00000000 		.word	CapSense_negativeNoiseThreshold
 513              		.cfi_endproc
ARM GAS  C:\Users\11401393\AppData\Local\Temp\ccv2tvsi.s 			page 28


 514              	.LFE53:
 515              		.size	CapSense_SetNegativeNoiseThreshold, .-CapSense_SetNegativeNoiseThreshold
 516              		.section	.text.CapSense_SetDebounce,"ax",%progbits
 517              		.align	2
 518              		.global	CapSense_SetDebounce
 519              		.code	16
 520              		.thumb_func
 521              		.type	CapSense_SetDebounce, %function
 522              	CapSense_SetDebounce:
 523              	.LFB54:
1023:.\Generated_Source\PSoC4/CapSense_CSHL.c **** 
1024:.\Generated_Source\PSoC4/CapSense_CSHL.c **** 
1025:.\Generated_Source\PSoC4/CapSense_CSHL.c **** 	/*******************************************************************************
1026:.\Generated_Source\PSoC4/CapSense_CSHL.c **** 	* Function Name: CapSense_SetDebounce
1027:.\Generated_Source\PSoC4/CapSense_CSHL.c **** 	********************************************************************************
1028:.\Generated_Source\PSoC4/CapSense_CSHL.c **** 	*
1029:.\Generated_Source\PSoC4/CapSense_CSHL.c **** 	* Summary:
1030:.\Generated_Source\PSoC4/CapSense_CSHL.c **** 	*  This API sets the debounce value for a widget.
1031:.\Generated_Source\PSoC4/CapSense_CSHL.c **** 	*
1032:.\Generated_Source\PSoC4/CapSense_CSHL.c **** 	* Parameters: 
1033:.\Generated_Source\PSoC4/CapSense_CSHL.c **** 	*  value:  Debounce value for widget.
1034:.\Generated_Source\PSoC4/CapSense_CSHL.c **** 	*  widget: widget index.
1035:.\Generated_Source\PSoC4/CapSense_CSHL.c **** 	*
1036:.\Generated_Source\PSoC4/CapSense_CSHL.c **** 	* Return Value: 
1037:.\Generated_Source\PSoC4/CapSense_CSHL.c **** 	*  None
1038:.\Generated_Source\PSoC4/CapSense_CSHL.c **** 	*
1039:.\Generated_Source\PSoC4/CapSense_CSHL.c **** 	* Global Variables:
1040:.\Generated_Source\PSoC4/CapSense_CSHL.c **** 	*  CapSense_debounce[] - This array contains the debounce value for each widget.
1041:.\Generated_Source\PSoC4/CapSense_CSHL.c **** 	*  CapSense_widgetNumberSld - structure with dynamic sliders' parameters.
1042:.\Generated_Source\PSoC4/CapSense_CSHL.c **** 	*
1043:.\Generated_Source\PSoC4/CapSense_CSHL.c **** 	* Side Effects:
1044:.\Generated_Source\PSoC4/CapSense_CSHL.c **** 	*  None
1045:.\Generated_Source\PSoC4/CapSense_CSHL.c **** 	*
1046:.\Generated_Source\PSoC4/CapSense_CSHL.c **** 	*******************************************************************************/
1047:.\Generated_Source\PSoC4/CapSense_CSHL.c **** 	void CapSense_SetDebounce(uint32 widget, uint8 value)
1048:.\Generated_Source\PSoC4/CapSense_CSHL.c **** 	{
 524              		.loc 1 1048 0
 525              		.cfi_startproc
 526              	.LVL43:
1049:.\Generated_Source\PSoC4/CapSense_CSHL.c **** 		CapSense_debounce[widget] = value;
 527              		.loc 1 1049 0
 528 0000 014B     		ldr	r3, .L55
 529 0002 1954     		strb	r1, [r3, r0]
1050:.\Generated_Source\PSoC4/CapSense_CSHL.c **** 	}
 530              		.loc 1 1050 0
 531              		@ sp needed
 532 0004 7047     		bx	lr
 533              	.L56:
 534 0006 C046     		.align	2
 535              	.L55:
 536 0008 00000000 		.word	.LANCHOR1
 537              		.cfi_endproc
 538              	.LFE54:
 539              		.size	CapSense_SetDebounce, .-CapSense_SetDebounce
 540              		.section	.text.CapSense_SetLowBaselineReset,"ax",%progbits
 541              		.align	2
 542              		.global	CapSense_SetLowBaselineReset
ARM GAS  C:\Users\11401393\AppData\Local\Temp\ccv2tvsi.s 			page 29


 543              		.code	16
 544              		.thumb_func
 545              		.type	CapSense_SetLowBaselineReset, %function
 546              	CapSense_SetLowBaselineReset:
 547              	.LFB55:
1051:.\Generated_Source\PSoC4/CapSense_CSHL.c **** 
1052:.\Generated_Source\PSoC4/CapSense_CSHL.c **** 
1053:.\Generated_Source\PSoC4/CapSense_CSHL.c **** 	/*******************************************************************************
1054:.\Generated_Source\PSoC4/CapSense_CSHL.c **** 	* Function Name: CapSense_SetLowBaselineReset
1055:.\Generated_Source\PSoC4/CapSense_CSHL.c **** 	********************************************************************************
1056:.\Generated_Source\PSoC4/CapSense_CSHL.c **** 	*
1057:.\Generated_Source\PSoC4/CapSense_CSHL.c **** 	* Summary:
1058:.\Generated_Source\PSoC4/CapSense_CSHL.c **** 	*  This API sets the low baseline reset threshold value for the sensor.
1059:.\Generated_Source\PSoC4/CapSense_CSHL.c **** 	*
1060:.\Generated_Source\PSoC4/CapSense_CSHL.c **** 	* Parameters: 
1061:.\Generated_Source\PSoC4/CapSense_CSHL.c **** 	*  value: low baseline reset threshold value.
1062:.\Generated_Source\PSoC4/CapSense_CSHL.c **** 	*  sensor: Sensor index.
1063:.\Generated_Source\PSoC4/CapSense_CSHL.c **** 	*
1064:.\Generated_Source\PSoC4/CapSense_CSHL.c **** 	* Return Value: 
1065:.\Generated_Source\PSoC4/CapSense_CSHL.c **** 	*  None
1066:.\Generated_Source\PSoC4/CapSense_CSHL.c **** 	*
1067:.\Generated_Source\PSoC4/CapSense_CSHL.c **** 	* Global Variables:
1068:.\Generated_Source\PSoC4/CapSense_CSHL.c **** 	*  CapSense_lowBaselineReset[] - This array contains the Baseline update 
1069:.\Generated_Source\PSoC4/CapSense_CSHL.c **** 	*  threshold value for each sensor.
1070:.\Generated_Source\PSoC4/CapSense_CSHL.c **** 	* 
1071:.\Generated_Source\PSoC4/CapSense_CSHL.c **** 	* Side Effects:
1072:.\Generated_Source\PSoC4/CapSense_CSHL.c **** 	*  None
1073:.\Generated_Source\PSoC4/CapSense_CSHL.c **** 	*
1074:.\Generated_Source\PSoC4/CapSense_CSHL.c **** 	*******************************************************************************/
1075:.\Generated_Source\PSoC4/CapSense_CSHL.c **** 	void CapSense_SetLowBaselineReset(uint32 sensor, uint8 value)
1076:.\Generated_Source\PSoC4/CapSense_CSHL.c **** 	{
 548              		.loc 1 1076 0
 549              		.cfi_startproc
 550              	.LVL44:
1077:.\Generated_Source\PSoC4/CapSense_CSHL.c **** 		CapSense_lowBaselineReset[sensor] = value;
 551              		.loc 1 1077 0
 552 0000 014B     		ldr	r3, .L58
 553 0002 1818     		add	r0, r3, r0
 554              	.LVL45:
 555 0004 0176     		strb	r1, [r0, #24]
1078:.\Generated_Source\PSoC4/CapSense_CSHL.c **** 	}
 556              		.loc 1 1078 0
 557              		@ sp needed
 558 0006 7047     		bx	lr
 559              	.L59:
 560              		.align	2
 561              	.L58:
 562 0008 00000000 		.word	.LANCHOR1
 563              		.cfi_endproc
 564              	.LFE55:
 565              		.size	CapSense_SetLowBaselineReset, .-CapSense_SetLowBaselineReset
 566              		.section	.text.CapSense_CheckIsSensorActive,"ax",%progbits
 567              		.align	2
 568              		.global	CapSense_CheckIsSensorActive
 569              		.code	16
 570              		.thumb_func
 571              		.type	CapSense_CheckIsSensorActive, %function
ARM GAS  C:\Users\11401393\AppData\Local\Temp\ccv2tvsi.s 			page 30


 572              	CapSense_CheckIsSensorActive:
 573              	.LFB56:
1079:.\Generated_Source\PSoC4/CapSense_CSHL.c **** #endif /* (CapSense_TUNING_METHOD != CapSense__TUNING_NONE) */
1080:.\Generated_Source\PSoC4/CapSense_CSHL.c **** 
1081:.\Generated_Source\PSoC4/CapSense_CSHL.c **** 
1082:.\Generated_Source\PSoC4/CapSense_CSHL.c **** /*******************************************************************************
1083:.\Generated_Source\PSoC4/CapSense_CSHL.c **** * Function Name: CapSense_CheckIsSensorActive
1084:.\Generated_Source\PSoC4/CapSense_CSHL.c **** ********************************************************************************
1085:.\Generated_Source\PSoC4/CapSense_CSHL.c **** *
1086:.\Generated_Source\PSoC4/CapSense_CSHL.c **** * Summary:
1087:.\Generated_Source\PSoC4/CapSense_CSHL.c **** *  Compares the CapSense_sensorSignal[sensor] array element to the finger
1088:.\Generated_Source\PSoC4/CapSense_CSHL.c **** *  threshold of the widget it belongs to. The hysteresis and debounce are taken into 
1089:.\Generated_Source\PSoC4/CapSense_CSHL.c **** *  account. The hysteresis is added or subtracted from the finger threshold 
1090:.\Generated_Source\PSoC4/CapSense_CSHL.c **** *  based on whether the sensor is currently active. 
1091:.\Generated_Source\PSoC4/CapSense_CSHL.c **** *  If the sensor is active, the threshold is lowered by the hysteresis amount.
1092:.\Generated_Source\PSoC4/CapSense_CSHL.c **** *  If the sensor is inactive, the threshold is raised by the hysteresis amount.
1093:.\Generated_Source\PSoC4/CapSense_CSHL.c **** *  The debounce counter is added to the sensor active transition.
1094:.\Generated_Source\PSoC4/CapSense_CSHL.c **** *  This function updates the CapSense_sensorOnMask[] array element.
1095:.\Generated_Source\PSoC4/CapSense_CSHL.c **** *
1096:.\Generated_Source\PSoC4/CapSense_CSHL.c **** * Parameters:
1097:.\Generated_Source\PSoC4/CapSense_CSHL.c **** *  sensor:  Sensor number.
1098:.\Generated_Source\PSoC4/CapSense_CSHL.c **** *
1099:.\Generated_Source\PSoC4/CapSense_CSHL.c **** * Return:
1100:.\Generated_Source\PSoC4/CapSense_CSHL.c **** *  Returns sensor state 1 if active, 0 if not active.
1101:.\Generated_Source\PSoC4/CapSense_CSHL.c **** *
1102:.\Generated_Source\PSoC4/CapSense_CSHL.c **** * Global Variables:
1103:.\Generated_Source\PSoC4/CapSense_CSHL.c **** *  CapSense_sensorSignal[] - used to store the difference between 
1104:.\Generated_Source\PSoC4/CapSense_CSHL.c **** *  the current value of raw data and a previous value of the baseline.
1105:.\Generated_Source\PSoC4/CapSense_CSHL.c **** *  CapSense_debounceCounter[]   - used to store the current debounce 
1106:.\Generated_Source\PSoC4/CapSense_CSHL.c **** *  counter of the sensor. the widget which have this parameter are buttons, matrix 
1107:.\Generated_Source\PSoC4/CapSense_CSHL.c **** *  buttons, proximity, and guard. All other widgets don't have the  debounce parameter
1108:.\Generated_Source\PSoC4/CapSense_CSHL.c **** *  and use the last element of this array with value 0 (it means no debounce).
1109:.\Generated_Source\PSoC4/CapSense_CSHL.c **** *  CapSense_sensorOnMask[] - used to store the sensors on/off state.
1110:.\Generated_Source\PSoC4/CapSense_CSHL.c **** *  CapSense_sensorOnMask[0] contains the masked bits for sensors 
1111:.\Generated_Source\PSoC4/CapSense_CSHL.c **** *   0 through 7 (sensor 0 is bit 0, sensor 1 is bit 1).
1112:.\Generated_Source\PSoC4/CapSense_CSHL.c **** *  CapSense_sensorEnableMask[1] contains the masked bits for 
1113:.\Generated_Source\PSoC4/CapSense_CSHL.c **** *  sensors 8 through 15 (if needed), and so on.
1114:.\Generated_Source\PSoC4/CapSense_CSHL.c **** *  0 - sensor is inactive.
1115:.\Generated_Source\PSoC4/CapSense_CSHL.c **** *  1 - sensor is active.
1116:.\Generated_Source\PSoC4/CapSense_CSHL.c **** * 
1117:.\Generated_Source\PSoC4/CapSense_CSHL.c **** * Side Effects:
1118:.\Generated_Source\PSoC4/CapSense_CSHL.c **** *  None
1119:.\Generated_Source\PSoC4/CapSense_CSHL.c **** *
1120:.\Generated_Source\PSoC4/CapSense_CSHL.c **** *******************************************************************************/
1121:.\Generated_Source\PSoC4/CapSense_CSHL.c **** uint32 CapSense_CheckIsSensorActive(uint32 sensor)
1122:.\Generated_Source\PSoC4/CapSense_CSHL.c **** {	
 574              		.loc 1 1122 0
 575              		.cfi_startproc
 576              	.LVL46:
 577 0000 F0B5     		push	{r4, r5, r6, r7, lr}
 578              		.cfi_def_cfa_offset 20
 579              		.cfi_offset 4, -20
 580              		.cfi_offset 5, -16
 581              		.cfi_offset 6, -12
 582              		.cfi_offset 7, -8
 583              		.cfi_offset 14, -4
 584 0002 4746     		mov	r7, r8
ARM GAS  C:\Users\11401393\AppData\Local\Temp\ccv2tvsi.s 			page 31


 585 0004 80B4     		push	{r7}
 586              		.cfi_def_cfa_offset 24
 587              		.cfi_offset 8, -24
 588 0006 041C     		mov	r4, r0
1123:.\Generated_Source\PSoC4/CapSense_CSHL.c **** 	uint8 widget;
1124:.\Generated_Source\PSoC4/CapSense_CSHL.c **** 	uint8 debounce;
1125:.\Generated_Source\PSoC4/CapSense_CSHL.c **** 	uint8 debounceIndex;
1126:.\Generated_Source\PSoC4/CapSense_CSHL.c **** 
1127:.\Generated_Source\PSoC4/CapSense_CSHL.c **** 	uint8 fingerThreshold;
1128:.\Generated_Source\PSoC4/CapSense_CSHL.c **** 	uint8 hysteresis;
1129:.\Generated_Source\PSoC4/CapSense_CSHL.c **** 	
1130:.\Generated_Source\PSoC4/CapSense_CSHL.c **** 	
1131:.\Generated_Source\PSoC4/CapSense_CSHL.c ****     /* Prepare to find debounce counter index */
1132:.\Generated_Source\PSoC4/CapSense_CSHL.c ****     widget = CapSense_widgetNumber[sensor];
 589              		.loc 1 1132 0
 590 0008 234B     		ldr	r3, .L66
 591 000a 1D5C     		ldrb	r5, [r3, r0]
1133:.\Generated_Source\PSoC4/CapSense_CSHL.c **** 	
1134:.\Generated_Source\PSoC4/CapSense_CSHL.c ****     fingerThreshold = CapSense_fingerThreshold[widget];
 592              		.loc 1 1134 0
 593 000c 234B     		ldr	r3, .L66+4
 594 000e 5A19     		add	r2, r3, r5
 595 0010 177B     		ldrb	r7, [r2, #12]
 596              	.LVL47:
1135:.\Generated_Source\PSoC4/CapSense_CSHL.c **** 	hysteresis = CapSense_hysteresis[widget];
 597              		.loc 1 1135 0
 598 0012 234A     		ldr	r2, .L66+8
 599              	.LVL48:
 600 0014 565D     		ldrb	r6, [r2, r5]
 601              	.LVL49:
1136:.\Generated_Source\PSoC4/CapSense_CSHL.c **** 	debounce = CapSense_debounce[widget];	
 602              		.loc 1 1136 0
 603 0016 5B5D     		ldrb	r3, [r3, r5]
 604              	.LVL50:
 605 0018 9846     		mov	r8, r3
 606              	.LVL51:
1137:.\Generated_Source\PSoC4/CapSense_CSHL.c **** 	
1138:.\Generated_Source\PSoC4/CapSense_CSHL.c **** 	    debounceIndex = widget;
1139:.\Generated_Source\PSoC4/CapSense_CSHL.c **** 
1140:.\Generated_Source\PSoC4/CapSense_CSHL.c **** 	
1141:.\Generated_Source\PSoC4/CapSense_CSHL.c ****     /* Was on */
1142:.\Generated_Source\PSoC4/CapSense_CSHL.c ****     if (0u != CapSense_GetBitValue(CapSense_sensorOnMask, sensor))
 607              		.loc 1 1142 0
 608 001a 2248     		ldr	r0, .L66+12
 609              	.LVL52:
 610 001c 4030     		add	r0, r0, #64
 611 001e 211C     		mov	r1, r4
 612 0020 FFF7FEFF 		bl	CapSense_GetBitValue
 613              	.LVL53:
 614 0024 0028     		cmp	r0, #0
 615 0026 10D0     		beq	.L61
1143:.\Generated_Source\PSoC4/CapSense_CSHL.c ****     {
1144:.\Generated_Source\PSoC4/CapSense_CSHL.c ****         /* Hysteresis minus */
1145:.\Generated_Source\PSoC4/CapSense_CSHL.c ****         if (CapSense_sensorSignal[sensor] < (fingerThreshold - hysteresis))
 616              		.loc 1 1145 0
 617 0028 1E4B     		ldr	r3, .L66+12
 618 002a 2433     		add	r3, r3, #36
ARM GAS  C:\Users\11401393\AppData\Local\Temp\ccv2tvsi.s 			page 32


 619 002c 1B5D     		ldrb	r3, [r3, r4]
 620 002e BE1B     		sub	r6, r7, r6
 621              	.LVL54:
 622 0030 B342     		cmp	r3, r6
 623 0032 23DA     		bge	.L62
1146:.\Generated_Source\PSoC4/CapSense_CSHL.c ****         {
1147:.\Generated_Source\PSoC4/CapSense_CSHL.c **** 	   		CapSense_SetBitValue(CapSense_sensorOnMask, sensor, 0u);
 624              		.loc 1 1147 0
 625 0034 1B4E     		ldr	r6, .L66+12
 626 0036 301C     		mov	r0, r6
 627 0038 4030     		add	r0, r0, #64
 628 003a 211C     		mov	r1, r4
 629 003c 0022     		mov	r2, #0
 630 003e FFF7FEFF 		bl	CapSense_SetBitValue
 631              	.LVL55:
1148:.\Generated_Source\PSoC4/CapSense_CSHL.c **** 			/* Sensor inactive - reset Debounce counter */
1149:.\Generated_Source\PSoC4/CapSense_CSHL.c ****             CapSense_debounceCounter[debounceIndex] = debounce;
 632              		.loc 1 1149 0
 633 0042 3036     		add	r6, r6, #48
 634 0044 4246     		mov	r2, r8
 635 0046 7255     		strb	r2, [r6, r5]
 636 0048 18E0     		b	.L62
 637              	.LVL56:
 638              	.L61:
1150:.\Generated_Source\PSoC4/CapSense_CSHL.c ****         }
1151:.\Generated_Source\PSoC4/CapSense_CSHL.c ****     }
1152:.\Generated_Source\PSoC4/CapSense_CSHL.c ****     else    /* Was off */
1153:.\Generated_Source\PSoC4/CapSense_CSHL.c ****     {
1154:.\Generated_Source\PSoC4/CapSense_CSHL.c ****         /* Hysteresis plus */
1155:.\Generated_Source\PSoC4/CapSense_CSHL.c ****         if (CapSense_sensorSignal[sensor] >= (fingerThreshold + hysteresis))
 639              		.loc 1 1155 0
 640 004a 164B     		ldr	r3, .L66+12
 641 004c 2433     		add	r3, r3, #36
 642 004e 1B5D     		ldrb	r3, [r3, r4]
 643 0050 BE19     		add	r6, r7, r6
 644              	.LVL57:
 645 0052 B342     		cmp	r3, r6
 646 0054 0EDB     		blt	.L63
1156:.\Generated_Source\PSoC4/CapSense_CSHL.c ****         {
1157:.\Generated_Source\PSoC4/CapSense_CSHL.c **** 			CapSense_debounceCounter[debounceIndex]--;
 647              		.loc 1 1157 0
 648 0056 134A     		ldr	r2, .L66+12
 649 0058 3032     		add	r2, r2, #48
 650 005a 535D     		ldrb	r3, [r2, r5]
 651 005c 013B     		sub	r3, r3, #1
 652 005e DBB2     		uxtb	r3, r3
 653 0060 5355     		strb	r3, [r2, r5]
1158:.\Generated_Source\PSoC4/CapSense_CSHL.c ****             /* Sensor active, decrement debounce counter */
1159:.\Generated_Source\PSoC4/CapSense_CSHL.c ****             if(CapSense_debounceCounter[debounceIndex] == 0u)
 654              		.loc 1 1159 0
 655 0062 002B     		cmp	r3, #0
 656 0064 0AD1     		bne	.L62
1160:.\Generated_Source\PSoC4/CapSense_CSHL.c ****             {
1161:.\Generated_Source\PSoC4/CapSense_CSHL.c ****                 CapSense_SetBitValue(CapSense_sensorOnMask, sensor, 1u); 
 657              		.loc 1 1161 0
 658 0066 0F48     		ldr	r0, .L66+12
 659 0068 4030     		add	r0, r0, #64
ARM GAS  C:\Users\11401393\AppData\Local\Temp\ccv2tvsi.s 			page 33


 660 006a 211C     		mov	r1, r4
 661 006c 0122     		mov	r2, #1
 662 006e FFF7FEFF 		bl	CapSense_SetBitValue
 663              	.LVL58:
 664 0072 03E0     		b	.L62
 665              	.L63:
1162:.\Generated_Source\PSoC4/CapSense_CSHL.c ****             }
1163:.\Generated_Source\PSoC4/CapSense_CSHL.c ****         }
1164:.\Generated_Source\PSoC4/CapSense_CSHL.c ****         else
1165:.\Generated_Source\PSoC4/CapSense_CSHL.c ****         {
1166:.\Generated_Source\PSoC4/CapSense_CSHL.c ****             /* Sensor inactive - reset Debounce counter */
1167:.\Generated_Source\PSoC4/CapSense_CSHL.c ****             CapSense_debounceCounter[debounceIndex] = debounce;
 666              		.loc 1 1167 0
 667 0074 0B4B     		ldr	r3, .L66+12
 668 0076 3033     		add	r3, r3, #48
 669 0078 4246     		mov	r2, r8
 670 007a 5A55     		strb	r2, [r3, r5]
 671              	.L62:
1168:.\Generated_Source\PSoC4/CapSense_CSHL.c ****         }
1169:.\Generated_Source\PSoC4/CapSense_CSHL.c ****     }
1170:.\Generated_Source\PSoC4/CapSense_CSHL.c ****     
1171:.\Generated_Source\PSoC4/CapSense_CSHL.c ****     return ((uint32)((0u != CapSense_GetBitValue(CapSense_sensorOnMask, sensor)) ? 1u : 0u));
 672              		.loc 1 1171 0
 673 007c 0948     		ldr	r0, .L66+12
 674 007e 4030     		add	r0, r0, #64
 675 0080 211C     		mov	r1, r4
 676 0082 FFF7FEFF 		bl	CapSense_GetBitValue
 677              	.LVL59:
 678 0086 0028     		cmp	r0, #0
 679 0088 01D0     		beq	.L65
 680 008a 0120     		mov	r0, #1
 681 008c 00E0     		b	.L64
 682              	.L65:
 683 008e 0020     		mov	r0, #0
 684              	.L64:
1172:.\Generated_Source\PSoC4/CapSense_CSHL.c **** }
 685              		.loc 1 1172 0 discriminator 3
 686              		@ sp needed
 687              	.LVL60:
 688              	.LVL61:
 689              	.LVL62:
 690 0090 04BC     		pop	{r2}
 691 0092 9046     		mov	r8, r2
 692 0094 F0BD     		pop	{r4, r5, r6, r7, pc}
 693              	.L67:
 694 0096 C046     		.align	2
 695              	.L66:
 696 0098 00000000 		.word	CapSense_widgetNumber
 697 009c 00000000 		.word	.LANCHOR1
 698 00a0 00000000 		.word	CapSense_hysteresis
 699 00a4 00000000 		.word	.LANCHOR0
 700              		.cfi_endproc
 701              	.LFE56:
 702              		.size	CapSense_CheckIsSensorActive, .-CapSense_CheckIsSensorActive
 703              		.section	.text.CapSense_CheckIsWidgetActive,"ax",%progbits
 704              		.align	2
 705              		.global	CapSense_CheckIsWidgetActive
ARM GAS  C:\Users\11401393\AppData\Local\Temp\ccv2tvsi.s 			page 34


 706              		.code	16
 707              		.thumb_func
 708              		.type	CapSense_CheckIsWidgetActive, %function
 709              	CapSense_CheckIsWidgetActive:
 710              	.LFB57:
1173:.\Generated_Source\PSoC4/CapSense_CSHL.c **** 
1174:.\Generated_Source\PSoC4/CapSense_CSHL.c **** 
1175:.\Generated_Source\PSoC4/CapSense_CSHL.c **** /*******************************************************************************
1176:.\Generated_Source\PSoC4/CapSense_CSHL.c **** * Function Name: CapSense_CheckIsWidgetActive
1177:.\Generated_Source\PSoC4/CapSense_CSHL.c **** ********************************************************************************
1178:.\Generated_Source\PSoC4/CapSense_CSHL.c **** *
1179:.\Generated_Source\PSoC4/CapSense_CSHL.c **** * Summary:
1180:.\Generated_Source\PSoC4/CapSense_CSHL.c **** *  Compares the CapSense_sensorSignal[] array element to the finger threshold of 
1181:.\Generated_Source\PSoC4/CapSense_CSHL.c **** * the widget it belongs to. The hysteresis and debounce are taken into account. 
1182:.\Generated_Source\PSoC4/CapSense_CSHL.c **** * The hysteresis is added or subtracted from the finger threshold based on whether
1183:.\Generated_Source\PSoC4/CapSense_CSHL.c **** *  the sensor is currently active. If the sensor is active, the threshold is 
1184:.\Generated_Source\PSoC4/CapSense_CSHL.c **** *  lowered by the hysteresis amount. If the sensor is inactive, the threshold 
1185:.\Generated_Source\PSoC4/CapSense_CSHL.c **** *  is raised by the hysteresis amount. 
1186:.\Generated_Source\PSoC4/CapSense_CSHL.c **** * The debounce counter added to the sensor active transition. 
1187:.\Generated_Source\PSoC4/CapSense_CSHL.c **** * This function updates CapSense_sensorOnMask[] array element
1188:.\Generated_Source\PSoC4/CapSense_CSHL.c **** *
1189:.\Generated_Source\PSoC4/CapSense_CSHL.c **** * Parameters:
1190:.\Generated_Source\PSoC4/CapSense_CSHL.c **** *  widget:  widget number.
1191:.\Generated_Source\PSoC4/CapSense_CSHL.c **** *
1192:.\Generated_Source\PSoC4/CapSense_CSHL.c **** * Return:
1193:.\Generated_Source\PSoC4/CapSense_CSHL.c **** *  Returns widget sensor state 1 if one or more sensors within widget is/are 
1194:.\Generated_Source\PSoC4/CapSense_CSHL.c **** *  active, 0 if all sensors within widget are inactive.
1195:.\Generated_Source\PSoC4/CapSense_CSHL.c **** *
1196:.\Generated_Source\PSoC4/CapSense_CSHL.c **** * Global Variables:
1197:.\Generated_Source\PSoC4/CapSense_CSHL.c **** *  rawDataIndex[]: Contains the  1st sensor position in the widget
1198:.\Generated_Source\PSoC4/CapSense_CSHL.c **** * 
1199:.\Generated_Source\PSoC4/CapSense_CSHL.c **** * Side Effects:
1200:.\Generated_Source\PSoC4/CapSense_CSHL.c **** *  None
1201:.\Generated_Source\PSoC4/CapSense_CSHL.c **** *
1202:.\Generated_Source\PSoC4/CapSense_CSHL.c **** *******************************************************************************/
1203:.\Generated_Source\PSoC4/CapSense_CSHL.c **** uint32 CapSense_CheckIsWidgetActive(uint32 widget)
1204:.\Generated_Source\PSoC4/CapSense_CSHL.c **** {
 711              		.loc 1 1204 0
 712              		.cfi_startproc
 713              	.LVL63:
 714 0000 F8B5     		push	{r3, r4, r5, r6, r7, lr}
 715              		.cfi_def_cfa_offset 24
 716              		.cfi_offset 3, -24
 717              		.cfi_offset 4, -20
 718              		.cfi_offset 5, -16
 719              		.cfi_offset 6, -12
 720              		.cfi_offset 7, -8
 721              		.cfi_offset 14, -4
1205:.\Generated_Source\PSoC4/CapSense_CSHL.c ****     uint32 rawIndex = (uint32)CapSense_rawDataIndex[widget];
 722              		.loc 1 1205 0
 723 0002 094B     		ldr	r3, .L73
 724 0004 1C5C     		ldrb	r4, [r3, r0]
 725              	.LVL64:
1206:.\Generated_Source\PSoC4/CapSense_CSHL.c ****     uint32 numOfSensors = (uint32)CapSense_numberOfSensors[widget] + rawIndex;
 726              		.loc 1 1206 0
 727 0006 1818     		add	r0, r3, r0
 728              	.LVL65:
ARM GAS  C:\Users\11401393\AppData\Local\Temp\ccv2tvsi.s 			page 35


 729 0008 057B     		ldrb	r5, [r0, #12]
 730 000a 2D19     		add	r5, r5, r4
 731              	.LVL66:
1207:.\Generated_Source\PSoC4/CapSense_CSHL.c ****     uint32 state = 0u;
 732              		.loc 1 1207 0
 733 000c 0026     		mov	r6, #0
1208:.\Generated_Source\PSoC4/CapSense_CSHL.c **** 
1209:.\Generated_Source\PSoC4/CapSense_CSHL.c ****     /* Check all sensors of widget */
1210:.\Generated_Source\PSoC4/CapSense_CSHL.c ****     do
1211:.\Generated_Source\PSoC4/CapSense_CSHL.c ****     {
1212:.\Generated_Source\PSoC4/CapSense_CSHL.c ****         if(CapSense_CheckIsSensorActive((uint32)rawIndex) != 0u)
1213:.\Generated_Source\PSoC4/CapSense_CSHL.c ****         {
1214:.\Generated_Source\PSoC4/CapSense_CSHL.c ****             state = CapSense_SENSOR_IS_ACTIVE;
 734              		.loc 1 1214 0
 735 000e 0127     		mov	r7, #1
 736              	.LVL67:
 737              	.L70:
1212:.\Generated_Source\PSoC4/CapSense_CSHL.c ****         if(CapSense_CheckIsSensorActive((uint32)rawIndex) != 0u)
 738              		.loc 1 1212 0
 739 0010 201C     		mov	r0, r4
 740 0012 FFF7FEFF 		bl	CapSense_CheckIsSensorActive
 741              	.LVL68:
 742 0016 0028     		cmp	r0, #0
 743 0018 00D0     		beq	.L69
 744              		.loc 1 1214 0
 745 001a 3E1C     		mov	r6, r7
 746              	.LVL69:
 747              	.L69:
1215:.\Generated_Source\PSoC4/CapSense_CSHL.c ****         }
1216:.\Generated_Source\PSoC4/CapSense_CSHL.c ****         rawIndex++;
 748              		.loc 1 1216 0
 749 001c 0134     		add	r4, r4, #1
 750              	.LVL70:
1217:.\Generated_Source\PSoC4/CapSense_CSHL.c ****     }
1218:.\Generated_Source\PSoC4/CapSense_CSHL.c ****     while(rawIndex < numOfSensors);
 751              		.loc 1 1218 0
 752 001e AC42     		cmp	r4, r5
 753 0020 F6D3     		bcc	.L70
1219:.\Generated_Source\PSoC4/CapSense_CSHL.c ****     
1220:.\Generated_Source\PSoC4/CapSense_CSHL.c **** 
1221:.\Generated_Source\PSoC4/CapSense_CSHL.c ****     
1222:.\Generated_Source\PSoC4/CapSense_CSHL.c ****     return state;
1223:.\Generated_Source\PSoC4/CapSense_CSHL.c **** }
 754              		.loc 1 1223 0
 755 0022 301C     		mov	r0, r6
 756              		@ sp needed
 757              	.LVL71:
 758              	.LVL72:
 759              	.LVL73:
 760 0024 F8BD     		pop	{r3, r4, r5, r6, r7, pc}
 761              	.L74:
 762 0026 C046     		.align	2
 763              	.L73:
 764 0028 00000000 		.word	.LANCHOR2
 765              		.cfi_endproc
 766              	.LFE57:
 767              		.size	CapSense_CheckIsWidgetActive, .-CapSense_CheckIsWidgetActive
ARM GAS  C:\Users\11401393\AppData\Local\Temp\ccv2tvsi.s 			page 36


 768              		.section	.text.CapSense_CheckIsAnyWidgetActive,"ax",%progbits
 769              		.align	2
 770              		.global	CapSense_CheckIsAnyWidgetActive
 771              		.code	16
 772              		.thumb_func
 773              		.type	CapSense_CheckIsAnyWidgetActive, %function
 774              	CapSense_CheckIsAnyWidgetActive:
 775              	.LFB58:
1224:.\Generated_Source\PSoC4/CapSense_CSHL.c **** 
1225:.\Generated_Source\PSoC4/CapSense_CSHL.c **** 
1226:.\Generated_Source\PSoC4/CapSense_CSHL.c **** /*******************************************************************************
1227:.\Generated_Source\PSoC4/CapSense_CSHL.c **** * Function Name: CapSense_CheckIsAnyWidgetActive
1228:.\Generated_Source\PSoC4/CapSense_CSHL.c **** ********************************************************************************
1229:.\Generated_Source\PSoC4/CapSense_CSHL.c **** *
1230:.\Generated_Source\PSoC4/CapSense_CSHL.c **** * Summary:
1231:.\Generated_Source\PSoC4/CapSense_CSHL.c **** *  Compares all the sensors of the CapSense_Signal[] array to their finger 
1232:.\Generated_Source\PSoC4/CapSense_CSHL.c **** *  threshold. Calls CapSense_CheckIsWidgetActive() for each widget so 
1233:.\Generated_Source\PSoC4/CapSense_CSHL.c **** *  the CapSense_sensorOnMask[] array is up to date after calling this 
1234:.\Generated_Source\PSoC4/CapSense_CSHL.c **** *  function.
1235:.\Generated_Source\PSoC4/CapSense_CSHL.c **** *
1236:.\Generated_Source\PSoC4/CapSense_CSHL.c **** * Parameters:
1237:.\Generated_Source\PSoC4/CapSense_CSHL.c **** *  widget:  widget number.
1238:.\Generated_Source\PSoC4/CapSense_CSHL.c **** *
1239:.\Generated_Source\PSoC4/CapSense_CSHL.c **** * Return:
1240:.\Generated_Source\PSoC4/CapSense_CSHL.c **** *  Returns 1 if any widget is active, 0 none of widgets are active.
1241:.\Generated_Source\PSoC4/CapSense_CSHL.c **** *
1242:.\Generated_Source\PSoC4/CapSense_CSHL.c **** * Global Variables:
1243:.\Generated_Source\PSoC4/CapSense_CSHL.c **** *  None
1244:.\Generated_Source\PSoC4/CapSense_CSHL.c **** * 
1245:.\Generated_Source\PSoC4/CapSense_CSHL.c **** * Side Effects:
1246:.\Generated_Source\PSoC4/CapSense_CSHL.c **** *  None
1247:.\Generated_Source\PSoC4/CapSense_CSHL.c **** *
1248:.\Generated_Source\PSoC4/CapSense_CSHL.c **** *******************************************************************************/
1249:.\Generated_Source\PSoC4/CapSense_CSHL.c **** uint32 CapSense_CheckIsAnyWidgetActive(void)
1250:.\Generated_Source\PSoC4/CapSense_CSHL.c **** {
 776              		.loc 1 1250 0
 777              		.cfi_startproc
 778 0000 70B5     		push	{r4, r5, r6, lr}
 779              		.cfi_def_cfa_offset 16
 780              		.cfi_offset 4, -16
 781              		.cfi_offset 5, -12
 782              		.cfi_offset 6, -8
 783              		.cfi_offset 14, -4
 784              	.LVL74:
1251:.\Generated_Source\PSoC4/CapSense_CSHL.c **** 
1252:.\Generated_Source\PSoC4/CapSense_CSHL.c **** 	    uint32 i;
1253:.\Generated_Source\PSoC4/CapSense_CSHL.c ****     uint32 state = 0u;
 785              		.loc 1 1253 0
 786 0002 0025     		mov	r5, #0
1254:.\Generated_Source\PSoC4/CapSense_CSHL.c ****     
1255:.\Generated_Source\PSoC4/CapSense_CSHL.c ****     for(i = 0u; i < CapSense_TOTAL_WIDGET_COUNT; i++)
 787              		.loc 1 1255 0
 788 0004 0024     		mov	r4, #0
1256:.\Generated_Source\PSoC4/CapSense_CSHL.c ****     {
1257:.\Generated_Source\PSoC4/CapSense_CSHL.c ****         if (CapSense_CheckIsWidgetActive(i) != 0u)
1258:.\Generated_Source\PSoC4/CapSense_CSHL.c ****         {
1259:.\Generated_Source\PSoC4/CapSense_CSHL.c ****             state = CapSense_WIDGET_IS_ACTIVE;
ARM GAS  C:\Users\11401393\AppData\Local\Temp\ccv2tvsi.s 			page 37


 789              		.loc 1 1259 0
 790 0006 0126     		mov	r6, #1
1255:.\Generated_Source\PSoC4/CapSense_CSHL.c ****     for(i = 0u; i < CapSense_TOTAL_WIDGET_COUNT; i++)
 791              		.loc 1 1255 0
 792 0008 06E0     		b	.L76
 793              	.LVL75:
 794              	.L78:
1257:.\Generated_Source\PSoC4/CapSense_CSHL.c ****         if (CapSense_CheckIsWidgetActive(i) != 0u)
 795              		.loc 1 1257 0
 796 000a 201C     		mov	r0, r4
 797 000c FFF7FEFF 		bl	CapSense_CheckIsWidgetActive
 798              	.LVL76:
 799 0010 0028     		cmp	r0, #0
 800 0012 00D0     		beq	.L77
 801              		.loc 1 1259 0
 802 0014 351C     		mov	r5, r6
 803              	.LVL77:
 804              	.L77:
1255:.\Generated_Source\PSoC4/CapSense_CSHL.c ****     for(i = 0u; i < CapSense_TOTAL_WIDGET_COUNT; i++)
 805              		.loc 1 1255 0
 806 0016 0134     		add	r4, r4, #1
 807              	.LVL78:
 808              	.L76:
1255:.\Generated_Source\PSoC4/CapSense_CSHL.c ****     for(i = 0u; i < CapSense_TOTAL_WIDGET_COUNT; i++)
 809              		.loc 1 1255 0 is_stmt 0 discriminator 1
 810 0018 0B2C     		cmp	r4, #11
 811 001a F6D9     		bls	.L78
1260:.\Generated_Source\PSoC4/CapSense_CSHL.c ****         }
1261:.\Generated_Source\PSoC4/CapSense_CSHL.c ****     }
1262:.\Generated_Source\PSoC4/CapSense_CSHL.c ****     
1263:.\Generated_Source\PSoC4/CapSense_CSHL.c **** 
1264:.\Generated_Source\PSoC4/CapSense_CSHL.c **** 
1265:.\Generated_Source\PSoC4/CapSense_CSHL.c ****     return state;
1266:.\Generated_Source\PSoC4/CapSense_CSHL.c **** }
 812              		.loc 1 1266 0 is_stmt 1
 813 001c 281C     		mov	r0, r5
 814              		@ sp needed
 815              	.LVL79:
 816              	.LVL80:
 817 001e 70BD     		pop	{r4, r5, r6, pc}
 818              		.cfi_endproc
 819              	.LFE58:
 820              		.size	CapSense_CheckIsAnyWidgetActive, .-CapSense_CheckIsAnyWidgetActive
 821              		.section	.text.CapSense_EnableWidget,"ax",%progbits
 822              		.align	2
 823              		.global	CapSense_EnableWidget
 824              		.code	16
 825              		.thumb_func
 826              		.type	CapSense_EnableWidget, %function
 827              	CapSense_EnableWidget:
 828              	.LFB59:
1267:.\Generated_Source\PSoC4/CapSense_CSHL.c **** 
1268:.\Generated_Source\PSoC4/CapSense_CSHL.c **** 
1269:.\Generated_Source\PSoC4/CapSense_CSHL.c **** /*******************************************************************************
1270:.\Generated_Source\PSoC4/CapSense_CSHL.c **** * Function Name: CapSense_EnableWidget
1271:.\Generated_Source\PSoC4/CapSense_CSHL.c **** ********************************************************************************
1272:.\Generated_Source\PSoC4/CapSense_CSHL.c **** *
ARM GAS  C:\Users\11401393\AppData\Local\Temp\ccv2tvsi.s 			page 38


1273:.\Generated_Source\PSoC4/CapSense_CSHL.c **** * Summary:
1274:.\Generated_Source\PSoC4/CapSense_CSHL.c **** *  Enables all the widget elements (sensors) to the scanning process.
1275:.\Generated_Source\PSoC4/CapSense_CSHL.c **** *
1276:.\Generated_Source\PSoC4/CapSense_CSHL.c **** * Parameters:
1277:.\Generated_Source\PSoC4/CapSense_CSHL.c **** *  widget:  widget number.
1278:.\Generated_Source\PSoC4/CapSense_CSHL.c **** *
1279:.\Generated_Source\PSoC4/CapSense_CSHL.c **** * Return:
1280:.\Generated_Source\PSoC4/CapSense_CSHL.c **** *  None
1281:.\Generated_Source\PSoC4/CapSense_CSHL.c **** *
1282:.\Generated_Source\PSoC4/CapSense_CSHL.c **** * Global Variables:
1283:.\Generated_Source\PSoC4/CapSense_CSHL.c **** *  CapSense_sensorEnableMask[] - used to store the sensor scanning 
1284:.\Generated_Source\PSoC4/CapSense_CSHL.c **** *  state.
1285:.\Generated_Source\PSoC4/CapSense_CSHL.c **** *  CapSense_sensorEnableMask[0] contains the masked bits for sensors 
1286:.\Generated_Source\PSoC4/CapSense_CSHL.c **** *  0 through 7 (sensor 0 is bit 0, sensor 1 is bit 1).
1287:.\Generated_Source\PSoC4/CapSense_CSHL.c **** *  CapSense_sensorEnableMask[1] contains the masked bits for 
1288:.\Generated_Source\PSoC4/CapSense_CSHL.c **** *  sensors 8 through 15 (if needed), and so on.
1289:.\Generated_Source\PSoC4/CapSense_CSHL.c **** *  0 - sensor doesn't scan by CapSense_ScanEnabledWidgets().
1290:.\Generated_Source\PSoC4/CapSense_CSHL.c **** *  1 - sensor scans by CapSense_ScanEnabledWidgets().
1291:.\Generated_Source\PSoC4/CapSense_CSHL.c **** * 
1292:.\Generated_Source\PSoC4/CapSense_CSHL.c **** * Side Effects:
1293:.\Generated_Source\PSoC4/CapSense_CSHL.c **** *  None
1294:.\Generated_Source\PSoC4/CapSense_CSHL.c **** *
1295:.\Generated_Source\PSoC4/CapSense_CSHL.c **** *******************************************************************************/
1296:.\Generated_Source\PSoC4/CapSense_CSHL.c **** void CapSense_EnableWidget(uint32 widget)
1297:.\Generated_Source\PSoC4/CapSense_CSHL.c **** {
 829              		.loc 1 1297 0
 830              		.cfi_startproc
 831              	.LVL81:
 832 0000 70B5     		push	{r4, r5, r6, lr}
 833              		.cfi_def_cfa_offset 16
 834              		.cfi_offset 4, -16
 835              		.cfi_offset 5, -12
 836              		.cfi_offset 6, -8
 837              		.cfi_offset 14, -4
1298:.\Generated_Source\PSoC4/CapSense_CSHL.c **** 
1299:.\Generated_Source\PSoC4/CapSense_CSHL.c ****     uint8 rawIndex = CapSense_rawDataIndex[widget];
 838              		.loc 1 1299 0
 839 0002 084B     		ldr	r3, .L83
 840 0004 1C5C     		ldrb	r4, [r3, r0]
 841              	.LVL82:
1300:.\Generated_Source\PSoC4/CapSense_CSHL.c ****     uint8 numOfSensors = CapSense_numberOfSensors[widget] + rawIndex;
 842              		.loc 1 1300 0
 843 0006 1818     		add	r0, r3, r0
 844              	.LVL83:
 845 0008 067B     		ldrb	r6, [r0, #12]
 846 000a 3619     		add	r6, r6, r4
 847 000c F6B2     		uxtb	r6, r6
 848              	.LVL84:
1301:.\Generated_Source\PSoC4/CapSense_CSHL.c ****     
1302:.\Generated_Source\PSoC4/CapSense_CSHL.c ****     /* Enable all sensors of widget */
1303:.\Generated_Source\PSoC4/CapSense_CSHL.c ****     do
1304:.\Generated_Source\PSoC4/CapSense_CSHL.c ****     {
1305:.\Generated_Source\PSoC4/CapSense_CSHL.c ****         CapSense_SetBitValue(CapSense_sensorEnableMask, (uint32)rawIndex, 1u);
 849              		.loc 1 1305 0
 850 000e 064D     		ldr	r5, .L83+4
 851              	.LVL85:
 852              	.L81:
ARM GAS  C:\Users\11401393\AppData\Local\Temp\ccv2tvsi.s 			page 39


 853              		.loc 1 1305 0 is_stmt 0 discriminator 1
 854 0010 281C     		mov	r0, r5
 855 0012 211C     		mov	r1, r4
 856 0014 0122     		mov	r2, #1
 857 0016 FFF7FEFF 		bl	CapSense_SetBitValue
 858              	.LVL86:
1306:.\Generated_Source\PSoC4/CapSense_CSHL.c ****         rawIndex++;
 859              		.loc 1 1306 0 is_stmt 1 discriminator 1
 860 001a 0134     		add	r4, r4, #1
 861              	.LVL87:
 862 001c E4B2     		uxtb	r4, r4
 863              	.LVL88:
1307:.\Generated_Source\PSoC4/CapSense_CSHL.c ****     }
1308:.\Generated_Source\PSoC4/CapSense_CSHL.c ****     while(rawIndex < numOfSensors);
 864              		.loc 1 1308 0 discriminator 1
 865 001e B442     		cmp	r4, r6
 866 0020 F6D3     		bcc	.L81
1309:.\Generated_Source\PSoC4/CapSense_CSHL.c **** }
 867              		.loc 1 1309 0
 868              		@ sp needed
 869              	.LVL89:
 870              	.LVL90:
 871 0022 70BD     		pop	{r4, r5, r6, pc}
 872              	.L84:
 873              		.align	2
 874              	.L83:
 875 0024 00000000 		.word	.LANCHOR2
 876 0028 00000000 		.word	CapSense_sensorEnableMask
 877              		.cfi_endproc
 878              	.LFE59:
 879              		.size	CapSense_EnableWidget, .-CapSense_EnableWidget
 880              		.section	.text.CapSense_DisableWidget,"ax",%progbits
 881              		.align	2
 882              		.global	CapSense_DisableWidget
 883              		.code	16
 884              		.thumb_func
 885              		.type	CapSense_DisableWidget, %function
 886              	CapSense_DisableWidget:
 887              	.LFB60:
1310:.\Generated_Source\PSoC4/CapSense_CSHL.c **** 
1311:.\Generated_Source\PSoC4/CapSense_CSHL.c **** 
1312:.\Generated_Source\PSoC4/CapSense_CSHL.c **** /*******************************************************************************
1313:.\Generated_Source\PSoC4/CapSense_CSHL.c **** * Function Name: CapSense_DisableWidget
1314:.\Generated_Source\PSoC4/CapSense_CSHL.c **** ********************************************************************************
1315:.\Generated_Source\PSoC4/CapSense_CSHL.c **** *
1316:.\Generated_Source\PSoC4/CapSense_CSHL.c **** * Summary:
1317:.\Generated_Source\PSoC4/CapSense_CSHL.c **** *  Disables all the widget elements (sensors) from the scanning process.
1318:.\Generated_Source\PSoC4/CapSense_CSHL.c **** *
1319:.\Generated_Source\PSoC4/CapSense_CSHL.c **** * Parameters:
1320:.\Generated_Source\PSoC4/CapSense_CSHL.c **** *  widget:  widget number.
1321:.\Generated_Source\PSoC4/CapSense_CSHL.c **** *
1322:.\Generated_Source\PSoC4/CapSense_CSHL.c **** * Return:
1323:.\Generated_Source\PSoC4/CapSense_CSHL.c **** *  None
1324:.\Generated_Source\PSoC4/CapSense_CSHL.c **** *
1325:.\Generated_Source\PSoC4/CapSense_CSHL.c **** * Global Variables:
1326:.\Generated_Source\PSoC4/CapSense_CSHL.c **** *  CapSense_sensorEnableMask[] - used to store the sensor scanning 
1327:.\Generated_Source\PSoC4/CapSense_CSHL.c **** *  state.
ARM GAS  C:\Users\11401393\AppData\Local\Temp\ccv2tvsi.s 			page 40


1328:.\Generated_Source\PSoC4/CapSense_CSHL.c **** *  CapSense_sensorEnableMask[0] contains the masked bits for sensors 
1329:.\Generated_Source\PSoC4/CapSense_CSHL.c **** *  0 through 7 (sensor 0 is bit 0, sensor 1 is bit 1).
1330:.\Generated_Source\PSoC4/CapSense_CSHL.c **** *  CapSense_sensorEnableMask[1] contains the masked bits for 
1331:.\Generated_Source\PSoC4/CapSense_CSHL.c **** *  sensors 8 through 15 (if needed), and so on.
1332:.\Generated_Source\PSoC4/CapSense_CSHL.c **** *  0 - sensor isn't scanned by CapSense_ScanEnabledWidgets().
1333:.\Generated_Source\PSoC4/CapSense_CSHL.c **** *  1 - sensor is scanned by CapSense_ScanEnabledWidgets().
1334:.\Generated_Source\PSoC4/CapSense_CSHL.c **** * 
1335:.\Generated_Source\PSoC4/CapSense_CSHL.c **** * Side Effects:
1336:.\Generated_Source\PSoC4/CapSense_CSHL.c **** *  None
1337:.\Generated_Source\PSoC4/CapSense_CSHL.c **** *
1338:.\Generated_Source\PSoC4/CapSense_CSHL.c **** *******************************************************************************/
1339:.\Generated_Source\PSoC4/CapSense_CSHL.c **** void CapSense_DisableWidget(uint32 widget)
1340:.\Generated_Source\PSoC4/CapSense_CSHL.c **** {
 888              		.loc 1 1340 0
 889              		.cfi_startproc
 890              	.LVL91:
 891 0000 70B5     		push	{r4, r5, r6, lr}
 892              		.cfi_def_cfa_offset 16
 893              		.cfi_offset 4, -16
 894              		.cfi_offset 5, -12
 895              		.cfi_offset 6, -8
 896              		.cfi_offset 14, -4
1341:.\Generated_Source\PSoC4/CapSense_CSHL.c ****     uint8 rawIndex = CapSense_rawDataIndex[widget];
 897              		.loc 1 1341 0
 898 0002 084B     		ldr	r3, .L88
 899 0004 1C5C     		ldrb	r4, [r3, r0]
 900              	.LVL92:
1342:.\Generated_Source\PSoC4/CapSense_CSHL.c ****     uint8 numOfSensors = CapSense_numberOfSensors[widget] + rawIndex;
 901              		.loc 1 1342 0
 902 0006 1818     		add	r0, r3, r0
 903              	.LVL93:
 904 0008 067B     		ldrb	r6, [r0, #12]
 905 000a 3619     		add	r6, r6, r4
 906 000c F6B2     		uxtb	r6, r6
 907              	.LVL94:
1343:.\Generated_Source\PSoC4/CapSense_CSHL.c ****    
1344:.\Generated_Source\PSoC4/CapSense_CSHL.c ****     /* Disable all sensors of widget */
1345:.\Generated_Source\PSoC4/CapSense_CSHL.c ****     do
1346:.\Generated_Source\PSoC4/CapSense_CSHL.c ****     {
1347:.\Generated_Source\PSoC4/CapSense_CSHL.c **** 
1348:.\Generated_Source\PSoC4/CapSense_CSHL.c ****         CapSense_SetBitValue(CapSense_sensorEnableMask, (uint32)rawIndex, 0u);
 908              		.loc 1 1348 0
 909 000e 064D     		ldr	r5, .L88+4
 910              	.LVL95:
 911              	.L86:
 912              		.loc 1 1348 0 is_stmt 0 discriminator 1
 913 0010 281C     		mov	r0, r5
 914 0012 211C     		mov	r1, r4
 915 0014 0022     		mov	r2, #0
 916 0016 FFF7FEFF 		bl	CapSense_SetBitValue
 917              	.LVL96:
1349:.\Generated_Source\PSoC4/CapSense_CSHL.c ****         rawIndex++;
 918              		.loc 1 1349 0 is_stmt 1 discriminator 1
 919 001a 0134     		add	r4, r4, #1
 920              	.LVL97:
 921 001c E4B2     		uxtb	r4, r4
 922              	.LVL98:
ARM GAS  C:\Users\11401393\AppData\Local\Temp\ccv2tvsi.s 			page 41


1350:.\Generated_Source\PSoC4/CapSense_CSHL.c ****     }
1351:.\Generated_Source\PSoC4/CapSense_CSHL.c ****     while(rawIndex < numOfSensors);
 923              		.loc 1 1351 0 discriminator 1
 924 001e B442     		cmp	r4, r6
 925 0020 F6D3     		bcc	.L86
1352:.\Generated_Source\PSoC4/CapSense_CSHL.c **** }
 926              		.loc 1 1352 0
 927              		@ sp needed
 928              	.LVL99:
 929              	.LVL100:
 930 0022 70BD     		pop	{r4, r5, r6, pc}
 931              	.L89:
 932              		.align	2
 933              	.L88:
 934 0024 00000000 		.word	.LANCHOR2
 935 0028 00000000 		.word	CapSense_sensorEnableMask
 936              		.cfi_endproc
 937              	.LFE60:
 938              		.size	CapSense_DisableWidget, .-CapSense_DisableWidget
 939              		.section	.text.CapSense_MedianFilter,"ax",%progbits
 940              		.align	2
 941              		.global	CapSense_MedianFilter
 942              		.code	16
 943              		.thumb_func
 944              		.type	CapSense_MedianFilter, %function
 945              	CapSense_MedianFilter:
 946              	.LFB61:
1353:.\Generated_Source\PSoC4/CapSense_CSHL.c **** 
1354:.\Generated_Source\PSoC4/CapSense_CSHL.c **** 
1355:.\Generated_Source\PSoC4/CapSense_CSHL.c **** #if(CapSense_TOTAL_CENTROIDS_BASIC_COUNT)
1356:.\Generated_Source\PSoC4/CapSense_CSHL.c ****     /*******************************************************************************
1357:.\Generated_Source\PSoC4/CapSense_CSHL.c ****     * Function Name: CapSense_FindMaximum
1358:.\Generated_Source\PSoC4/CapSense_CSHL.c ****     ********************************************************************************
1359:.\Generated_Source\PSoC4/CapSense_CSHL.c ****     *
1360:.\Generated_Source\PSoC4/CapSense_CSHL.c ****     * Summary:
1361:.\Generated_Source\PSoC4/CapSense_CSHL.c ****     *  Finds the index of the maximum element within a defined centroid. Checks 
1362:.\Generated_Source\PSoC4/CapSense_CSHL.c ****     *  CapSense_sensorSignal[] within a defined centroid and 
1363:.\Generated_Source\PSoC4/CapSense_CSHL.c ****     *  returns the index of the maximum element. The values below the finger threshold are 
1364:.\Generated_Source\PSoC4/CapSense_CSHL.c ****     *  ignored.
1365:.\Generated_Source\PSoC4/CapSense_CSHL.c ****     *  The centroid is defined by offset of the first element and a number of elements - count.
1366:.\Generated_Source\PSoC4/CapSense_CSHL.c ****     *  The diplexed centroid requires at least two consecutive elements above
1367:.\Generated_Source\PSoC4/CapSense_CSHL.c ****     *  FingerThreshold to find the index of the maximum element.
1368:.\Generated_Source\PSoC4/CapSense_CSHL.c ****     * 
1369:.\Generated_Source\PSoC4/CapSense_CSHL.c ****     * Parameters:
1370:.\Generated_Source\PSoC4/CapSense_CSHL.c ****     *  offset:  Start index of centroid in CapSense_sensorSignal[] array.
1371:.\Generated_Source\PSoC4/CapSense_CSHL.c ****     *  count:   number of elements within centroid.
1372:.\Generated_Source\PSoC4/CapSense_CSHL.c ****     *  fingerThreshold:  Finger threshold.
1373:.\Generated_Source\PSoC4/CapSense_CSHL.c ****     *  diplex:   pointer to diplex table.
1374:.\Generated_Source\PSoC4/CapSense_CSHL.c ****     * 
1375:.\Generated_Source\PSoC4/CapSense_CSHL.c ****     * Return:
1376:.\Generated_Source\PSoC4/CapSense_CSHL.c ****     *  Returns the index of the maximum element within a defined centroid.
1377:.\Generated_Source\PSoC4/CapSense_CSHL.c ****     *  If the index of the maximum element isn't found it returns 0xFF.
1378:.\Generated_Source\PSoC4/CapSense_CSHL.c **** 	*
1379:.\Generated_Source\PSoC4/CapSense_CSHL.c **** 	* Global Variables:
1380:.\Generated_Source\PSoC4/CapSense_CSHL.c **** 	*  CapSense_startOfSlider[] - contains the index of the first slider element
1381:.\Generated_Source\PSoC4/CapSense_CSHL.c **** 	* 
1382:.\Generated_Source\PSoC4/CapSense_CSHL.c **** 	* Side Effects: 
ARM GAS  C:\Users\11401393\AppData\Local\Temp\ccv2tvsi.s 			page 42


1383:.\Generated_Source\PSoC4/CapSense_CSHL.c **** 	*  None
1384:.\Generated_Source\PSoC4/CapSense_CSHL.c **** 	* 
1385:.\Generated_Source\PSoC4/CapSense_CSHL.c ****     *******************************************************************************/
1386:.\Generated_Source\PSoC4/CapSense_CSHL.c **** 	#if (CapSense_IS_DIPLEX_SLIDER)
1387:.\Generated_Source\PSoC4/CapSense_CSHL.c **** 		uint8 CapSense_FindMaximum(uint8 offset, uint8 count, uint8 fingerThreshold, const uint8 *diplex)
1388:.\Generated_Source\PSoC4/CapSense_CSHL.c **** 	#else 
1389:.\Generated_Source\PSoC4/CapSense_CSHL.c **** 		uint8 CapSense_FindMaximum(uint8 offset, uint8 count, uint8 fingerThreshold)
1390:.\Generated_Source\PSoC4/CapSense_CSHL.c **** 	#endif /* (CapSense_IS_DIPLEX_SLIDER) */
1391:.\Generated_Source\PSoC4/CapSense_CSHL.c ****     {
1392:.\Generated_Source\PSoC4/CapSense_CSHL.c ****         uint8 i;
1393:.\Generated_Source\PSoC4/CapSense_CSHL.c ****         #if (CapSense_IS_DIPLEX_SLIDER)        
1394:.\Generated_Source\PSoC4/CapSense_CSHL.c ****             uint8 curPos = 0u;
1395:.\Generated_Source\PSoC4/CapSense_CSHL.c ****             /* No centroid at Start */
1396:.\Generated_Source\PSoC4/CapSense_CSHL.c ****             uint8 curCntrdSize = 0u;
1397:.\Generated_Source\PSoC4/CapSense_CSHL.c ****             uint8 curCtrdStartPos = CapSense_MAXIMUM_CENTROID;
1398:.\Generated_Source\PSoC4/CapSense_CSHL.c ****             /* Biggest centroid is zero */
1399:.\Generated_Source\PSoC4/CapSense_CSHL.c ****             uint8 biggestCtrdSize = 0u;
1400:.\Generated_Source\PSoC4/CapSense_CSHL.c ****             uint8 biggestCtrdStartPos = 0u;
1401:.\Generated_Source\PSoC4/CapSense_CSHL.c ****         #endif /* (CapSense_IS_DIPLEX_SLIDER) */
1402:.\Generated_Source\PSoC4/CapSense_CSHL.c ****         uint8 maximum = CapSense_MAXIMUM_CENTROID;
1403:.\Generated_Source\PSoC4/CapSense_CSHL.c **** 		
1404:.\Generated_Source\PSoC4/CapSense_CSHL.c ****         uint8 temp = 0u;
1405:.\Generated_Source\PSoC4/CapSense_CSHL.c ****         uint8 *startOfSlider = &CapSense_sensorSignal[offset];
1406:.\Generated_Source\PSoC4/CapSense_CSHL.c **** 
1407:.\Generated_Source\PSoC4/CapSense_CSHL.c ****         #if (CapSense_IS_DIPLEX_SLIDER)        
1408:.\Generated_Source\PSoC4/CapSense_CSHL.c ****             if(diplex != 0u)
1409:.\Generated_Source\PSoC4/CapSense_CSHL.c ****             {
1410:.\Generated_Source\PSoC4/CapSense_CSHL.c ****                 /* Initialize */
1411:.\Generated_Source\PSoC4/CapSense_CSHL.c ****                 i = 0u;
1412:.\Generated_Source\PSoC4/CapSense_CSHL.c ****                 
1413:.\Generated_Source\PSoC4/CapSense_CSHL.c ****                 /* Make slider x2 as Diplexed */
1414:.\Generated_Source\PSoC4/CapSense_CSHL.c ****                 count <<= 1u;
1415:.\Generated_Source\PSoC4/CapSense_CSHL.c ****                 while(1u)
1416:.\Generated_Source\PSoC4/CapSense_CSHL.c ****                 { 
1417:.\Generated_Source\PSoC4/CapSense_CSHL.c ****                     if (startOfSlider[curPos] > 0u)    /* Looking for centroids */
1418:.\Generated_Source\PSoC4/CapSense_CSHL.c ****                     {
1419:.\Generated_Source\PSoC4/CapSense_CSHL.c ****                         if (curCtrdStartPos == CapSense_MAXIMUM_CENTROID)
1420:.\Generated_Source\PSoC4/CapSense_CSHL.c ****                         {
1421:.\Generated_Source\PSoC4/CapSense_CSHL.c ****                             /* Start of centroid */
1422:.\Generated_Source\PSoC4/CapSense_CSHL.c ****                             curCtrdStartPos = i;
1423:.\Generated_Source\PSoC4/CapSense_CSHL.c ****                             curCntrdSize++;
1424:.\Generated_Source\PSoC4/CapSense_CSHL.c ****                         }
1425:.\Generated_Source\PSoC4/CapSense_CSHL.c ****                         else
1426:.\Generated_Source\PSoC4/CapSense_CSHL.c ****                         {
1427:.\Generated_Source\PSoC4/CapSense_CSHL.c ****                             curCntrdSize++;
1428:.\Generated_Source\PSoC4/CapSense_CSHL.c ****                         }
1429:.\Generated_Source\PSoC4/CapSense_CSHL.c ****                     }
1430:.\Generated_Source\PSoC4/CapSense_CSHL.c ****                     else   /* Select biggest and indicate zero start */
1431:.\Generated_Source\PSoC4/CapSense_CSHL.c ****                     {          
1432:.\Generated_Source\PSoC4/CapSense_CSHL.c ****                         if(curCntrdSize > 0u)
1433:.\Generated_Source\PSoC4/CapSense_CSHL.c ****                         {
1434:.\Generated_Source\PSoC4/CapSense_CSHL.c ****                             /* We are at the end of current */
1435:.\Generated_Source\PSoC4/CapSense_CSHL.c ****                             if(curCntrdSize > biggestCtrdSize)
1436:.\Generated_Source\PSoC4/CapSense_CSHL.c ****                             {
1437:.\Generated_Source\PSoC4/CapSense_CSHL.c ****                                 biggestCtrdSize = curCntrdSize;
1438:.\Generated_Source\PSoC4/CapSense_CSHL.c ****                                 biggestCtrdStartPos = curCtrdStartPos;
1439:.\Generated_Source\PSoC4/CapSense_CSHL.c ****                             }
ARM GAS  C:\Users\11401393\AppData\Local\Temp\ccv2tvsi.s 			page 43


1440:.\Generated_Source\PSoC4/CapSense_CSHL.c ****                             
1441:.\Generated_Source\PSoC4/CapSense_CSHL.c ****                             curCntrdSize = 0u;
1442:.\Generated_Source\PSoC4/CapSense_CSHL.c ****                             curCtrdStartPos = CapSense_MAXIMUM_CENTROID;
1443:.\Generated_Source\PSoC4/CapSense_CSHL.c ****                         }
1444:.\Generated_Source\PSoC4/CapSense_CSHL.c ****                     }
1445:.\Generated_Source\PSoC4/CapSense_CSHL.c ****                     
1446:.\Generated_Source\PSoC4/CapSense_CSHL.c ****                     i++; 
1447:.\Generated_Source\PSoC4/CapSense_CSHL.c ****                     curPos = diplex[i];
1448:.\Generated_Source\PSoC4/CapSense_CSHL.c ****                     if(i == count)
1449:.\Generated_Source\PSoC4/CapSense_CSHL.c ****                     {
1450:.\Generated_Source\PSoC4/CapSense_CSHL.c ****                         break;
1451:.\Generated_Source\PSoC4/CapSense_CSHL.c ****                     }            
1452:.\Generated_Source\PSoC4/CapSense_CSHL.c ****                 }
1453:.\Generated_Source\PSoC4/CapSense_CSHL.c ****                     
1454:.\Generated_Source\PSoC4/CapSense_CSHL.c ****                     /* Find biggest centroid if two are same size, last one wins
1455:.\Generated_Source\PSoC4/CapSense_CSHL.c ****                        We are at the end of current */
1456:.\Generated_Source\PSoC4/CapSense_CSHL.c ****                 if (curCntrdSize >= biggestCtrdSize) 
1457:.\Generated_Source\PSoC4/CapSense_CSHL.c ****                 {
1458:.\Generated_Source\PSoC4/CapSense_CSHL.c ****                     biggestCtrdSize = curCntrdSize;
1459:.\Generated_Source\PSoC4/CapSense_CSHL.c ****                     biggestCtrdStartPos = curCtrdStartPos;
1460:.\Generated_Source\PSoC4/CapSense_CSHL.c ****                 }
1461:.\Generated_Source\PSoC4/CapSense_CSHL.c ****             }
1462:.\Generated_Source\PSoC4/CapSense_CSHL.c ****             else
1463:.\Generated_Source\PSoC4/CapSense_CSHL.c ****             {
1464:.\Generated_Source\PSoC4/CapSense_CSHL.c ****                 /* Without diplexing */ 
1465:.\Generated_Source\PSoC4/CapSense_CSHL.c ****                 biggestCtrdSize = count;
1466:.\Generated_Source\PSoC4/CapSense_CSHL.c ****             }
1467:.\Generated_Source\PSoC4/CapSense_CSHL.c ****                         
1468:.\Generated_Source\PSoC4/CapSense_CSHL.c **** 
1469:.\Generated_Source\PSoC4/CapSense_CSHL.c ****             /* Check centroid size */
1470:.\Generated_Source\PSoC4/CapSense_CSHL.c ****             #if (CapSense_IS_NON_DIPLEX_SLIDER)
1471:.\Generated_Source\PSoC4/CapSense_CSHL.c ****                 if((biggestCtrdSize >= 2u) || ((biggestCtrdSize == 1u) && (diplex == 0u)))
1472:.\Generated_Source\PSoC4/CapSense_CSHL.c ****             #else                    
1473:.\Generated_Source\PSoC4/CapSense_CSHL.c ****                 if(biggestCtrdSize >= 2u)
1474:.\Generated_Source\PSoC4/CapSense_CSHL.c ****             #endif /* (CapSense_IS_NON_DIPLEX_SLIDER) */
1475:.\Generated_Source\PSoC4/CapSense_CSHL.c ****                 {
1476:.\Generated_Source\PSoC4/CapSense_CSHL.c ****                     for (i = biggestCtrdStartPos; i < (biggestCtrdStartPos + biggestCtrdSize); i++)
1477:.\Generated_Source\PSoC4/CapSense_CSHL.c ****                     {
1478:.\Generated_Source\PSoC4/CapSense_CSHL.c ****                         #if (CapSense_IS_DIPLEX_SLIDER && CapSense_IS_NON_DIPLEX_SLIDER)
1479:.\Generated_Source\PSoC4/CapSense_CSHL.c ****                             if (diplex == 0u)
1480:.\Generated_Source\PSoC4/CapSense_CSHL.c ****                             {
1481:.\Generated_Source\PSoC4/CapSense_CSHL.c ****                                 curPos = i;
1482:.\Generated_Source\PSoC4/CapSense_CSHL.c ****                             }
1483:.\Generated_Source\PSoC4/CapSense_CSHL.c ****                             else
1484:.\Generated_Source\PSoC4/CapSense_CSHL.c ****                             {
1485:.\Generated_Source\PSoC4/CapSense_CSHL.c ****                                 curPos = diplex[i];
1486:.\Generated_Source\PSoC4/CapSense_CSHL.c ****                             }                    
1487:.\Generated_Source\PSoC4/CapSense_CSHL.c ****                         #elif (CapSense_IS_DIPLEX_SLIDER)                    
1488:.\Generated_Source\PSoC4/CapSense_CSHL.c ****                             curPos = diplex[i];                    
1489:.\Generated_Source\PSoC4/CapSense_CSHL.c ****                         #endif /* (CapSense_IS_DIPLEX_SLIDER && CapSense_IS_NON_DIPLEX_SLIDER) */
1490:.\Generated_Source\PSoC4/CapSense_CSHL.c ****                         /* Looking for greater element within centroid */
1491:.\Generated_Source\PSoC4/CapSense_CSHL.c ****                         if(startOfSlider[curPos] > fingerThreshold)
1492:.\Generated_Source\PSoC4/CapSense_CSHL.c ****                         {
1493:.\Generated_Source\PSoC4/CapSense_CSHL.c ****                             if(startOfSlider[curPos] > temp)
1494:.\Generated_Source\PSoC4/CapSense_CSHL.c ****                             {
1495:.\Generated_Source\PSoC4/CapSense_CSHL.c ****                                 maximum = i;
1496:.\Generated_Source\PSoC4/CapSense_CSHL.c ****                                 temp = startOfSlider[curPos];
ARM GAS  C:\Users\11401393\AppData\Local\Temp\ccv2tvsi.s 			page 44


1497:.\Generated_Source\PSoC4/CapSense_CSHL.c ****                             }
1498:.\Generated_Source\PSoC4/CapSense_CSHL.c ****                         }
1499:.\Generated_Source\PSoC4/CapSense_CSHL.c ****                     }
1500:.\Generated_Source\PSoC4/CapSense_CSHL.c ****                 } 
1501:.\Generated_Source\PSoC4/CapSense_CSHL.c ****         #else
1502:.\Generated_Source\PSoC4/CapSense_CSHL.c ****             for (i = 0u; i < count; i++)
1503:.\Generated_Source\PSoC4/CapSense_CSHL.c ****             {                      
1504:.\Generated_Source\PSoC4/CapSense_CSHL.c ****                 /* Looking for greater element within centroid */
1505:.\Generated_Source\PSoC4/CapSense_CSHL.c ****                 if(startOfSlider[i] > fingerThreshold)
1506:.\Generated_Source\PSoC4/CapSense_CSHL.c ****                 {
1507:.\Generated_Source\PSoC4/CapSense_CSHL.c ****                     if(startOfSlider[i] > temp)
1508:.\Generated_Source\PSoC4/CapSense_CSHL.c ****                     {
1509:.\Generated_Source\PSoC4/CapSense_CSHL.c ****                         maximum = i;
1510:.\Generated_Source\PSoC4/CapSense_CSHL.c ****                         temp = startOfSlider[i];
1511:.\Generated_Source\PSoC4/CapSense_CSHL.c ****                     }
1512:.\Generated_Source\PSoC4/CapSense_CSHL.c ****                 }
1513:.\Generated_Source\PSoC4/CapSense_CSHL.c ****             }    
1514:.\Generated_Source\PSoC4/CapSense_CSHL.c ****         #endif /* (CapSense_IS_DIPLEX_SLIDER) */
1515:.\Generated_Source\PSoC4/CapSense_CSHL.c ****         return (maximum);
1516:.\Generated_Source\PSoC4/CapSense_CSHL.c ****     }
1517:.\Generated_Source\PSoC4/CapSense_CSHL.c ****     
1518:.\Generated_Source\PSoC4/CapSense_CSHL.c ****     
1519:.\Generated_Source\PSoC4/CapSense_CSHL.c ****     /*******************************************************************************
1520:.\Generated_Source\PSoC4/CapSense_CSHL.c ****     * Function Name: CapSense_CalcCentroid
1521:.\Generated_Source\PSoC4/CapSense_CSHL.c ****     ********************************************************************************
1522:.\Generated_Source\PSoC4/CapSense_CSHL.c ****     *
1523:.\Generated_Source\PSoC4/CapSense_CSHL.c ****     * Summary:
1524:.\Generated_Source\PSoC4/CapSense_CSHL.c ****     *  Returns a position value calculated according to the index of the maximum element and API
1525:.\Generated_Source\PSoC4/CapSense_CSHL.c ****     *  resolution.
1526:.\Generated_Source\PSoC4/CapSense_CSHL.c ****     *
1527:.\Generated_Source\PSoC4/CapSense_CSHL.c ****     * Parameters:
1528:.\Generated_Source\PSoC4/CapSense_CSHL.c ****     *  type:  widget type.
1529:.\Generated_Source\PSoC4/CapSense_CSHL.c ****     *  diplex:  pointer to diplex table.
1530:.\Generated_Source\PSoC4/CapSense_CSHL.c ****     *  maximum:  Index of maximum element within centroid.
1531:.\Generated_Source\PSoC4/CapSense_CSHL.c ****     *  offset:   Start index of centroid in CapSense_sensorSignal[] array.
1532:.\Generated_Source\PSoC4/CapSense_CSHL.c ****     *  count:    Number of elements within centroid.
1533:.\Generated_Source\PSoC4/CapSense_CSHL.c ****     *  resolution:  multiplicator calculated according to centroid type and
1534:.\Generated_Source\PSoC4/CapSense_CSHL.c ****     *  API resolution.
1535:.\Generated_Source\PSoC4/CapSense_CSHL.c ****     *  noiseThreshold:  Noise threshold.
1536:.\Generated_Source\PSoC4/CapSense_CSHL.c ****     * 
1537:.\Generated_Source\PSoC4/CapSense_CSHL.c ****     * Return:
1538:.\Generated_Source\PSoC4/CapSense_CSHL.c ****     *  Returns a position value of the slider.
1539:.\Generated_Source\PSoC4/CapSense_CSHL.c **** 	*
1540:.\Generated_Source\PSoC4/CapSense_CSHL.c **** 	* Side Effects: 
1541:.\Generated_Source\PSoC4/CapSense_CSHL.c **** 	*  None
1542:.\Generated_Source\PSoC4/CapSense_CSHL.c **** 	* 
1543:.\Generated_Source\PSoC4/CapSense_CSHL.c ****     *******************************************************************************/
1544:.\Generated_Source\PSoC4/CapSense_CSHL.c **** #if (CapSense_TOTAL_TRACKPAD_GESTURES_COUNT > 0u)
1545:.\Generated_Source\PSoC4/CapSense_CSHL.c ****     uint8 CapSense_CalcCentroid(uint8 maximum, uint8 offset, 
1546:.\Generated_Source\PSoC4/CapSense_CSHL.c ****                                         uint8 count, uint32 resolution, uint8 noiseThreshold)
1547:.\Generated_Source\PSoC4/CapSense_CSHL.c **** #else								
1548:.\Generated_Source\PSoC4/CapSense_CSHL.c ****     uint8 CapSense_CalcCentroid(uint8 maximum, uint8 offset, 
1549:.\Generated_Source\PSoC4/CapSense_CSHL.c ****                                         uint8 count, uint16 resolution, uint8 noiseThreshold)						
1550:.\Generated_Source\PSoC4/CapSense_CSHL.c **** #endif /* (CapSense_TOTAL_TRACKPAD_GESTURES_COUNT > 0u) */
1551:.\Generated_Source\PSoC4/CapSense_CSHL.c ****     {
1552:.\Generated_Source\PSoC4/CapSense_CSHL.c ****         #if ((CapSense_TOTAL_LINEAR_SLIDERS_COUNT > 0u) || (CapSense_TOTAL_TOUCH_PADS_BASIC_COUNT >
1553:.\Generated_Source\PSoC4/CapSense_CSHL.c ****             uint8 posPrev;
ARM GAS  C:\Users\11401393\AppData\Local\Temp\ccv2tvsi.s 			page 45


1554:.\Generated_Source\PSoC4/CapSense_CSHL.c ****             uint8 posNext;
1555:.\Generated_Source\PSoC4/CapSense_CSHL.c ****         #endif /* ((CapSense_TOTAL_LINEAR_SLIDERS_COUNT>0u) || (CapSense_TOTAL_TOUCH_PADS_BASIC_COU
1556:.\Generated_Source\PSoC4/CapSense_CSHL.c ****         
1557:.\Generated_Source\PSoC4/CapSense_CSHL.c ****         /* Helps during centroid calculation */
1558:.\Generated_Source\PSoC4/CapSense_CSHL.c ****         #if (CapSense_TOTAL_CENTROIDS_BASIC_COUNT)
1559:.\Generated_Source\PSoC4/CapSense_CSHL.c **** 		    static uint8 CapSense_centroid[3u];
1560:.\Generated_Source\PSoC4/CapSense_CSHL.c ****         #endif  /* (CapSense_TOTAL_CENTROIDS_BASIC_COUNT) */
1561:.\Generated_Source\PSoC4/CapSense_CSHL.c ****                
1562:.\Generated_Source\PSoC4/CapSense_CSHL.c ****         #if (CapSense_IS_DIPLEX_SLIDER)                
1563:.\Generated_Source\PSoC4/CapSense_CSHL.c ****             uint8 pos;
1564:.\Generated_Source\PSoC4/CapSense_CSHL.c ****         #endif /* (CapSense_IS_DIPLEX_SLIDER) */
1565:.\Generated_Source\PSoC4/CapSense_CSHL.c **** 
1566:.\Generated_Source\PSoC4/CapSense_CSHL.c ****         uint8 position;
1567:.\Generated_Source\PSoC4/CapSense_CSHL.c ****         uint32 numerator;
1568:.\Generated_Source\PSoC4/CapSense_CSHL.c ****         int32 denominator;
1569:.\Generated_Source\PSoC4/CapSense_CSHL.c **** 		
1570:.\Generated_Source\PSoC4/CapSense_CSHL.c **** 		uint8  *startOfSlider = &CapSense_sensorSignal[offset];
1571:.\Generated_Source\PSoC4/CapSense_CSHL.c **** 		
1572:.\Generated_Source\PSoC4/CapSense_CSHL.c ****         #if ((CapSense_TOTAL_LINEAR_SLIDERS_COUNT > 0u) || (CapSense_TOTAL_TOUCH_PADS_BASIC_COUNT >
1573:.\Generated_Source\PSoC4/CapSense_CSHL.c ****             posPrev = 0u;
1574:.\Generated_Source\PSoC4/CapSense_CSHL.c ****         #endif /* ((CapSense_TOTAL_LINEAR_SLIDERS_COUNT>0u) || (CapSense_TOTAL_TOUCH_PADS_BASIC_COU
1575:.\Generated_Source\PSoC4/CapSense_CSHL.c ****      
1576:.\Generated_Source\PSoC4/CapSense_CSHL.c ****         #if (CapSense_ADD_SLIDER_TYPE)
1577:.\Generated_Source\PSoC4/CapSense_CSHL.c ****             if(type == CapSense_TYPE_RADIAL_SLIDER)
1578:.\Generated_Source\PSoC4/CapSense_CSHL.c ****             {
1579:.\Generated_Source\PSoC4/CapSense_CSHL.c ****         #endif /* (CapSense_ADD_SLIDER_TYPE) */
1580:.\Generated_Source\PSoC4/CapSense_CSHL.c **** 
1581:.\Generated_Source\PSoC4/CapSense_CSHL.c ****             #if (CapSense_TOTAL_RADIAL_SLIDERS_COUNT > 0u)                
1582:.\Generated_Source\PSoC4/CapSense_CSHL.c ****                 /* Copy Signal to the centroid array */
1583:.\Generated_Source\PSoC4/CapSense_CSHL.c ****                 CapSense_centroid[CapSense_POS] = startOfSlider[maximum];
1584:.\Generated_Source\PSoC4/CapSense_CSHL.c ****                  
1585:.\Generated_Source\PSoC4/CapSense_CSHL.c ****                 /* Check borders for ROTARY Slider */
1586:.\Generated_Source\PSoC4/CapSense_CSHL.c ****                 if (maximum == 0u)                   /* Start of centroid */
1587:.\Generated_Source\PSoC4/CapSense_CSHL.c ****                 { 
1588:.\Generated_Source\PSoC4/CapSense_CSHL.c ****                     CapSense_centroid[CapSense_POS_PREV] = startOfSlider[count - 1u];
1589:.\Generated_Source\PSoC4/CapSense_CSHL.c ****                     CapSense_centroid[CapSense_POS_NEXT] = startOfSlider[1u];
1590:.\Generated_Source\PSoC4/CapSense_CSHL.c ****                 }
1591:.\Generated_Source\PSoC4/CapSense_CSHL.c ****                 else if (maximum == (count - 1u))    /* End of centroid */
1592:.\Generated_Source\PSoC4/CapSense_CSHL.c ****                 {
1593:.\Generated_Source\PSoC4/CapSense_CSHL.c ****                     CapSense_centroid[CapSense_POS_PREV] = startOfSlider[maximum - 1u];
1594:.\Generated_Source\PSoC4/CapSense_CSHL.c ****                     CapSense_centroid[CapSense_POS_NEXT] = startOfSlider[0u];
1595:.\Generated_Source\PSoC4/CapSense_CSHL.c ****                 }
1596:.\Generated_Source\PSoC4/CapSense_CSHL.c ****                 else                                /* Not first Not last */
1597:.\Generated_Source\PSoC4/CapSense_CSHL.c ****                 {
1598:.\Generated_Source\PSoC4/CapSense_CSHL.c ****                     CapSense_centroid[CapSense_POS_PREV] = startOfSlider[maximum - 1u];
1599:.\Generated_Source\PSoC4/CapSense_CSHL.c ****                     CapSense_centroid[CapSense_POS_NEXT] = startOfSlider[maximum + 1u];
1600:.\Generated_Source\PSoC4/CapSense_CSHL.c ****                 }
1601:.\Generated_Source\PSoC4/CapSense_CSHL.c ****             #endif /* (CapSense_TOTAL_RADIAL_SLIDERS_COUNT > 0u) */
1602:.\Generated_Source\PSoC4/CapSense_CSHL.c **** 
1603:.\Generated_Source\PSoC4/CapSense_CSHL.c ****         #if (CapSense_ADD_SLIDER_TYPE)
1604:.\Generated_Source\PSoC4/CapSense_CSHL.c ****             }
1605:.\Generated_Source\PSoC4/CapSense_CSHL.c ****             else
1606:.\Generated_Source\PSoC4/CapSense_CSHL.c ****             {
1607:.\Generated_Source\PSoC4/CapSense_CSHL.c ****         #endif /* (CapSense_ADD_SLIDER_TYPE) */
1608:.\Generated_Source\PSoC4/CapSense_CSHL.c **** 
1609:.\Generated_Source\PSoC4/CapSense_CSHL.c ****             #if ((CapSense_TOTAL_LINEAR_SLIDERS_COUNT > 0u) || (CapSense_TOTAL_TOUCH_PADS_BASIC_COU
1610:.\Generated_Source\PSoC4/CapSense_CSHL.c ****                 #if (CapSense_IS_DIPLEX_SLIDER && CapSense_IS_NON_DIPLEX_SLIDER)                   
ARM GAS  C:\Users\11401393\AppData\Local\Temp\ccv2tvsi.s 			page 46


1611:.\Generated_Source\PSoC4/CapSense_CSHL.c ****                     /* Calculate next and previous near to maximum */
1612:.\Generated_Source\PSoC4/CapSense_CSHL.c ****                     if(diplex == 0u)
1613:.\Generated_Source\PSoC4/CapSense_CSHL.c ****                     {
1614:.\Generated_Source\PSoC4/CapSense_CSHL.c ****                         pos     = maximum;
1615:.\Generated_Source\PSoC4/CapSense_CSHL.c ****                         posPrev = maximum - 1u;
1616:.\Generated_Source\PSoC4/CapSense_CSHL.c ****                         posNext = maximum + 1u; 
1617:.\Generated_Source\PSoC4/CapSense_CSHL.c ****                     }
1618:.\Generated_Source\PSoC4/CapSense_CSHL.c ****                     else
1619:.\Generated_Source\PSoC4/CapSense_CSHL.c ****                     {
1620:.\Generated_Source\PSoC4/CapSense_CSHL.c ****                         pos     = diplex[maximum];
1621:.\Generated_Source\PSoC4/CapSense_CSHL.c ****                         posPrev = diplex[maximum - 1u];
1622:.\Generated_Source\PSoC4/CapSense_CSHL.c ****                         posNext = diplex[maximum + 1u];
1623:.\Generated_Source\PSoC4/CapSense_CSHL.c ****                         count <<= 1u;
1624:.\Generated_Source\PSoC4/CapSense_CSHL.c ****                     }                    
1625:.\Generated_Source\PSoC4/CapSense_CSHL.c ****                 #elif (CapSense_IS_DIPLEX_SLIDER)
1626:.\Generated_Source\PSoC4/CapSense_CSHL.c ****                     /* Calculate next and previous near to maximum */
1627:.\Generated_Source\PSoC4/CapSense_CSHL.c ****                     pos     = diplex[maximum];
1628:.\Generated_Source\PSoC4/CapSense_CSHL.c ****                     posPrev = diplex[maximum - 1u];
1629:.\Generated_Source\PSoC4/CapSense_CSHL.c ****                     posNext = diplex[maximum + 1u];
1630:.\Generated_Source\PSoC4/CapSense_CSHL.c ****                     count <<= 1u;                    
1631:.\Generated_Source\PSoC4/CapSense_CSHL.c ****                 #else                    
1632:.\Generated_Source\PSoC4/CapSense_CSHL.c ****                     /* Calculate next and previous near to maximum */
1633:.\Generated_Source\PSoC4/CapSense_CSHL.c ****                     if (maximum >= 1u)
1634:.\Generated_Source\PSoC4/CapSense_CSHL.c ****                     {
1635:.\Generated_Source\PSoC4/CapSense_CSHL.c ****                         posPrev = maximum - 1u;
1636:.\Generated_Source\PSoC4/CapSense_CSHL.c ****                     }
1637:.\Generated_Source\PSoC4/CapSense_CSHL.c ****                     posNext = maximum + 1u;
1638:.\Generated_Source\PSoC4/CapSense_CSHL.c ****                 #endif /* (CapSense_IS_DIPLEX_SLIDER && CapSense_IS_NON_DIPLEX_SLIDER) */
1639:.\Generated_Source\PSoC4/CapSense_CSHL.c ****                         
1640:.\Generated_Source\PSoC4/CapSense_CSHL.c ****                 /* Copy Signal to the centroid array */
1641:.\Generated_Source\PSoC4/CapSense_CSHL.c ****                 #if (CapSense_IS_DIPLEX_SLIDER)
1642:.\Generated_Source\PSoC4/CapSense_CSHL.c ****                     CapSense_centroid[CapSense_POS] = startOfSlider[pos];
1643:.\Generated_Source\PSoC4/CapSense_CSHL.c ****                 #else
1644:.\Generated_Source\PSoC4/CapSense_CSHL.c ****                     CapSense_centroid[CapSense_POS] = startOfSlider[maximum];
1645:.\Generated_Source\PSoC4/CapSense_CSHL.c ****                 #endif /* (CapSense_IS_DIPLEX_SLIDER) */
1646:.\Generated_Source\PSoC4/CapSense_CSHL.c ****                     
1647:.\Generated_Source\PSoC4/CapSense_CSHL.c ****                 /* Check borders for LINEAR Slider */
1648:.\Generated_Source\PSoC4/CapSense_CSHL.c ****                 if (maximum == 0u)                   /* Start of centroid */
1649:.\Generated_Source\PSoC4/CapSense_CSHL.c ****                 { 
1650:.\Generated_Source\PSoC4/CapSense_CSHL.c ****                     CapSense_centroid[CapSense_POS_PREV] = 0u;
1651:.\Generated_Source\PSoC4/CapSense_CSHL.c ****                     CapSense_centroid[CapSense_POS_NEXT] = startOfSlider[posNext];
1652:.\Generated_Source\PSoC4/CapSense_CSHL.c ****                 }
1653:.\Generated_Source\PSoC4/CapSense_CSHL.c ****                 else if (maximum == ((count) - 1u)) /* End of centroid */
1654:.\Generated_Source\PSoC4/CapSense_CSHL.c ****                 {
1655:.\Generated_Source\PSoC4/CapSense_CSHL.c ****                     CapSense_centroid[CapSense_POS_PREV] = startOfSlider[posPrev];
1656:.\Generated_Source\PSoC4/CapSense_CSHL.c ****                     CapSense_centroid[CapSense_POS_NEXT] = 0u;
1657:.\Generated_Source\PSoC4/CapSense_CSHL.c ****                 }
1658:.\Generated_Source\PSoC4/CapSense_CSHL.c ****                 else                                /* Not first Not last */
1659:.\Generated_Source\PSoC4/CapSense_CSHL.c ****                 {
1660:.\Generated_Source\PSoC4/CapSense_CSHL.c ****                     CapSense_centroid[CapSense_POS_PREV] = startOfSlider[posPrev];
1661:.\Generated_Source\PSoC4/CapSense_CSHL.c ****                     CapSense_centroid[CapSense_POS_NEXT] = startOfSlider[posNext];
1662:.\Generated_Source\PSoC4/CapSense_CSHL.c ****                 }
1663:.\Generated_Source\PSoC4/CapSense_CSHL.c ****             #endif /* ((CapSense_TOTAL_LINEAR_SLIDERS_COUNT>0u)||(CapSense_TOTAL_TOUCH_PADS_BASIC_C
1664:.\Generated_Source\PSoC4/CapSense_CSHL.c **** 
1665:.\Generated_Source\PSoC4/CapSense_CSHL.c ****         #if (CapSense_ADD_SLIDER_TYPE)
1666:.\Generated_Source\PSoC4/CapSense_CSHL.c ****             }
1667:.\Generated_Source\PSoC4/CapSense_CSHL.c ****         #endif /* (CapSense_ADD_SLIDER_TYPE) */
ARM GAS  C:\Users\11401393\AppData\Local\Temp\ccv2tvsi.s 			page 47


1668:.\Generated_Source\PSoC4/CapSense_CSHL.c ****     
1669:.\Generated_Source\PSoC4/CapSense_CSHL.c ****         /* Subtract noiseThreshold */
1670:.\Generated_Source\PSoC4/CapSense_CSHL.c ****         if(CapSense_centroid[CapSense_POS_PREV] > noiseThreshold)
1671:.\Generated_Source\PSoC4/CapSense_CSHL.c ****         {
1672:.\Generated_Source\PSoC4/CapSense_CSHL.c ****             CapSense_centroid[CapSense_POS_PREV] -= noiseThreshold;
1673:.\Generated_Source\PSoC4/CapSense_CSHL.c ****         }
1674:.\Generated_Source\PSoC4/CapSense_CSHL.c ****         else
1675:.\Generated_Source\PSoC4/CapSense_CSHL.c ****         {
1676:.\Generated_Source\PSoC4/CapSense_CSHL.c ****             CapSense_centroid[CapSense_POS_PREV] = 0u;
1677:.\Generated_Source\PSoC4/CapSense_CSHL.c ****         }
1678:.\Generated_Source\PSoC4/CapSense_CSHL.c ****         
1679:.\Generated_Source\PSoC4/CapSense_CSHL.c ****         /* Maximum always greater than fingerThreshold, so greater than noiseThreshold */
1680:.\Generated_Source\PSoC4/CapSense_CSHL.c ****         CapSense_centroid[CapSense_POS] -= noiseThreshold;
1681:.\Generated_Source\PSoC4/CapSense_CSHL.c ****         
1682:.\Generated_Source\PSoC4/CapSense_CSHL.c ****         /* Subtract noiseThreshold */
1683:.\Generated_Source\PSoC4/CapSense_CSHL.c ****         if(CapSense_centroid[CapSense_POS_NEXT] > noiseThreshold)
1684:.\Generated_Source\PSoC4/CapSense_CSHL.c ****         {
1685:.\Generated_Source\PSoC4/CapSense_CSHL.c ****             CapSense_centroid[CapSense_POS_NEXT] -= noiseThreshold;
1686:.\Generated_Source\PSoC4/CapSense_CSHL.c ****         }
1687:.\Generated_Source\PSoC4/CapSense_CSHL.c ****         else
1688:.\Generated_Source\PSoC4/CapSense_CSHL.c ****         {
1689:.\Generated_Source\PSoC4/CapSense_CSHL.c ****             CapSense_centroid[CapSense_POS_NEXT] = 0u;
1690:.\Generated_Source\PSoC4/CapSense_CSHL.c ****         }
1691:.\Generated_Source\PSoC4/CapSense_CSHL.c ****         
1692:.\Generated_Source\PSoC4/CapSense_CSHL.c ****         
1693:.\Generated_Source\PSoC4/CapSense_CSHL.c ****         /* Si+1 - Si-1 */
1694:.\Generated_Source\PSoC4/CapSense_CSHL.c ****         numerator = (uint32) CapSense_centroid[CapSense_POS_NEXT] -
1695:.\Generated_Source\PSoC4/CapSense_CSHL.c ****                     (uint32) CapSense_centroid[CapSense_POS_PREV];
1696:.\Generated_Source\PSoC4/CapSense_CSHL.c **** 
1697:.\Generated_Source\PSoC4/CapSense_CSHL.c ****         /* Si+1 + Si + Si-1 */
1698:.\Generated_Source\PSoC4/CapSense_CSHL.c ****         denominator = (int32) CapSense_centroid[CapSense_POS_PREV] + 
1699:.\Generated_Source\PSoC4/CapSense_CSHL.c ****                       (int32) CapSense_centroid[CapSense_POS] + 
1700:.\Generated_Source\PSoC4/CapSense_CSHL.c ****                       (int32) CapSense_centroid[CapSense_POS_NEXT];
1701:.\Generated_Source\PSoC4/CapSense_CSHL.c ****         
1702:.\Generated_Source\PSoC4/CapSense_CSHL.c ****         /* (numerator/denominator) + maximum */
1703:.\Generated_Source\PSoC4/CapSense_CSHL.c ****         denominator = (((int32)(uint32)((uint32)numerator << 8u)/denominator) + (int32)(uint32)((ui
1704:.\Generated_Source\PSoC4/CapSense_CSHL.c **** 
1705:.\Generated_Source\PSoC4/CapSense_CSHL.c ****         #if(CapSense_TOTAL_RADIAL_SLIDERS_COUNT > 0u)
1706:.\Generated_Source\PSoC4/CapSense_CSHL.c ****             /* Only required for RADIAL Slider */
1707:.\Generated_Source\PSoC4/CapSense_CSHL.c ****             if(denominator < 0)
1708:.\Generated_Source\PSoC4/CapSense_CSHL.c ****             {
1709:.\Generated_Source\PSoC4/CapSense_CSHL.c ****                 denominator += (int32)((uint16)((uint16) count << 8u));
1710:.\Generated_Source\PSoC4/CapSense_CSHL.c ****             }
1711:.\Generated_Source\PSoC4/CapSense_CSHL.c ****         #endif /* (CapSense_TOTAL_RADIAL_SLIDERS_COUNT > 0u) */
1712:.\Generated_Source\PSoC4/CapSense_CSHL.c ****         
1713:.\Generated_Source\PSoC4/CapSense_CSHL.c ****         denominator *= (int16)resolution;
1714:.\Generated_Source\PSoC4/CapSense_CSHL.c ****         
1715:.\Generated_Source\PSoC4/CapSense_CSHL.c ****         /* Round result and put it to uint8 */
1716:.\Generated_Source\PSoC4/CapSense_CSHL.c ****         position = ((uint8) HI16((uint32)denominator + CapSense_CENTROID_ROUND_VALUE));
1717:.\Generated_Source\PSoC4/CapSense_CSHL.c **** 
1718:.\Generated_Source\PSoC4/CapSense_CSHL.c ****         return (position);
1719:.\Generated_Source\PSoC4/CapSense_CSHL.c ****     }    
1720:.\Generated_Source\PSoC4/CapSense_CSHL.c **** #endif /* (CapSense_TOTAL_CENTROIDS_BASIC_COUNT) */
1721:.\Generated_Source\PSoC4/CapSense_CSHL.c **** 
1722:.\Generated_Source\PSoC4/CapSense_CSHL.c **** 
1723:.\Generated_Source\PSoC4/CapSense_CSHL.c **** #if((CapSense_TOTAL_RADIAL_SLIDERS_COUNT > 0u) || (CapSense_TOTAL_LINEAR_SLIDERS_COUNT > 0u))
1724:.\Generated_Source\PSoC4/CapSense_CSHL.c ****     /*******************************************************************************
ARM GAS  C:\Users\11401393\AppData\Local\Temp\ccv2tvsi.s 			page 48


1725:.\Generated_Source\PSoC4/CapSense_CSHL.c ****     * Function Name: CapSense_GetCentroidPos
1726:.\Generated_Source\PSoC4/CapSense_CSHL.c ****     ********************************************************************************
1727:.\Generated_Source\PSoC4/CapSense_CSHL.c ****     *
1728:.\Generated_Source\PSoC4/CapSense_CSHL.c ****     * Summary:
1729:.\Generated_Source\PSoC4/CapSense_CSHL.c ****     *  Checks the CapSense_Signal[ ] array for a centroid within
1730:.\Generated_Source\PSoC4/CapSense_CSHL.c ****     *  a slider specified range. The centroid position is calculated according to the resolution
1731:.\Generated_Source\PSoC4/CapSense_CSHL.c ****     *  specified in the CapSense customizer. The position filters are applied to the
1732:.\Generated_Source\PSoC4/CapSense_CSHL.c ****     *  result if enabled.
1733:.\Generated_Source\PSoC4/CapSense_CSHL.c ****     *
1734:.\Generated_Source\PSoC4/CapSense_CSHL.c ****     * Parameters:
1735:.\Generated_Source\PSoC4/CapSense_CSHL.c ****     *  widget:  Widget number.
1736:.\Generated_Source\PSoC4/CapSense_CSHL.c ****     *  For every linear slider widget there are defines in this format:
1737:.\Generated_Source\PSoC4/CapSense_CSHL.c ****     *  #define CapSense_"widget_name"__LS           5
1738:.\Generated_Source\PSoC4/CapSense_CSHL.c ****     * 
1739:.\Generated_Source\PSoC4/CapSense_CSHL.c ****     * Return:
1740:.\Generated_Source\PSoC4/CapSense_CSHL.c ****     *  Returns a position value of the linear slider.
1741:.\Generated_Source\PSoC4/CapSense_CSHL.c **** 	*
1742:.\Generated_Source\PSoC4/CapSense_CSHL.c **** 	* Global Variables:
1743:.\Generated_Source\PSoC4/CapSense_CSHL.c **** 	*  None
1744:.\Generated_Source\PSoC4/CapSense_CSHL.c **** 	*
1745:.\Generated_Source\PSoC4/CapSense_CSHL.c ****     * Side Effects:
1746:.\Generated_Source\PSoC4/CapSense_CSHL.c ****     *  If any sensor within the slider widget is active, the function returns values
1747:.\Generated_Source\PSoC4/CapSense_CSHL.c ****     *  from zero to the API resolution value set in the CapSense customizer. If no
1748:.\Generated_Source\PSoC4/CapSense_CSHL.c ****     *  sensors are active, the function returns 0xFFFF. If an error occurs during
1749:.\Generated_Source\PSoC4/CapSense_CSHL.c ****     *  execution of the centroid/diplexing algorithm, the function returns 0xFFFF.
1750:.\Generated_Source\PSoC4/CapSense_CSHL.c ****     *  There are no checks of the widget type argument provided to this function.
1751:.\Generated_Source\PSoC4/CapSense_CSHL.c ****     *  The unproper widget type provided will cause unexpected position calculations.
1752:.\Generated_Source\PSoC4/CapSense_CSHL.c ****     *
1753:.\Generated_Source\PSoC4/CapSense_CSHL.c ****     * Note:
1754:.\Generated_Source\PSoC4/CapSense_CSHL.c ****     *  If noise counts on the slider segments are greater than the noise
1755:.\Generated_Source\PSoC4/CapSense_CSHL.c ****     *  threshold, this subroutine may generate a false centroid result. The noise
1756:.\Generated_Source\PSoC4/CapSense_CSHL.c ****     *  threshold should be set carefully (high enough above the noise level) so
1757:.\Generated_Source\PSoC4/CapSense_CSHL.c ****     *  that noise will not generate a false centroid.
1758:.\Generated_Source\PSoC4/CapSense_CSHL.c ****     *******************************************************************************/
1759:.\Generated_Source\PSoC4/CapSense_CSHL.c ****     uint16 CapSense_GetCentroidPos(uint32 widget)
1760:.\Generated_Source\PSoC4/CapSense_CSHL.c ****     {
1761:.\Generated_Source\PSoC4/CapSense_CSHL.c ****         #if (CapSense_IS_DIPLEX_SLIDER)
1762:.\Generated_Source\PSoC4/CapSense_CSHL.c ****             const uint8 *diplex;
1763:.\Generated_Source\PSoC4/CapSense_CSHL.c ****         #endif /* (CapSense_IS_DIPLEX_SLIDER) */
1764:.\Generated_Source\PSoC4/CapSense_CSHL.c ****                 
1765:.\Generated_Source\PSoC4/CapSense_CSHL.c ****         #if (0u != CapSense_LINEAR_SLIDERS_POS_FILTERS_MASK)
1766:.\Generated_Source\PSoC4/CapSense_CSHL.c ****             uint8 posIndex;
1767:.\Generated_Source\PSoC4/CapSense_CSHL.c ****             uint8 firstTimeIndex = CapSense_posFiltersData[widget];
1768:.\Generated_Source\PSoC4/CapSense_CSHL.c ****             uint8 posFiltersMask = CapSense_posFiltersMask[widget];  
1769:.\Generated_Source\PSoC4/CapSense_CSHL.c ****         #endif /* (0u != CapSense_LINEAR_SLIDERS_POS_FILTERS_MASK) */
1770:.\Generated_Source\PSoC4/CapSense_CSHL.c **** 
1771:.\Generated_Source\PSoC4/CapSense_CSHL.c ****         #if ((0u != (CapSense_MEDIAN_FILTER & CapSense_LINEAR_SLIDERS_POS_FILTERS_MASK)) || \
1772:.\Generated_Source\PSoC4/CapSense_CSHL.c ****              (0u != (CapSense_AVERAGING_FILTER & CapSense_LINEAR_SLIDERS_POS_FILTERS_MASK)))
1773:.\Generated_Source\PSoC4/CapSense_CSHL.c ****             uint8 tempPos;
1774:.\Generated_Source\PSoC4/CapSense_CSHL.c ****         #endif /* ((0u != (CapSense_MEDIAN_FILTER & CapSense_LINEAR_SLIDERS_POS_FILTERS_MASK)) || \
1775:.\Generated_Source\PSoC4/CapSense_CSHL.c ****                *   (0u != (CapSense_AVERAGING_FILTER & CapSense_LINEAR_SLIDERS_POS_FILTERS_MASK)))
1776:.\Generated_Source\PSoC4/CapSense_CSHL.c ****                */
1777:.\Generated_Source\PSoC4/CapSense_CSHL.c **** 
1778:.\Generated_Source\PSoC4/CapSense_CSHL.c ****         uint8 maximum;
1779:.\Generated_Source\PSoC4/CapSense_CSHL.c ****         uint16 position;
1780:.\Generated_Source\PSoC4/CapSense_CSHL.c ****         uint8 offset = CapSense_rawDataIndex[widget];
1781:.\Generated_Source\PSoC4/CapSense_CSHL.c ****         uint8 count = CapSense_numberOfSensors[widget];
ARM GAS  C:\Users\11401393\AppData\Local\Temp\ccv2tvsi.s 			page 49


1782:.\Generated_Source\PSoC4/CapSense_CSHL.c ****                         
1783:.\Generated_Source\PSoC4/CapSense_CSHL.c ****         #if (CapSense_IS_DIPLEX_SLIDER)
1784:.\Generated_Source\PSoC4/CapSense_CSHL.c ****             if(widget < CapSense_TOTAL_DIPLEXED_SLIDERS_COUNT)
1785:.\Generated_Source\PSoC4/CapSense_CSHL.c ****             {
1786:.\Generated_Source\PSoC4/CapSense_CSHL.c ****                 maximum = CapSense_diplexTable[widget];
1787:.\Generated_Source\PSoC4/CapSense_CSHL.c ****                 diplex = &CapSense_diplexTable[maximum];
1788:.\Generated_Source\PSoC4/CapSense_CSHL.c ****             }
1789:.\Generated_Source\PSoC4/CapSense_CSHL.c ****             else
1790:.\Generated_Source\PSoC4/CapSense_CSHL.c ****             {
1791:.\Generated_Source\PSoC4/CapSense_CSHL.c ****                 diplex = 0u;
1792:.\Generated_Source\PSoC4/CapSense_CSHL.c ****             }
1793:.\Generated_Source\PSoC4/CapSense_CSHL.c ****         #endif /* (CapSense_IS_DIPLEX_SLIDER) */
1794:.\Generated_Source\PSoC4/CapSense_CSHL.c **** 
1795:.\Generated_Source\PSoC4/CapSense_CSHL.c **** 		/* Find Maximum within centroid */      
1796:.\Generated_Source\PSoC4/CapSense_CSHL.c **** 		#if (CapSense_IS_DIPLEX_SLIDER)        
1797:.\Generated_Source\PSoC4/CapSense_CSHL.c **** 			maximum = CapSense_FindMaximum(offset, count, (uint8)CapSense_fingerThreshold[widget], diplex);
1798:.\Generated_Source\PSoC4/CapSense_CSHL.c **** 		#else
1799:.\Generated_Source\PSoC4/CapSense_CSHL.c **** 			maximum = CapSense_FindMaximum(offset, count, (uint8)CapSense_fingerThreshold[widget]);
1800:.\Generated_Source\PSoC4/CapSense_CSHL.c **** 		#endif /* (CapSense_IS_DIPLEX_SLIDER) */
1801:.\Generated_Source\PSoC4/CapSense_CSHL.c **** 
1802:.\Generated_Source\PSoC4/CapSense_CSHL.c ****         if (maximum != 0xFFu)
1803:.\Generated_Source\PSoC4/CapSense_CSHL.c ****         {
1804:.\Generated_Source\PSoC4/CapSense_CSHL.c ****             /* Calculate centroid */
1805:.\Generated_Source\PSoC4/CapSense_CSHL.c ****             position = (uint16) CapSense_CalcCentroid(maximum, 
1806:.\Generated_Source\PSoC4/CapSense_CSHL.c ****                          offset, count, CapSense_centroidMult[widget], CapSense_noiseThreshold[widg
1807:.\Generated_Source\PSoC4/CapSense_CSHL.c **** 
1808:.\Generated_Source\PSoC4/CapSense_CSHL.c ****             #if (0u != CapSense_LINEAR_SLIDERS_POS_FILTERS_MASK)
1809:.\Generated_Source\PSoC4/CapSense_CSHL.c ****                 /* Check if this linear slider has enabled filters */
1810:.\Generated_Source\PSoC4/CapSense_CSHL.c ****                 if (0u != (posFiltersMask & CapSense_ANY_POS_FILTER))
1811:.\Generated_Source\PSoC4/CapSense_CSHL.c ****                 {
1812:.\Generated_Source\PSoC4/CapSense_CSHL.c ****                     /* Calculate position to store filters data */
1813:.\Generated_Source\PSoC4/CapSense_CSHL.c ****                     posIndex  = firstTimeIndex + 1u;
1814:.\Generated_Source\PSoC4/CapSense_CSHL.c ****                     
1815:.\Generated_Source\PSoC4/CapSense_CSHL.c ****                     if (0u == CapSense_posFiltersData[firstTimeIndex])
1816:.\Generated_Source\PSoC4/CapSense_CSHL.c ****                     {
1817:.\Generated_Source\PSoC4/CapSense_CSHL.c ****                         /* Init filters */
1818:.\Generated_Source\PSoC4/CapSense_CSHL.c ****                         CapSense_posFiltersData[posIndex] = (uint8) position;
1819:.\Generated_Source\PSoC4/CapSense_CSHL.c ****                         #if ((0u != (CapSense_MEDIAN_FILTER & \
1820:.\Generated_Source\PSoC4/CapSense_CSHL.c ****                                      CapSense_LINEAR_SLIDERS_POS_FILTERS_MASK)) || \
1821:.\Generated_Source\PSoC4/CapSense_CSHL.c ****                              (0u != (CapSense_AVERAGING_FILTER & \
1822:.\Generated_Source\PSoC4/CapSense_CSHL.c ****                                      CapSense_LINEAR_SLIDERS_POS_FILTERS_MASK)))
1823:.\Generated_Source\PSoC4/CapSense_CSHL.c **** 
1824:.\Generated_Source\PSoC4/CapSense_CSHL.c ****                             if ( (0u != (posFiltersMask & CapSense_MEDIAN_FILTER)) || 
1825:.\Generated_Source\PSoC4/CapSense_CSHL.c ****                                  (0u != (posFiltersMask & CapSense_AVERAGING_FILTER)) )
1826:.\Generated_Source\PSoC4/CapSense_CSHL.c ****                             {
1827:.\Generated_Source\PSoC4/CapSense_CSHL.c ****                                 CapSense_posFiltersData[posIndex + 1u] = (uint8) position;
1828:.\Generated_Source\PSoC4/CapSense_CSHL.c ****                             }
1829:.\Generated_Source\PSoC4/CapSense_CSHL.c ****                         #endif /* ((0u != (CapSense_MEDIAN_FILTER & \
1830:.\Generated_Source\PSoC4/CapSense_CSHL.c ****                                *           CapSense_LINEAR_SLIDERS_POS_FILTERS_MASK)) || \
1831:.\Generated_Source\PSoC4/CapSense_CSHL.c ****                                *   (0u != (CapSense_AVERAGING_FILTER & \
1832:.\Generated_Source\PSoC4/CapSense_CSHL.c ****                                *           CapSense_LINEAR_SLIDERS_POS_FILTERS_MASK)))
1833:.\Generated_Source\PSoC4/CapSense_CSHL.c ****                                */
1834:.\Generated_Source\PSoC4/CapSense_CSHL.c ****                         
1835:.\Generated_Source\PSoC4/CapSense_CSHL.c ****                         CapSense_posFiltersData[firstTimeIndex] = 1u;
1836:.\Generated_Source\PSoC4/CapSense_CSHL.c ****                     }
1837:.\Generated_Source\PSoC4/CapSense_CSHL.c ****                     else
1838:.\Generated_Source\PSoC4/CapSense_CSHL.c ****                     {
ARM GAS  C:\Users\11401393\AppData\Local\Temp\ccv2tvsi.s 			page 50


1839:.\Generated_Source\PSoC4/CapSense_CSHL.c ****                         /* Do filtering */
1840:.\Generated_Source\PSoC4/CapSense_CSHL.c ****                         #if (0u != (CapSense_MEDIAN_FILTER & CapSense_LINEAR_SLIDERS_POS_FILTERS_MA
1841:.\Generated_Source\PSoC4/CapSense_CSHL.c ****                             if (0u != (posFiltersMask & CapSense_MEDIAN_FILTER))
1842:.\Generated_Source\PSoC4/CapSense_CSHL.c ****                             {
1843:.\Generated_Source\PSoC4/CapSense_CSHL.c ****                                 tempPos = (uint8) position;
1844:.\Generated_Source\PSoC4/CapSense_CSHL.c ****                                 position = CapSense_MedianFilter(position,
1845:.\Generated_Source\PSoC4/CapSense_CSHL.c ****                                                                 (uint16)CapSense_posFiltersData[pos
1846:.\Generated_Source\PSoC4/CapSense_CSHL.c ****                                                                 (uint16)CapSense_posFiltersData[pos
1847:.\Generated_Source\PSoC4/CapSense_CSHL.c ****                                 CapSense_posFiltersData[posIndex + 1u] =
1848:.\Generated_Source\PSoC4/CapSense_CSHL.c ****                                                                              CapSense_posFiltersDat
1849:.\Generated_Source\PSoC4/CapSense_CSHL.c ****                                 CapSense_posFiltersData[posIndex] = tempPos;
1850:.\Generated_Source\PSoC4/CapSense_CSHL.c ****                             }
1851:.\Generated_Source\PSoC4/CapSense_CSHL.c ****                         #endif /*(0u != (CapSense_MEDIAN_FILTER &
1852:.\Generated_Source\PSoC4/CapSense_CSHL.c ****                                *         CapSense_LINEAR_SLIDERS_POS_FILTERS_MASK))
1853:.\Generated_Source\PSoC4/CapSense_CSHL.c ****                                */
1854:.\Generated_Source\PSoC4/CapSense_CSHL.c **** 
1855:.\Generated_Source\PSoC4/CapSense_CSHL.c ****                         #if(0u!=(CapSense_AVERAGING_FILTER & CapSense_LINEAR_SLIDERS_POS_FILTERS_MA
1856:.\Generated_Source\PSoC4/CapSense_CSHL.c ****                             if (0u != (posFiltersMask & CapSense_AVERAGING_FILTER)) 
1857:.\Generated_Source\PSoC4/CapSense_CSHL.c ****                             {
1858:.\Generated_Source\PSoC4/CapSense_CSHL.c ****                                 tempPos = (uint8) position;
1859:.\Generated_Source\PSoC4/CapSense_CSHL.c ****                                 position = CapSense_AveragingFilter(position,
1860:.\Generated_Source\PSoC4/CapSense_CSHL.c ****                                                                 (uint16)CapSense_posFiltersData[pos
1861:.\Generated_Source\PSoC4/CapSense_CSHL.c ****                                                                 (uint16)CapSense_posFiltersData[pos
1862:.\Generated_Source\PSoC4/CapSense_CSHL.c ****                                 CapSense_posFiltersData[posIndex+1u]=CapSense_posFiltersData[posInd
1863:.\Generated_Source\PSoC4/CapSense_CSHL.c ****                                 CapSense_posFiltersData[posIndex] = tempPos;
1864:.\Generated_Source\PSoC4/CapSense_CSHL.c ****                             }
1865:.\Generated_Source\PSoC4/CapSense_CSHL.c ****                         #endif /* (0u != (CapSense_AVERAGING_FILTER & \
1866:.\Generated_Source\PSoC4/CapSense_CSHL.c ****                                *           CapSense_LINEAR_SLIDERS_POS_FILTERS_MASK))
1867:.\Generated_Source\PSoC4/CapSense_CSHL.c ****                                */
1868:.\Generated_Source\PSoC4/CapSense_CSHL.c **** 
1869:.\Generated_Source\PSoC4/CapSense_CSHL.c ****                         #if (0u != (CapSense_IIR2_FILTER & CapSense_LINEAR_SLIDERS_POS_FILTERS_MASK
1870:.\Generated_Source\PSoC4/CapSense_CSHL.c ****                             if (0u != (posFiltersMask & CapSense_IIR2_FILTER)) 
1871:.\Generated_Source\PSoC4/CapSense_CSHL.c ****                             {
1872:.\Generated_Source\PSoC4/CapSense_CSHL.c ****                                 position = CapSense_IIR2Filter(position,
1873:.\Generated_Source\PSoC4/CapSense_CSHL.c ****                                                                     (uint16)CapSense_posFiltersData
1874:.\Generated_Source\PSoC4/CapSense_CSHL.c ****                                 CapSense_posFiltersData[posIndex] = (uint8) position;
1875:.\Generated_Source\PSoC4/CapSense_CSHL.c ****                             }
1876:.\Generated_Source\PSoC4/CapSense_CSHL.c ****                         #endif /* (0u != (CapSense_IIR2_FILTER & \
1877:.\Generated_Source\PSoC4/CapSense_CSHL.c ****                                *          CapSense_LINEAR_SLIDERS_POS_FILTERS_MASK))
1878:.\Generated_Source\PSoC4/CapSense_CSHL.c ****                                */
1879:.\Generated_Source\PSoC4/CapSense_CSHL.c **** 
1880:.\Generated_Source\PSoC4/CapSense_CSHL.c ****                         #if (0u != (CapSense_IIR4_FILTER & CapSense_LINEAR_SLIDERS_POS_FILTERS_MASK
1881:.\Generated_Source\PSoC4/CapSense_CSHL.c ****                             if (0u != (posFiltersMask & CapSense_IIR4_FILTER))
1882:.\Generated_Source\PSoC4/CapSense_CSHL.c ****                             {
1883:.\Generated_Source\PSoC4/CapSense_CSHL.c ****                                 position = CapSense_IIR4Filter(position,
1884:.\Generated_Source\PSoC4/CapSense_CSHL.c ****                                                                     (uint16)CapSense_posFiltersData
1885:.\Generated_Source\PSoC4/CapSense_CSHL.c ****                                 CapSense_posFiltersData[posIndex] = (uint8) position;
1886:.\Generated_Source\PSoC4/CapSense_CSHL.c ****                             }                                
1887:.\Generated_Source\PSoC4/CapSense_CSHL.c ****                         #endif /* (0u != (CapSense_IIR4_FILTER & \
1888:.\Generated_Source\PSoC4/CapSense_CSHL.c ****                                *          CapSense_LINEAR_SLIDERS_POS_FILTERS_MASK))
1889:.\Generated_Source\PSoC4/CapSense_CSHL.c ****                                */
1890:.\Generated_Source\PSoC4/CapSense_CSHL.c **** 
1891:.\Generated_Source\PSoC4/CapSense_CSHL.c ****                         #if (0u != (CapSense_JITTER_FILTER & CapSense_LINEAR_SLIDERS_POS_FILTERS_MA
1892:.\Generated_Source\PSoC4/CapSense_CSHL.c ****                             if (0u != (posFiltersMask & CapSense_JITTER_FILTER))
1893:.\Generated_Source\PSoC4/CapSense_CSHL.c ****                             {
1894:.\Generated_Source\PSoC4/CapSense_CSHL.c ****                                 position = CapSense_JitterFilter(position,
1895:.\Generated_Source\PSoC4/CapSense_CSHL.c ****                                                                     (uint16)CapSense_posFiltersData
ARM GAS  C:\Users\11401393\AppData\Local\Temp\ccv2tvsi.s 			page 51


1896:.\Generated_Source\PSoC4/CapSense_CSHL.c ****                                 CapSense_posFiltersData[posIndex] = (uint8) position;
1897:.\Generated_Source\PSoC4/CapSense_CSHL.c ****                             }
1898:.\Generated_Source\PSoC4/CapSense_CSHL.c ****                         #endif /* (0u != (CapSense_JITTER_FILTER & \
1899:.\Generated_Source\PSoC4/CapSense_CSHL.c ****                                *           CapSense_LINEAR_SLIDERS_POS_FILTERS_MASK))
1900:.\Generated_Source\PSoC4/CapSense_CSHL.c ****                                */
1901:.\Generated_Source\PSoC4/CapSense_CSHL.c ****                     }
1902:.\Generated_Source\PSoC4/CapSense_CSHL.c ****                 }
1903:.\Generated_Source\PSoC4/CapSense_CSHL.c ****             #endif /* (0u != CapSense_LINEAR_SLIDERS_POS_FILTERS_MASK) */
1904:.\Generated_Source\PSoC4/CapSense_CSHL.c **** 
1905:.\Generated_Source\PSoC4/CapSense_CSHL.c ****         }
1906:.\Generated_Source\PSoC4/CapSense_CSHL.c ****         else
1907:.\Generated_Source\PSoC4/CapSense_CSHL.c ****         {
1908:.\Generated_Source\PSoC4/CapSense_CSHL.c ****             /* Maximum wasn't found */
1909:.\Generated_Source\PSoC4/CapSense_CSHL.c ****             position = 0xFFFFu;
1910:.\Generated_Source\PSoC4/CapSense_CSHL.c **** 
1911:.\Generated_Source\PSoC4/CapSense_CSHL.c ****             #if(0u != CapSense_LINEAR_SLIDERS_POS_FILTERS_MASK)
1912:.\Generated_Source\PSoC4/CapSense_CSHL.c ****                 /* Reset filters */
1913:.\Generated_Source\PSoC4/CapSense_CSHL.c ****                 if(0u != (posFiltersMask & CapSense_ANY_POS_FILTER))
1914:.\Generated_Source\PSoC4/CapSense_CSHL.c ****                 {
1915:.\Generated_Source\PSoC4/CapSense_CSHL.c ****                     CapSense_posFiltersData[firstTimeIndex] = 0u;
1916:.\Generated_Source\PSoC4/CapSense_CSHL.c ****                 }
1917:.\Generated_Source\PSoC4/CapSense_CSHL.c ****             #endif /* (0u != CapSense_LINEAR_SLIDERS_POS_FILTERS_MASK) */
1918:.\Generated_Source\PSoC4/CapSense_CSHL.c ****         }
1919:.\Generated_Source\PSoC4/CapSense_CSHL.c **** 
1920:.\Generated_Source\PSoC4/CapSense_CSHL.c ****         
1921:.\Generated_Source\PSoC4/CapSense_CSHL.c ****         return (position);
1922:.\Generated_Source\PSoC4/CapSense_CSHL.c ****     }
1923:.\Generated_Source\PSoC4/CapSense_CSHL.c **** #endif /* ((CapSense_TOTAL_RADIAL_SLIDERS_COUNT > 0u) || (CapSense_TOTAL_LINEAR_SLIDERS_COUNT > 0u)
1924:.\Generated_Source\PSoC4/CapSense_CSHL.c **** 
1925:.\Generated_Source\PSoC4/CapSense_CSHL.c **** 
1926:.\Generated_Source\PSoC4/CapSense_CSHL.c **** #if((CapSense_TOTAL_RADIAL_SLIDERS_COUNT > 0u) || (CapSense_TOTAL_LINEAR_SLIDERS_COUNT > 0u))
1927:.\Generated_Source\PSoC4/CapSense_CSHL.c ****     /*******************************************************************************
1928:.\Generated_Source\PSoC4/CapSense_CSHL.c ****     * Function Name: CapSense_GetRadialCentroidPos
1929:.\Generated_Source\PSoC4/CapSense_CSHL.c ****     ********************************************************************************
1930:.\Generated_Source\PSoC4/CapSense_CSHL.c ****     *
1931:.\Generated_Source\PSoC4/CapSense_CSHL.c ****     * Summary:
1932:.\Generated_Source\PSoC4/CapSense_CSHL.c ****     *  Checks the CapSense_Signal[ ] array for a centroid within
1933:.\Generated_Source\PSoC4/CapSense_CSHL.c ****     *  a slider specified range. The centroid position is calculated according to the resolution
1934:.\Generated_Source\PSoC4/CapSense_CSHL.c ****     *  specified in the CapSense customizer. The position filters are applied to the
1935:.\Generated_Source\PSoC4/CapSense_CSHL.c ****     *  result if enabled.
1936:.\Generated_Source\PSoC4/CapSense_CSHL.c ****     *
1937:.\Generated_Source\PSoC4/CapSense_CSHL.c ****     * Parameters:
1938:.\Generated_Source\PSoC4/CapSense_CSHL.c ****     *  widget:  Widget number.
1939:.\Generated_Source\PSoC4/CapSense_CSHL.c ****     *  For every radial slider widget there are defines in this format:
1940:.\Generated_Source\PSoC4/CapSense_CSHL.c ****     *  #define CapSense_"widget_name"__RS           5
1941:.\Generated_Source\PSoC4/CapSense_CSHL.c ****     * 
1942:.\Generated_Source\PSoC4/CapSense_CSHL.c ****     * Return:
1943:.\Generated_Source\PSoC4/CapSense_CSHL.c ****     *  Returns a position value of the radial slider.
1944:.\Generated_Source\PSoC4/CapSense_CSHL.c ****     *
1945:.\Generated_Source\PSoC4/CapSense_CSHL.c **** 	* Global Variables:
1946:.\Generated_Source\PSoC4/CapSense_CSHL.c **** 	*  None.
1947:.\Generated_Source\PSoC4/CapSense_CSHL.c **** 	*
1948:.\Generated_Source\PSoC4/CapSense_CSHL.c ****     * Side Effects:
1949:.\Generated_Source\PSoC4/CapSense_CSHL.c ****     *  If any sensor within the slider widget is active, the function returns values
1950:.\Generated_Source\PSoC4/CapSense_CSHL.c ****     *  from zero to the API resolution value set in the CapSense customizer. If no
1951:.\Generated_Source\PSoC4/CapSense_CSHL.c ****     *  sensors are active, the function returns 0xFFFF.
1952:.\Generated_Source\PSoC4/CapSense_CSHL.c ****     *  There are no checks of the widget type argument provided to this function.
ARM GAS  C:\Users\11401393\AppData\Local\Temp\ccv2tvsi.s 			page 52


1953:.\Generated_Source\PSoC4/CapSense_CSHL.c ****     *  The unproper widget type provided will cause unexpected position calculations.
1954:.\Generated_Source\PSoC4/CapSense_CSHL.c ****     *
1955:.\Generated_Source\PSoC4/CapSense_CSHL.c ****     * Note:
1956:.\Generated_Source\PSoC4/CapSense_CSHL.c ****     *  If noise counts on the slider segments are greater than the noise
1957:.\Generated_Source\PSoC4/CapSense_CSHL.c ****     *  threshold, this subroutine may generate a false centroid result. The noise
1958:.\Generated_Source\PSoC4/CapSense_CSHL.c ****     *  threshold should be set carefully (high enough above the noise level) so 
1959:.\Generated_Source\PSoC4/CapSense_CSHL.c ****     *  that noise will not generate a false centroid.
1960:.\Generated_Source\PSoC4/CapSense_CSHL.c ****     *
1961:.\Generated_Source\PSoC4/CapSense_CSHL.c ****     *******************************************************************************/
1962:.\Generated_Source\PSoC4/CapSense_CSHL.c ****      uint16 CapSense_GetRadialCentroidPos(uint32 widget)
1963:.\Generated_Source\PSoC4/CapSense_CSHL.c ****     {
1964:.\Generated_Source\PSoC4/CapSense_CSHL.c ****         #if (0u != CapSense_RADIAL_SLIDERS_POS_FILTERS_MASK)
1965:.\Generated_Source\PSoC4/CapSense_CSHL.c ****             uint8 posIndex;
1966:.\Generated_Source\PSoC4/CapSense_CSHL.c ****             uint8 firstTimeIndex = CapSense_posFiltersData[widget];
1967:.\Generated_Source\PSoC4/CapSense_CSHL.c ****             uint8 posFiltersMask = CapSense_posFiltersMask[widget]; 
1968:.\Generated_Source\PSoC4/CapSense_CSHL.c ****         #endif /* (0u != CapSense_RADIAL_SLIDERS_POS_FILTERS_MASK) */
1969:.\Generated_Source\PSoC4/CapSense_CSHL.c **** 
1970:.\Generated_Source\PSoC4/CapSense_CSHL.c ****         #if ((0u != (CapSense_MEDIAN_FILTER & CapSense_RADIAL_SLIDERS_POS_FILTERS_MASK)) || \
1971:.\Generated_Source\PSoC4/CapSense_CSHL.c ****              (0u != (CapSense_AVERAGING_FILTER & CapSense_RADIAL_SLIDERS_POS_FILTERS_MASK)))
1972:.\Generated_Source\PSoC4/CapSense_CSHL.c ****             uint8 tempPos;
1973:.\Generated_Source\PSoC4/CapSense_CSHL.c ****         #endif /* ((0u != (CapSense_MEDIAN_FILTER & CapSense_RADIAL_SLIDERS_POS_FILTERS_MASK)) || \
1974:.\Generated_Source\PSoC4/CapSense_CSHL.c ****                *   (0u != (CapSense_AVERAGING_FILTER & CapSense_RADIAL_SLIDERS_POS_FILTERS_MASK)))
1975:.\Generated_Source\PSoC4/CapSense_CSHL.c ****                */
1976:.\Generated_Source\PSoC4/CapSense_CSHL.c **** 
1977:.\Generated_Source\PSoC4/CapSense_CSHL.c ****         uint8 maximum;
1978:.\Generated_Source\PSoC4/CapSense_CSHL.c ****         uint16 position;
1979:.\Generated_Source\PSoC4/CapSense_CSHL.c ****         uint8 offset = CapSense_rawDataIndex[widget];
1980:.\Generated_Source\PSoC4/CapSense_CSHL.c ****         uint8 count = CapSense_numberOfSensors[widget];
1981:.\Generated_Source\PSoC4/CapSense_CSHL.c **** 
1982:.\Generated_Source\PSoC4/CapSense_CSHL.c **** 		/* Find Maximum within centroid */      
1983:.\Generated_Source\PSoC4/CapSense_CSHL.c **** 		#if (CapSense_IS_DIPLEX_SLIDER)        
1984:.\Generated_Source\PSoC4/CapSense_CSHL.c **** 			maximum = CapSense_FindMaximum(offset, count, (uint8)CapSense_fingerThreshold[widget], 0u);
1985:.\Generated_Source\PSoC4/CapSense_CSHL.c **** 		#else
1986:.\Generated_Source\PSoC4/CapSense_CSHL.c **** 			maximum = CapSense_FindMaximum(offset, count, (uint8)CapSense_fingerThreshold[widget]);
1987:.\Generated_Source\PSoC4/CapSense_CSHL.c **** 		#endif /* (CapSense_IS_DIPLEX_SLIDER) */
1988:.\Generated_Source\PSoC4/CapSense_CSHL.c ****         
1989:.\Generated_Source\PSoC4/CapSense_CSHL.c ****         if (maximum != CapSense_MAXIMUM_CENTROID)
1990:.\Generated_Source\PSoC4/CapSense_CSHL.c ****         {
1991:.\Generated_Source\PSoC4/CapSense_CSHL.c ****             /* Calculate centroid */
1992:.\Generated_Source\PSoC4/CapSense_CSHL.c ****             position = (uint16) CapSense_CalcCentroid(maximum, 
1993:.\Generated_Source\PSoC4/CapSense_CSHL.c ****                          offset, count, CapSense_centroidMult[widget], CapSense_noiseThreshold[widg
1994:.\Generated_Source\PSoC4/CapSense_CSHL.c **** 
1995:.\Generated_Source\PSoC4/CapSense_CSHL.c ****             #if (0u != CapSense_RADIAL_SLIDERS_POS_FILTERS_MASK)
1996:.\Generated_Source\PSoC4/CapSense_CSHL.c ****                 /* Check if this Radial slider has enabled filters */
1997:.\Generated_Source\PSoC4/CapSense_CSHL.c ****                 if (0u != (posFiltersMask & CapSense_ANY_POS_FILTER))
1998:.\Generated_Source\PSoC4/CapSense_CSHL.c ****                 {
1999:.\Generated_Source\PSoC4/CapSense_CSHL.c ****                     /* Calculate position to store filters data */
2000:.\Generated_Source\PSoC4/CapSense_CSHL.c ****                     posIndex  = firstTimeIndex + 1u;
2001:.\Generated_Source\PSoC4/CapSense_CSHL.c ****                     
2002:.\Generated_Source\PSoC4/CapSense_CSHL.c ****                     if (0u == CapSense_posFiltersData[firstTimeIndex])
2003:.\Generated_Source\PSoC4/CapSense_CSHL.c ****                     {
2004:.\Generated_Source\PSoC4/CapSense_CSHL.c ****                         /* Init filters */
2005:.\Generated_Source\PSoC4/CapSense_CSHL.c ****                         CapSense_posFiltersData[posIndex] = (uint8) position;
2006:.\Generated_Source\PSoC4/CapSense_CSHL.c ****                         #if ((0u != (CapSense_MEDIAN_FILTER & \
2007:.\Generated_Source\PSoC4/CapSense_CSHL.c ****                                      CapSense_RADIAL_SLIDERS_POS_FILTERS_MASK)) || \
2008:.\Generated_Source\PSoC4/CapSense_CSHL.c ****                              (0u != (CapSense_AVERAGING_FILTER & \
2009:.\Generated_Source\PSoC4/CapSense_CSHL.c ****                                      CapSense_RADIAL_SLIDERS_POS_FILTERS_MASK)))
ARM GAS  C:\Users\11401393\AppData\Local\Temp\ccv2tvsi.s 			page 53


2010:.\Generated_Source\PSoC4/CapSense_CSHL.c **** 
2011:.\Generated_Source\PSoC4/CapSense_CSHL.c ****                             if ( (0u != (posFiltersMask & CapSense_MEDIAN_FILTER))  || 
2012:.\Generated_Source\PSoC4/CapSense_CSHL.c ****                                  (0u != (posFiltersMask & CapSense_AVERAGING_FILTER)) )
2013:.\Generated_Source\PSoC4/CapSense_CSHL.c ****                             {
2014:.\Generated_Source\PSoC4/CapSense_CSHL.c ****                                 CapSense_posFiltersData[posIndex + 1u] = (uint8) position;
2015:.\Generated_Source\PSoC4/CapSense_CSHL.c ****                             }
2016:.\Generated_Source\PSoC4/CapSense_CSHL.c ****                         #endif /* ((0u != (CapSense_MEDIAN_FILTER & \
2017:.\Generated_Source\PSoC4/CapSense_CSHL.c ****                                *           CapSense_RADIAL_SLIDERS_POS_FILTERS_MASK)) || \
2018:.\Generated_Source\PSoC4/CapSense_CSHL.c ****                                *   (0u != (CapSense_AVERAGING_FILTER & \
2019:.\Generated_Source\PSoC4/CapSense_CSHL.c ****                                *           CapSense_RADIAL_SLIDERS_POS_FILTERS_MASK)))
2020:.\Generated_Source\PSoC4/CapSense_CSHL.c ****                                */
2021:.\Generated_Source\PSoC4/CapSense_CSHL.c ****                         
2022:.\Generated_Source\PSoC4/CapSense_CSHL.c ****                         CapSense_posFiltersData[firstTimeIndex] = 1u;
2023:.\Generated_Source\PSoC4/CapSense_CSHL.c ****                     }
2024:.\Generated_Source\PSoC4/CapSense_CSHL.c ****                     else
2025:.\Generated_Source\PSoC4/CapSense_CSHL.c ****                     {
2026:.\Generated_Source\PSoC4/CapSense_CSHL.c ****                         /* Do filtering */
2027:.\Generated_Source\PSoC4/CapSense_CSHL.c ****                         #if (0u != (CapSense_MEDIAN_FILTER & CapSense_RADIAL_SLIDERS_POS_FILTERS_MA
2028:.\Generated_Source\PSoC4/CapSense_CSHL.c ****                             if (0u != (posFiltersMask & CapSense_MEDIAN_FILTER))
2029:.\Generated_Source\PSoC4/CapSense_CSHL.c ****                             {
2030:.\Generated_Source\PSoC4/CapSense_CSHL.c ****                                 tempPos = (uint8) position;
2031:.\Generated_Source\PSoC4/CapSense_CSHL.c ****                                 position = CapSense_MedianFilter(position,
2032:.\Generated_Source\PSoC4/CapSense_CSHL.c ****                                                                         CapSense_posFiltersData[pos
2033:.\Generated_Source\PSoC4/CapSense_CSHL.c ****                                                                         CapSense_posFiltersData[pos
2034:.\Generated_Source\PSoC4/CapSense_CSHL.c ****                                 CapSense_posFiltersData[posIndex + 1u] = 
2035:.\Generated_Source\PSoC4/CapSense_CSHL.c ****                                                                               CapSense_posFiltersDa
2036:.\Generated_Source\PSoC4/CapSense_CSHL.c ****                                 CapSense_posFiltersData[posIndex] = tempPos;
2037:.\Generated_Source\PSoC4/CapSense_CSHL.c ****                             }
2038:.\Generated_Source\PSoC4/CapSense_CSHL.c ****                         #endif /* (0u != (CapSense_MEDIAN_FILTER & 
2039:.\Generated_Source\PSoC4/CapSense_CSHL.c ****                                *          CapSense_RADIAL_SLIDERS_POS_FILTERS_MASK))
2040:.\Generated_Source\PSoC4/CapSense_CSHL.c ****                                */
2041:.\Generated_Source\PSoC4/CapSense_CSHL.c **** 
2042:.\Generated_Source\PSoC4/CapSense_CSHL.c ****                         #if (0u != (CapSense_AVERAGING_FILTER & \
2043:.\Generated_Source\PSoC4/CapSense_CSHL.c ****                                     CapSense_RADIAL_SLIDERS_POS_FILTERS_MASK))
2044:.\Generated_Source\PSoC4/CapSense_CSHL.c ****                             if (0u != (posFiltersMask & CapSense_AVERAGING_FILTER))
2045:.\Generated_Source\PSoC4/CapSense_CSHL.c ****                             {
2046:.\Generated_Source\PSoC4/CapSense_CSHL.c ****                                 tempPos = (uint8) position;
2047:.\Generated_Source\PSoC4/CapSense_CSHL.c ****                                 position = CapSense_AveragingFilter(position, 
2048:.\Generated_Source\PSoC4/CapSense_CSHL.c ****                                                                        CapSense_posFiltersData[posI
2049:.\Generated_Source\PSoC4/CapSense_CSHL.c ****                                                                        CapSense_posFiltersData[posI
2050:.\Generated_Source\PSoC4/CapSense_CSHL.c ****                                 CapSense_posFiltersData[posIndex+1u]= CapSense_posFiltersData[posIn
2051:.\Generated_Source\PSoC4/CapSense_CSHL.c ****                                 CapSense_posFiltersData[posIndex] = tempPos;
2052:.\Generated_Source\PSoC4/CapSense_CSHL.c ****                             }
2053:.\Generated_Source\PSoC4/CapSense_CSHL.c ****                         #endif /* (0u != (CapSense_AVERAGING_FILTER & \
2054:.\Generated_Source\PSoC4/CapSense_CSHL.c ****                                *          CapSense_RADIAL_SLIDERS_POS_FILTERS_MASK))
2055:.\Generated_Source\PSoC4/CapSense_CSHL.c ****                                */
2056:.\Generated_Source\PSoC4/CapSense_CSHL.c **** 
2057:.\Generated_Source\PSoC4/CapSense_CSHL.c ****                         #if (0u != (CapSense_IIR2_FILTER & CapSense_RADIAL_SLIDERS_POS_FILTERS_MASK
2058:.\Generated_Source\PSoC4/CapSense_CSHL.c ****                             if (0u != (posFiltersMask & CapSense_IIR2_FILTER))
2059:.\Generated_Source\PSoC4/CapSense_CSHL.c ****                             {
2060:.\Generated_Source\PSoC4/CapSense_CSHL.c ****                                 position = CapSense_IIR2Filter(position,
2061:.\Generated_Source\PSoC4/CapSense_CSHL.c ****                                                                     (uint16)CapSense_posFiltersData
2062:.\Generated_Source\PSoC4/CapSense_CSHL.c ****                                 CapSense_posFiltersData[posIndex] = (uint8) position;
2063:.\Generated_Source\PSoC4/CapSense_CSHL.c ****                             }
2064:.\Generated_Source\PSoC4/CapSense_CSHL.c ****                         #endif /* (0u != (CapSense_IIR2_FILTER & 
2065:.\Generated_Source\PSoC4/CapSense_CSHL.c ****                                *          CapSense_RADIAL_SLIDERS_POS_FILTERS_MASK))
2066:.\Generated_Source\PSoC4/CapSense_CSHL.c ****                                */
ARM GAS  C:\Users\11401393\AppData\Local\Temp\ccv2tvsi.s 			page 54


2067:.\Generated_Source\PSoC4/CapSense_CSHL.c **** 
2068:.\Generated_Source\PSoC4/CapSense_CSHL.c ****                         #if (0u != (CapSense_IIR4_FILTER & CapSense_RADIAL_SLIDERS_POS_FILTERS_MASK
2069:.\Generated_Source\PSoC4/CapSense_CSHL.c ****                             if (0u != (posFiltersMask & CapSense_IIR4_FILTER))
2070:.\Generated_Source\PSoC4/CapSense_CSHL.c ****                             {
2071:.\Generated_Source\PSoC4/CapSense_CSHL.c ****                                 position = CapSense_IIR4Filter(position,
2072:.\Generated_Source\PSoC4/CapSense_CSHL.c ****                                                                     (uint16)CapSense_posFiltersData
2073:.\Generated_Source\PSoC4/CapSense_CSHL.c ****                                 CapSense_posFiltersData[posIndex] = (uint8) position;
2074:.\Generated_Source\PSoC4/CapSense_CSHL.c ****                             }
2075:.\Generated_Source\PSoC4/CapSense_CSHL.c ****                         #endif /* (0u != (CapSense_IIR4_FILTER & 
2076:.\Generated_Source\PSoC4/CapSense_CSHL.c ****                                *          CapSense_RADIAL_SLIDERS_POS_FILTERS_MASK))
2077:.\Generated_Source\PSoC4/CapSense_CSHL.c ****                                */
2078:.\Generated_Source\PSoC4/CapSense_CSHL.c **** 
2079:.\Generated_Source\PSoC4/CapSense_CSHL.c ****                         #if (0u != (CapSense_JITTER_FILTER & CapSense_RADIAL_SLIDERS_POS_FILTERS_MA
2080:.\Generated_Source\PSoC4/CapSense_CSHL.c ****                             if (0u != (posFiltersMask & CapSense_JITTER_FILTER))
2081:.\Generated_Source\PSoC4/CapSense_CSHL.c ****                             {
2082:.\Generated_Source\PSoC4/CapSense_CSHL.c ****                                 position = CapSense_JitterFilter(position, 
2083:.\Generated_Source\PSoC4/CapSense_CSHL.c ****                                                                          CapSense_posFiltersData[po
2084:.\Generated_Source\PSoC4/CapSense_CSHL.c ****                                 CapSense_posFiltersData[posIndex] = (uint8) position;
2085:.\Generated_Source\PSoC4/CapSense_CSHL.c ****                             }
2086:.\Generated_Source\PSoC4/CapSense_CSHL.c ****                         #endif /* (0u != (CapSense_JITTER_FILTER &
2087:.\Generated_Source\PSoC4/CapSense_CSHL.c ****                                *           CapSense_RADIAL_SLIDERS_POS_FILTERS_MASK))
2088:.\Generated_Source\PSoC4/CapSense_CSHL.c ****                                */
2089:.\Generated_Source\PSoC4/CapSense_CSHL.c ****                     }
2090:.\Generated_Source\PSoC4/CapSense_CSHL.c ****                 }
2091:.\Generated_Source\PSoC4/CapSense_CSHL.c ****             #endif /* (0u != CapSense_RADIAL_SLIDERS_POS_FILTERS_MASK) */
2092:.\Generated_Source\PSoC4/CapSense_CSHL.c **** 
2093:.\Generated_Source\PSoC4/CapSense_CSHL.c ****         }
2094:.\Generated_Source\PSoC4/CapSense_CSHL.c ****         else
2095:.\Generated_Source\PSoC4/CapSense_CSHL.c ****         {
2096:.\Generated_Source\PSoC4/CapSense_CSHL.c ****             /* Maximum was not found */
2097:.\Generated_Source\PSoC4/CapSense_CSHL.c ****             position = 0xFFFFu;
2098:.\Generated_Source\PSoC4/CapSense_CSHL.c **** 
2099:.\Generated_Source\PSoC4/CapSense_CSHL.c ****             #if (0u != CapSense_RADIAL_SLIDERS_POS_FILTERS_MASK)
2100:.\Generated_Source\PSoC4/CapSense_CSHL.c ****                 /* Reset filters */
2101:.\Generated_Source\PSoC4/CapSense_CSHL.c ****                 if((posFiltersMask & CapSense_ANY_POS_FILTER) != 0u)
2102:.\Generated_Source\PSoC4/CapSense_CSHL.c ****                 {
2103:.\Generated_Source\PSoC4/CapSense_CSHL.c ****                     CapSense_posFiltersData[firstTimeIndex] = 0u;
2104:.\Generated_Source\PSoC4/CapSense_CSHL.c ****                 }
2105:.\Generated_Source\PSoC4/CapSense_CSHL.c ****             #endif /* (0u != CapSense_RADIAL_SLIDERS_POS_FILTERS_MASK) */
2106:.\Generated_Source\PSoC4/CapSense_CSHL.c ****         }
2107:.\Generated_Source\PSoC4/CapSense_CSHL.c ****         
2108:.\Generated_Source\PSoC4/CapSense_CSHL.c ****         return (position);
2109:.\Generated_Source\PSoC4/CapSense_CSHL.c ****     }
2110:.\Generated_Source\PSoC4/CapSense_CSHL.c **** #endif /* ((CapSense_TOTAL_RADIAL_SLIDERS_COUNT > 0u) || (CapSense_TOTAL_LINEAR_SLIDERS_COUNT > 0u)
2111:.\Generated_Source\PSoC4/CapSense_CSHL.c **** 
2112:.\Generated_Source\PSoC4/CapSense_CSHL.c **** 
2113:.\Generated_Source\PSoC4/CapSense_CSHL.c **** #if(CapSense_TOTAL_TOUCH_PADS_BASIC_COUNT > 0u)
2114:.\Generated_Source\PSoC4/CapSense_CSHL.c ****     /*******************************************************************************
2115:.\Generated_Source\PSoC4/CapSense_CSHL.c ****     * Function Name: CapSense_GetTouchCentroidPos
2116:.\Generated_Source\PSoC4/CapSense_CSHL.c ****     ********************************************************************************
2117:.\Generated_Source\PSoC4/CapSense_CSHL.c ****     *
2118:.\Generated_Source\PSoC4/CapSense_CSHL.c ****     * Summary:
2119:.\Generated_Source\PSoC4/CapSense_CSHL.c ****     *  If a finger is present on a touchpad, this function calculates the X and Y
2120:.\Generated_Source\PSoC4/CapSense_CSHL.c ****     *  position of the finger by calculating the centroids within touchpad specified
2121:.\Generated_Source\PSoC4/CapSense_CSHL.c ****     *  range. The X and Y positions are calculated according to the API resolutions set in the
2122:.\Generated_Source\PSoC4/CapSense_CSHL.c ****     *  CapSense customizer. Returns 1 if a finger is on the touchpad.
2123:.\Generated_Source\PSoC4/CapSense_CSHL.c ****     *  The position filter is applied to the result if enabled.
ARM GAS  C:\Users\11401393\AppData\Local\Temp\ccv2tvsi.s 			page 55


2124:.\Generated_Source\PSoC4/CapSense_CSHL.c ****     *  This function is available only if a touch pad is defined by the CapSense
2125:.\Generated_Source\PSoC4/CapSense_CSHL.c ****     *  customizer.
2126:.\Generated_Source\PSoC4/CapSense_CSHL.c ****     *
2127:.\Generated_Source\PSoC4/CapSense_CSHL.c ****     * Parameters:
2128:.\Generated_Source\PSoC4/CapSense_CSHL.c ****     *  widget:  Widget number. 
2129:.\Generated_Source\PSoC4/CapSense_CSHL.c ****     *  For every touchpad widget there are defines in this format:
2130:.\Generated_Source\PSoC4/CapSense_CSHL.c ****     *  #define CapSense_"widget_name"__TP            5
2131:.\Generated_Source\PSoC4/CapSense_CSHL.c ****     *
2132:.\Generated_Source\PSoC4/CapSense_CSHL.c ****     *  pos:     Pointer to the array of two uint16 elements, where result
2133:.\Generated_Source\PSoC4/CapSense_CSHL.c ****     *  result of calculation of X and Y position are stored.
2134:.\Generated_Source\PSoC4/CapSense_CSHL.c ****     *  pos[0u]  - position of X
2135:.\Generated_Source\PSoC4/CapSense_CSHL.c ****     *  pos[1u]  - position of Y
2136:.\Generated_Source\PSoC4/CapSense_CSHL.c ****     *
2137:.\Generated_Source\PSoC4/CapSense_CSHL.c ****     * Return:
2138:.\Generated_Source\PSoC4/CapSense_CSHL.c ****     *  Returns a 1 if a finger is on the touch pad, 0 - if not.
2139:.\Generated_Source\PSoC4/CapSense_CSHL.c **** 	*
2140:.\Generated_Source\PSoC4/CapSense_CSHL.c **** 	* Global Variables:
2141:.\Generated_Source\PSoC4/CapSense_CSHL.c **** 	*  None.
2142:.\Generated_Source\PSoC4/CapSense_CSHL.c **** 	*
2143:.\Generated_Source\PSoC4/CapSense_CSHL.c ****     * Side Effects:
2144:.\Generated_Source\PSoC4/CapSense_CSHL.c ****     *   There are no checks of the widget type argument provided to this function.
2145:.\Generated_Source\PSoC4/CapSense_CSHL.c ****     *   The unproper widget type provided will cause unexpected position
2146:.\Generated_Source\PSoC4/CapSense_CSHL.c ****     *   calculations.
2147:.\Generated_Source\PSoC4/CapSense_CSHL.c ****     *
2148:.\Generated_Source\PSoC4/CapSense_CSHL.c ****     *******************************************************************************/
2149:.\Generated_Source\PSoC4/CapSense_CSHL.c ****     uint32 CapSense_GetTouchCentroidPos(uint32 widget, uint16* pos)
2150:.\Generated_Source\PSoC4/CapSense_CSHL.c ****     {
2151:.\Generated_Source\PSoC4/CapSense_CSHL.c ****         #if (0u != CapSense_TOUCH_PADS_POS_FILTERS_MASK)
2152:.\Generated_Source\PSoC4/CapSense_CSHL.c ****             uint8 posXIndex;
2153:.\Generated_Source\PSoC4/CapSense_CSHL.c ****             uint8 posYIndex;
2154:.\Generated_Source\PSoC4/CapSense_CSHL.c ****             uint8 firstTimeIndex = CapSense_posFiltersData[widget];
2155:.\Generated_Source\PSoC4/CapSense_CSHL.c ****             uint8 posFiltersMask = CapSense_posFiltersMask[widget];
2156:.\Generated_Source\PSoC4/CapSense_CSHL.c ****         #endif /* (0u != CapSense_TOUCH_PADS_POS_FILTERS_MASK) */
2157:.\Generated_Source\PSoC4/CapSense_CSHL.c **** 
2158:.\Generated_Source\PSoC4/CapSense_CSHL.c ****         #if ((0u != (CapSense_MEDIAN_FILTER & CapSense_TOUCH_PADS_POS_FILTERS_MASK)) || \
2159:.\Generated_Source\PSoC4/CapSense_CSHL.c ****              (0u != (CapSense_AVERAGING_FILTER & CapSense_TOUCH_PADS_POS_FILTERS_MASK)))
2160:.\Generated_Source\PSoC4/CapSense_CSHL.c ****             uint16 tempPos;
2161:.\Generated_Source\PSoC4/CapSense_CSHL.c ****         #endif /* ((0u != (CapSense_MEDIAN_FILTER & CapSense_TOUCH_PADS_POS_FILTERS_MASK)) || \
2162:.\Generated_Source\PSoC4/CapSense_CSHL.c ****                *   (0u != (CapSense_AVERAGING_FILTER & CapSense_TOUCH_PADS_POS_FILTERS_MASK)))
2163:.\Generated_Source\PSoC4/CapSense_CSHL.c ****                */
2164:.\Generated_Source\PSoC4/CapSense_CSHL.c **** 
2165:.\Generated_Source\PSoC4/CapSense_CSHL.c ****         uint8 MaxX;
2166:.\Generated_Source\PSoC4/CapSense_CSHL.c ****         uint8 MaxY;
2167:.\Generated_Source\PSoC4/CapSense_CSHL.c ****         uint8 posX;
2168:.\Generated_Source\PSoC4/CapSense_CSHL.c ****         uint8 posY;
2169:.\Generated_Source\PSoC4/CapSense_CSHL.c ****         uint32 touch = 0u;
2170:.\Generated_Source\PSoC4/CapSense_CSHL.c ****         uint8 offset = CapSense_rawDataIndex[widget];
2171:.\Generated_Source\PSoC4/CapSense_CSHL.c ****         uint8 count = CapSense_numberOfSensors[widget];
2172:.\Generated_Source\PSoC4/CapSense_CSHL.c ****         
2173:.\Generated_Source\PSoC4/CapSense_CSHL.c ****         /* Find Maximum within X centroid */
2174:.\Generated_Source\PSoC4/CapSense_CSHL.c ****         #if (CapSense_IS_DIPLEX_SLIDER)
2175:.\Generated_Source\PSoC4/CapSense_CSHL.c ****             MaxX = CapSense_FindMaximum(offset, count, CapSense_fingerThreshold[widget], 0u);
2176:.\Generated_Source\PSoC4/CapSense_CSHL.c ****         #else
2177:.\Generated_Source\PSoC4/CapSense_CSHL.c ****             MaxX = CapSense_FindMaximum(offset, count, CapSense_fingerThreshold[widget]);
2178:.\Generated_Source\PSoC4/CapSense_CSHL.c ****         #endif /* (CapSense_IS_DIPLEX_SLIDER) */
2179:.\Generated_Source\PSoC4/CapSense_CSHL.c **** 
2180:.\Generated_Source\PSoC4/CapSense_CSHL.c ****         if (MaxX != CapSense_MAXIMUM_CENTROID)
ARM GAS  C:\Users\11401393\AppData\Local\Temp\ccv2tvsi.s 			page 56


2181:.\Generated_Source\PSoC4/CapSense_CSHL.c ****         {
2182:.\Generated_Source\PSoC4/CapSense_CSHL.c ****             offset = CapSense_rawDataIndex[widget + 1u];
2183:.\Generated_Source\PSoC4/CapSense_CSHL.c ****             count = CapSense_numberOfSensors[widget + 1u];
2184:.\Generated_Source\PSoC4/CapSense_CSHL.c **** 
2185:.\Generated_Source\PSoC4/CapSense_CSHL.c ****             /* Find Maximum within Y centroid */
2186:.\Generated_Source\PSoC4/CapSense_CSHL.c ****             #if (CapSense_IS_DIPLEX_SLIDER)
2187:.\Generated_Source\PSoC4/CapSense_CSHL.c ****                 MaxY = CapSense_FindMaximum(offset, count, CapSense_fingerThreshold[widget + 1u], 0
2188:.\Generated_Source\PSoC4/CapSense_CSHL.c ****             #else
2189:.\Generated_Source\PSoC4/CapSense_CSHL.c ****                 MaxY = CapSense_FindMaximum(offset, count, CapSense_fingerThreshold[widget + 1u]);
2190:.\Generated_Source\PSoC4/CapSense_CSHL.c ****             #endif /* (CapSense_IS_DIPLEX_SLIDER) */
2191:.\Generated_Source\PSoC4/CapSense_CSHL.c **** 
2192:.\Generated_Source\PSoC4/CapSense_CSHL.c ****             if (MaxY != CapSense_MAXIMUM_CENTROID)
2193:.\Generated_Source\PSoC4/CapSense_CSHL.c ****             {
2194:.\Generated_Source\PSoC4/CapSense_CSHL.c ****                 /* X and Y maximums are found = true touch */
2195:.\Generated_Source\PSoC4/CapSense_CSHL.c ****                 touch = 1u;
2196:.\Generated_Source\PSoC4/CapSense_CSHL.c ****                 
2197:.\Generated_Source\PSoC4/CapSense_CSHL.c ****                 /* Calculate Y centroid */
2198:.\Generated_Source\PSoC4/CapSense_CSHL.c ****                 posY = CapSense_CalcCentroid(MaxY, offset, count, 
2199:.\Generated_Source\PSoC4/CapSense_CSHL.c ****                             CapSense_centroidMult[widget + 1u], CapSense_noiseThreshold[widget + 1u
2200:.\Generated_Source\PSoC4/CapSense_CSHL.c ****                 
2201:.\Generated_Source\PSoC4/CapSense_CSHL.c ****                 /* Calculate X centroid */
2202:.\Generated_Source\PSoC4/CapSense_CSHL.c ****                 offset = CapSense_rawDataIndex[widget];
2203:.\Generated_Source\PSoC4/CapSense_CSHL.c ****                 count = CapSense_numberOfSensors[widget];
2204:.\Generated_Source\PSoC4/CapSense_CSHL.c ****                 
2205:.\Generated_Source\PSoC4/CapSense_CSHL.c ****                 posX = CapSense_CalcCentroid(MaxX, offset, count, 
2206:.\Generated_Source\PSoC4/CapSense_CSHL.c ****                             CapSense_centroidMult[widget],CapSense_noiseThreshold[widget]);
2207:.\Generated_Source\PSoC4/CapSense_CSHL.c ****     
2208:.\Generated_Source\PSoC4/CapSense_CSHL.c ****                 #if (0u != CapSense_TOUCH_PADS_POS_FILTERS_MASK)
2209:.\Generated_Source\PSoC4/CapSense_CSHL.c ****                     /* Check if this TP has enabled filters */
2210:.\Generated_Source\PSoC4/CapSense_CSHL.c ****                     if (0u != (posFiltersMask & CapSense_ANY_POS_FILTER))
2211:.\Generated_Source\PSoC4/CapSense_CSHL.c ****                     {
2212:.\Generated_Source\PSoC4/CapSense_CSHL.c ****                         /* Calculate position to store filters data */
2213:.\Generated_Source\PSoC4/CapSense_CSHL.c ****                         posXIndex  = firstTimeIndex + 1u;
2214:.\Generated_Source\PSoC4/CapSense_CSHL.c ****                         posYIndex  = CapSense_posFiltersData[widget + 1u];
2215:.\Generated_Source\PSoC4/CapSense_CSHL.c ****                         
2216:.\Generated_Source\PSoC4/CapSense_CSHL.c ****                         if (0u == CapSense_posFiltersData[firstTimeIndex])
2217:.\Generated_Source\PSoC4/CapSense_CSHL.c ****                         {
2218:.\Generated_Source\PSoC4/CapSense_CSHL.c ****                             /* Init filters */
2219:.\Generated_Source\PSoC4/CapSense_CSHL.c ****                             CapSense_posFiltersData[posXIndex] = posX;
2220:.\Generated_Source\PSoC4/CapSense_CSHL.c ****                             CapSense_posFiltersData[posYIndex] = posY;
2221:.\Generated_Source\PSoC4/CapSense_CSHL.c **** 
2222:.\Generated_Source\PSoC4/CapSense_CSHL.c ****                             #if((0u != (CapSense_MEDIAN_FILTER & \
2223:.\Generated_Source\PSoC4/CapSense_CSHL.c ****                                         CapSense_TOUCH_PADS_POS_FILTERS_MASK))|| \
2224:.\Generated_Source\PSoC4/CapSense_CSHL.c ****                                 (0u != (CapSense_AVERAGING_FILTER & \
2225:.\Generated_Source\PSoC4/CapSense_CSHL.c ****                                         CapSense_TOUCH_PADS_POS_FILTERS_MASK)))
2226:.\Generated_Source\PSoC4/CapSense_CSHL.c **** 
2227:.\Generated_Source\PSoC4/CapSense_CSHL.c ****                                 if ( (0u != (posFiltersMask & CapSense_MEDIAN_FILTER)) || 
2228:.\Generated_Source\PSoC4/CapSense_CSHL.c ****                                      (0u != (posFiltersMask & CapSense_AVERAGING_FILTER)) )
2229:.\Generated_Source\PSoC4/CapSense_CSHL.c ****                                 {
2230:.\Generated_Source\PSoC4/CapSense_CSHL.c ****                                     CapSense_posFiltersData[posXIndex + 1u] = posX;
2231:.\Generated_Source\PSoC4/CapSense_CSHL.c ****                                     CapSense_posFiltersData[posYIndex + 1u] = posY;
2232:.\Generated_Source\PSoC4/CapSense_CSHL.c ****                                 }
2233:.\Generated_Source\PSoC4/CapSense_CSHL.c ****                             #endif /* ((0u != (CapSense_MEDIAN_FILTER & \
2234:.\Generated_Source\PSoC4/CapSense_CSHL.c ****                                    *           CapSense_TOUCH_PADS_POS_FILTERS_MASK)) || \
2235:.\Generated_Source\PSoC4/CapSense_CSHL.c ****                                    *    (0u != (CapSense_AVERAGING_FILTER & \
2236:.\Generated_Source\PSoC4/CapSense_CSHL.c ****                                    *            CapSense_TOUCH_PADS_POS_FILTERS_MASK)))
2237:.\Generated_Source\PSoC4/CapSense_CSHL.c ****                                    */
ARM GAS  C:\Users\11401393\AppData\Local\Temp\ccv2tvsi.s 			page 57


2238:.\Generated_Source\PSoC4/CapSense_CSHL.c ****                             
2239:.\Generated_Source\PSoC4/CapSense_CSHL.c ****                             CapSense_posFiltersData[firstTimeIndex] = 1u;
2240:.\Generated_Source\PSoC4/CapSense_CSHL.c ****                         }
2241:.\Generated_Source\PSoC4/CapSense_CSHL.c ****                         else
2242:.\Generated_Source\PSoC4/CapSense_CSHL.c ****                         {
2243:.\Generated_Source\PSoC4/CapSense_CSHL.c ****                             /* Do filtering */
2244:.\Generated_Source\PSoC4/CapSense_CSHL.c ****                             #if (0u != (CapSense_MEDIAN_FILTER & CapSense_TOUCH_PADS_POS_FILTERS_MA
2245:.\Generated_Source\PSoC4/CapSense_CSHL.c ****                                 if (0u != (posFiltersMask & CapSense_MEDIAN_FILTER))
2246:.\Generated_Source\PSoC4/CapSense_CSHL.c ****                                 {
2247:.\Generated_Source\PSoC4/CapSense_CSHL.c ****                                     tempPos = posX;
2248:.\Generated_Source\PSoC4/CapSense_CSHL.c ****                                     posX = (uint8) CapSense_MedianFilter(posX,
2249:.\Generated_Source\PSoC4/CapSense_CSHL.c ****                                                                       CapSense_posFiltersData[posXI
2250:.\Generated_Source\PSoC4/CapSense_CSHL.c ****                                                                       CapSense_posFiltersData[posXI
2251:.\Generated_Source\PSoC4/CapSense_CSHL.c ****                                     CapSense_posFiltersData[posXIndex + 1u] = 
2252:.\Generated_Source\PSoC4/CapSense_CSHL.c ****                                                                              CapSense_posFiltersDat
2253:.\Generated_Source\PSoC4/CapSense_CSHL.c ****                                     CapSense_posFiltersData[posXIndex] = tempPos;
2254:.\Generated_Source\PSoC4/CapSense_CSHL.c ****                                     
2255:.\Generated_Source\PSoC4/CapSense_CSHL.c ****                                     tempPos = posY;
2256:.\Generated_Source\PSoC4/CapSense_CSHL.c ****                                     posY = (uint8) CapSense_MedianFilter(posY,
2257:.\Generated_Source\PSoC4/CapSense_CSHL.c ****                                                                        CapSense_posFiltersData[posY
2258:.\Generated_Source\PSoC4/CapSense_CSHL.c ****                                                                        CapSense_posFiltersData[posY
2259:.\Generated_Source\PSoC4/CapSense_CSHL.c ****                                     CapSense_posFiltersData[posYIndex + 1u] = 
2260:.\Generated_Source\PSoC4/CapSense_CSHL.c ****                                                                              CapSense_posFiltersDat
2261:.\Generated_Source\PSoC4/CapSense_CSHL.c ****                                     CapSense_posFiltersData[posYIndex] = tempPos;
2262:.\Generated_Source\PSoC4/CapSense_CSHL.c ****                                 }
2263:.\Generated_Source\PSoC4/CapSense_CSHL.c ****                                 
2264:.\Generated_Source\PSoC4/CapSense_CSHL.c ****                             #endif /* (0u != (CapSense_MEDIAN_FILTER & \
2265:.\Generated_Source\PSoC4/CapSense_CSHL.c ****                                    *          CapSense_TOUCH_PADS_POS_FILTERS_MASK))
2266:.\Generated_Source\PSoC4/CapSense_CSHL.c ****                                    */
2267:.\Generated_Source\PSoC4/CapSense_CSHL.c **** 
2268:.\Generated_Source\PSoC4/CapSense_CSHL.c ****                             #if(0u !=(CapSense_AVERAGING_FILTER & CapSense_TOUCH_PADS_POS_FILTERS_M
2269:.\Generated_Source\PSoC4/CapSense_CSHL.c ****                                 if (0u != (posFiltersMask & CapSense_AVERAGING_FILTER))
2270:.\Generated_Source\PSoC4/CapSense_CSHL.c ****                                 {
2271:.\Generated_Source\PSoC4/CapSense_CSHL.c ****                                     tempPos = posX;
2272:.\Generated_Source\PSoC4/CapSense_CSHL.c ****                                     posX = (uint8) CapSense_AveragingFilter(posX,
2273:.\Generated_Source\PSoC4/CapSense_CSHL.c ****                                                                        CapSense_posFiltersData[posX
2274:.\Generated_Source\PSoC4/CapSense_CSHL.c ****                                                                        CapSense_posFiltersData[posX
2275:.\Generated_Source\PSoC4/CapSense_CSHL.c ****                                     CapSense_posFiltersData[posXIndex + 1u] = 
2276:.\Generated_Source\PSoC4/CapSense_CSHL.c ****                                                                              CapSense_posFiltersDat
2277:.\Generated_Source\PSoC4/CapSense_CSHL.c ****                                     CapSense_posFiltersData[posXIndex] = tempPos;
2278:.\Generated_Source\PSoC4/CapSense_CSHL.c ****                                     
2279:.\Generated_Source\PSoC4/CapSense_CSHL.c ****                                     tempPos = posY;
2280:.\Generated_Source\PSoC4/CapSense_CSHL.c ****                                     posY = (uint8) CapSense_AveragingFilter(posY, 
2281:.\Generated_Source\PSoC4/CapSense_CSHL.c ****                                                                       CapSense_posFiltersData[posYI
2282:.\Generated_Source\PSoC4/CapSense_CSHL.c ****                                                                       CapSense_posFiltersData[posYI
2283:.\Generated_Source\PSoC4/CapSense_CSHL.c ****                                     CapSense_posFiltersData[posYIndex + 1u] = 
2284:.\Generated_Source\PSoC4/CapSense_CSHL.c ****                                                                             CapSense_posFiltersData
2285:.\Generated_Source\PSoC4/CapSense_CSHL.c ****                                     CapSense_posFiltersData[posYIndex] = tempPos;
2286:.\Generated_Source\PSoC4/CapSense_CSHL.c ****                                 }
2287:.\Generated_Source\PSoC4/CapSense_CSHL.c **** 
2288:.\Generated_Source\PSoC4/CapSense_CSHL.c ****                             #endif /* (0u != (CapSense_AVERAGING_FILTER & \
2289:.\Generated_Source\PSoC4/CapSense_CSHL.c ****                                    *           CapSense_TOUCH_PADS_POS_FILTERS_MASK))
2290:.\Generated_Source\PSoC4/CapSense_CSHL.c ****                                    */
2291:.\Generated_Source\PSoC4/CapSense_CSHL.c **** 
2292:.\Generated_Source\PSoC4/CapSense_CSHL.c ****                             #if (0u != (CapSense_IIR2_FILTER & CapSense_TOUCH_PADS_POS_FILTERS_MASK
2293:.\Generated_Source\PSoC4/CapSense_CSHL.c ****                                 if (0u != (posFiltersMask & CapSense_IIR2_FILTER))
2294:.\Generated_Source\PSoC4/CapSense_CSHL.c ****                                 {
ARM GAS  C:\Users\11401393\AppData\Local\Temp\ccv2tvsi.s 			page 58


2295:.\Generated_Source\PSoC4/CapSense_CSHL.c ****                                     posX = (uint8) CapSense_IIR2Filter(posX, 
2296:.\Generated_Source\PSoC4/CapSense_CSHL.c ****                                                                            CapSense_posFiltersData[
2297:.\Generated_Source\PSoC4/CapSense_CSHL.c ****                                     CapSense_posFiltersData[posXIndex] = posX;
2298:.\Generated_Source\PSoC4/CapSense_CSHL.c ****                                     
2299:.\Generated_Source\PSoC4/CapSense_CSHL.c ****                                     posY = (uint8) CapSense_IIR2Filter(posY, 
2300:.\Generated_Source\PSoC4/CapSense_CSHL.c ****                                                                             CapSense_posFiltersData
2301:.\Generated_Source\PSoC4/CapSense_CSHL.c ****                                     CapSense_posFiltersData[posYIndex] = posY;
2302:.\Generated_Source\PSoC4/CapSense_CSHL.c ****                                 }
2303:.\Generated_Source\PSoC4/CapSense_CSHL.c ****                                 
2304:.\Generated_Source\PSoC4/CapSense_CSHL.c ****                             #endif /* (0u != (CapSense_IIR2_FILTER & \
2305:.\Generated_Source\PSoC4/CapSense_CSHL.c ****                                    *          CapSense_TOUCH_PADS_POS_FILTERS_MASK))
2306:.\Generated_Source\PSoC4/CapSense_CSHL.c ****                                    */
2307:.\Generated_Source\PSoC4/CapSense_CSHL.c **** 
2308:.\Generated_Source\PSoC4/CapSense_CSHL.c ****                             #if (0u != (CapSense_IIR4_FILTER & CapSense_TOUCH_PADS_POS_FILTERS_MASK
2309:.\Generated_Source\PSoC4/CapSense_CSHL.c ****                                 if (0u != (posFiltersMask & CapSense_IIR4_FILTER))
2310:.\Generated_Source\PSoC4/CapSense_CSHL.c ****                                 {
2311:.\Generated_Source\PSoC4/CapSense_CSHL.c ****                                     posX = (uint8) CapSense_IIR4Filter((uint16)posX,
2312:.\Generated_Source\PSoC4/CapSense_CSHL.c ****                                                                     (uint16)CapSense_posFiltersData
2313:.\Generated_Source\PSoC4/CapSense_CSHL.c ****                                     CapSense_posFiltersData[posXIndex] = posX;
2314:.\Generated_Source\PSoC4/CapSense_CSHL.c **** 
2315:.\Generated_Source\PSoC4/CapSense_CSHL.c ****                                     posY = (uint8) CapSense_IIR4Filter((uint16)posY,
2316:.\Generated_Source\PSoC4/CapSense_CSHL.c ****                                                                     (uint16)CapSense_posFiltersData
2317:.\Generated_Source\PSoC4/CapSense_CSHL.c ****                                     CapSense_posFiltersData[posYIndex] = posY;
2318:.\Generated_Source\PSoC4/CapSense_CSHL.c ****                                 }
2319:.\Generated_Source\PSoC4/CapSense_CSHL.c ****                                 
2320:.\Generated_Source\PSoC4/CapSense_CSHL.c ****                             #endif /* (0u != (CapSense_IIR4_FILTER & \
2321:.\Generated_Source\PSoC4/CapSense_CSHL.c ****                                    *           CapSense_TOUCH_PADS_POS_FILTERS_MASK))
2322:.\Generated_Source\PSoC4/CapSense_CSHL.c ****                                    */
2323:.\Generated_Source\PSoC4/CapSense_CSHL.c **** 
2324:.\Generated_Source\PSoC4/CapSense_CSHL.c ****                             #if (0u != (CapSense_JITTER_FILTER & CapSense_TOUCH_PADS_POS_FILTERS_MA
2325:.\Generated_Source\PSoC4/CapSense_CSHL.c ****                                 if (0u != (posFiltersMask & CapSense_JITTER_FILTER))
2326:.\Generated_Source\PSoC4/CapSense_CSHL.c ****                                     {
