ARM GAS  C:\Users\11401393\AppData\Local\Temp\ccqPGSN4.s 			page 1


   1              		.cpu cortex-m0
   2              		.fpu softvfp
   3              		.eabi_attribute 20, 1
   4              		.eabi_attribute 21, 1
   5              		.eabi_attribute 23, 3
   6              		.eabi_attribute 24, 1
   7              		.eabi_attribute 25, 1
   8              		.eabi_attribute 26, 1
   9              		.eabi_attribute 30, 1
  10              		.eabi_attribute 34, 0
  11              		.eabi_attribute 18, 4
  12              		.code	16
  13              		.file	"cyfitter_cfg.c"
  14              		.text
  15              	.Ltext0:
  16              		.cfi_sections	.debug_frame
  17              		.section	.text.cfg_write_bytes32,"ax",%progbits
  18              		.align	2
  19              		.code	16
  20              		.thumb_func
  21              		.type	cfg_write_bytes32, %function
  22              	cfg_write_bytes32:
  23              	.LFB4:
  24              		.file 1 ".\\Generated_Source\\PSoC4\\cyfitter_cfg.c"
   1:.\Generated_Source\PSoC4/cyfitter_cfg.c **** /*******************************************************************************
   2:.\Generated_Source\PSoC4/cyfitter_cfg.c **** * FILENAME: cyfitter_cfg.c
   3:.\Generated_Source\PSoC4/cyfitter_cfg.c **** * 
   4:.\Generated_Source\PSoC4/cyfitter_cfg.c **** * PSoC Creator  3.2
   5:.\Generated_Source\PSoC4/cyfitter_cfg.c **** *
   6:.\Generated_Source\PSoC4/cyfitter_cfg.c **** * DESCRIPTION:
   7:.\Generated_Source\PSoC4/cyfitter_cfg.c **** * This file contains device initialization code.
   8:.\Generated_Source\PSoC4/cyfitter_cfg.c **** * Except for the user defined sections in CyClockStartupError(), this file should not be modified.
   9:.\Generated_Source\PSoC4/cyfitter_cfg.c **** * This file is automatically generated by PSoC Creator.
  10:.\Generated_Source\PSoC4/cyfitter_cfg.c **** *
  11:.\Generated_Source\PSoC4/cyfitter_cfg.c **** ********************************************************************************
  12:.\Generated_Source\PSoC4/cyfitter_cfg.c **** * Copyright (c) 2007-2015 Cypress Semiconductor.  All rights reserved.
  13:.\Generated_Source\PSoC4/cyfitter_cfg.c **** * You may use this file only in accordance with the license, terms, conditions, 
  14:.\Generated_Source\PSoC4/cyfitter_cfg.c **** * disclaimers, and limitations in the end user license agreement accompanying 
  15:.\Generated_Source\PSoC4/cyfitter_cfg.c **** * the software package with which this file was provided.
  16:.\Generated_Source\PSoC4/cyfitter_cfg.c **** ********************************************************************************/
  17:.\Generated_Source\PSoC4/cyfitter_cfg.c **** 
  18:.\Generated_Source\PSoC4/cyfitter_cfg.c **** #include <string.h>
  19:.\Generated_Source\PSoC4/cyfitter_cfg.c **** #include "cytypes.h"
  20:.\Generated_Source\PSoC4/cyfitter_cfg.c **** #include "cydevice_trm.h"
  21:.\Generated_Source\PSoC4/cyfitter_cfg.c **** #include "cyfitter.h"
  22:.\Generated_Source\PSoC4/cyfitter_cfg.c **** #include "CyLib.h"
  23:.\Generated_Source\PSoC4/cyfitter_cfg.c **** #include "CyLFClk.h"
  24:.\Generated_Source\PSoC4/cyfitter_cfg.c **** #include "cyfitter_cfg.h"
  25:.\Generated_Source\PSoC4/cyfitter_cfg.c **** 
  26:.\Generated_Source\PSoC4/cyfitter_cfg.c **** 
  27:.\Generated_Source\PSoC4/cyfitter_cfg.c **** #if defined(__GNUC__) || defined(__ARMCC_VERSION)
  28:.\Generated_Source\PSoC4/cyfitter_cfg.c ****     #define CYPACKED 
  29:.\Generated_Source\PSoC4/cyfitter_cfg.c ****     #define CYPACKED_ATTR __attribute__ ((packed))
  30:.\Generated_Source\PSoC4/cyfitter_cfg.c ****     #define CYALIGNED __attribute__ ((aligned))
  31:.\Generated_Source\PSoC4/cyfitter_cfg.c ****     #define CY_CFG_UNUSED __attribute__ ((unused))
  32:.\Generated_Source\PSoC4/cyfitter_cfg.c ****     #define CY_CFG_SECTION __attribute__ ((section(".psocinit")))
  33:.\Generated_Source\PSoC4/cyfitter_cfg.c ****     
ARM GAS  C:\Users\11401393\AppData\Local\Temp\ccqPGSN4.s 			page 2


  34:.\Generated_Source\PSoC4/cyfitter_cfg.c ****     #if defined(__ARMCC_VERSION)
  35:.\Generated_Source\PSoC4/cyfitter_cfg.c ****         #define CY_CFG_MEMORY_BARRIER() __memory_changed()
  36:.\Generated_Source\PSoC4/cyfitter_cfg.c ****     #else
  37:.\Generated_Source\PSoC4/cyfitter_cfg.c ****         #define CY_CFG_MEMORY_BARRIER() __sync_synchronize()
  38:.\Generated_Source\PSoC4/cyfitter_cfg.c ****     #endif
  39:.\Generated_Source\PSoC4/cyfitter_cfg.c ****     
  40:.\Generated_Source\PSoC4/cyfitter_cfg.c **** #elif defined(__ICCARM__)
  41:.\Generated_Source\PSoC4/cyfitter_cfg.c ****     #include <intrinsics.h>
  42:.\Generated_Source\PSoC4/cyfitter_cfg.c **** 
  43:.\Generated_Source\PSoC4/cyfitter_cfg.c ****     #define CYPACKED __packed
  44:.\Generated_Source\PSoC4/cyfitter_cfg.c ****     #define CYPACKED_ATTR 
  45:.\Generated_Source\PSoC4/cyfitter_cfg.c ****     #define CYALIGNED _Pragma("data_alignment=4")
  46:.\Generated_Source\PSoC4/cyfitter_cfg.c ****     #define CY_CFG_UNUSED _Pragma("diag_suppress=Pe177")
  47:.\Generated_Source\PSoC4/cyfitter_cfg.c ****     #define CY_CFG_SECTION _Pragma("location=\".psocinit\"")
  48:.\Generated_Source\PSoC4/cyfitter_cfg.c ****     
  49:.\Generated_Source\PSoC4/cyfitter_cfg.c ****     #define CY_CFG_MEMORY_BARRIER() __DMB()
  50:.\Generated_Source\PSoC4/cyfitter_cfg.c ****     
  51:.\Generated_Source\PSoC4/cyfitter_cfg.c **** #else
  52:.\Generated_Source\PSoC4/cyfitter_cfg.c ****     #error Unsupported toolchain
  53:.\Generated_Source\PSoC4/cyfitter_cfg.c **** #endif
  54:.\Generated_Source\PSoC4/cyfitter_cfg.c **** 
  55:.\Generated_Source\PSoC4/cyfitter_cfg.c **** 
  56:.\Generated_Source\PSoC4/cyfitter_cfg.c **** CY_CFG_UNUSED
  57:.\Generated_Source\PSoC4/cyfitter_cfg.c **** static void CYMEMZERO(void *s, size_t n);
  58:.\Generated_Source\PSoC4/cyfitter_cfg.c **** CY_CFG_UNUSED
  59:.\Generated_Source\PSoC4/cyfitter_cfg.c **** static void CYMEMZERO(void *s, size_t n)
  60:.\Generated_Source\PSoC4/cyfitter_cfg.c **** {
  61:.\Generated_Source\PSoC4/cyfitter_cfg.c **** 	(void)memset(s, 0, n);
  62:.\Generated_Source\PSoC4/cyfitter_cfg.c **** }
  63:.\Generated_Source\PSoC4/cyfitter_cfg.c **** CY_CFG_UNUSED
  64:.\Generated_Source\PSoC4/cyfitter_cfg.c **** static void CYCONFIGCPY(void *dest, const void *src, size_t n);
  65:.\Generated_Source\PSoC4/cyfitter_cfg.c **** CY_CFG_UNUSED
  66:.\Generated_Source\PSoC4/cyfitter_cfg.c **** static void CYCONFIGCPY(void *dest, const void *src, size_t n)
  67:.\Generated_Source\PSoC4/cyfitter_cfg.c **** {
  68:.\Generated_Source\PSoC4/cyfitter_cfg.c **** 	(void)memcpy(dest, src, n);
  69:.\Generated_Source\PSoC4/cyfitter_cfg.c **** }
  70:.\Generated_Source\PSoC4/cyfitter_cfg.c **** CY_CFG_UNUSED
  71:.\Generated_Source\PSoC4/cyfitter_cfg.c **** static void CYCONFIGCPYCODE(void *dest, const void *src, size_t n);
  72:.\Generated_Source\PSoC4/cyfitter_cfg.c **** CY_CFG_UNUSED
  73:.\Generated_Source\PSoC4/cyfitter_cfg.c **** static void CYCONFIGCPYCODE(void *dest, const void *src, size_t n)
  74:.\Generated_Source\PSoC4/cyfitter_cfg.c **** {
  75:.\Generated_Source\PSoC4/cyfitter_cfg.c **** 	(void)memcpy(dest, src, n);
  76:.\Generated_Source\PSoC4/cyfitter_cfg.c **** }
  77:.\Generated_Source\PSoC4/cyfitter_cfg.c **** 
  78:.\Generated_Source\PSoC4/cyfitter_cfg.c **** 
  79:.\Generated_Source\PSoC4/cyfitter_cfg.c **** 
  80:.\Generated_Source\PSoC4/cyfitter_cfg.c **** /* Clock startup error codes                                                   */
  81:.\Generated_Source\PSoC4/cyfitter_cfg.c **** #define CYCLOCKSTART_NO_ERROR    0u
  82:.\Generated_Source\PSoC4/cyfitter_cfg.c **** #define CYCLOCKSTART_XTAL_ERROR  1u
  83:.\Generated_Source\PSoC4/cyfitter_cfg.c **** #define CYCLOCKSTART_32KHZ_ERROR 2u
  84:.\Generated_Source\PSoC4/cyfitter_cfg.c **** #define CYCLOCKSTART_PLL_ERROR   3u
  85:.\Generated_Source\PSoC4/cyfitter_cfg.c **** 
  86:.\Generated_Source\PSoC4/cyfitter_cfg.c **** #ifdef CY_NEED_CYCLOCKSTARTUPERROR
  87:.\Generated_Source\PSoC4/cyfitter_cfg.c **** /*******************************************************************************
  88:.\Generated_Source\PSoC4/cyfitter_cfg.c **** * Function Name: CyClockStartupError
  89:.\Generated_Source\PSoC4/cyfitter_cfg.c **** ********************************************************************************
  90:.\Generated_Source\PSoC4/cyfitter_cfg.c **** * Summary:
ARM GAS  C:\Users\11401393\AppData\Local\Temp\ccqPGSN4.s 			page 3


  91:.\Generated_Source\PSoC4/cyfitter_cfg.c **** *  If an error is encountered during clock configuration (crystal startup error,
  92:.\Generated_Source\PSoC4/cyfitter_cfg.c **** *  PLL lock error, etc.), the system will end up here.  Unless reimplemented by
  93:.\Generated_Source\PSoC4/cyfitter_cfg.c **** *  the customer, this function will stop in an infinite loop.
  94:.\Generated_Source\PSoC4/cyfitter_cfg.c **** *
  95:.\Generated_Source\PSoC4/cyfitter_cfg.c **** * Parameters:
  96:.\Generated_Source\PSoC4/cyfitter_cfg.c **** *   void
  97:.\Generated_Source\PSoC4/cyfitter_cfg.c **** *
  98:.\Generated_Source\PSoC4/cyfitter_cfg.c **** * Return:
  99:.\Generated_Source\PSoC4/cyfitter_cfg.c **** *   void
 100:.\Generated_Source\PSoC4/cyfitter_cfg.c **** *
 101:.\Generated_Source\PSoC4/cyfitter_cfg.c **** *******************************************************************************/
 102:.\Generated_Source\PSoC4/cyfitter_cfg.c **** CY_CFG_UNUSED
 103:.\Generated_Source\PSoC4/cyfitter_cfg.c **** static void CyClockStartupError(uint8 errorCode);
 104:.\Generated_Source\PSoC4/cyfitter_cfg.c **** CY_CFG_UNUSED
 105:.\Generated_Source\PSoC4/cyfitter_cfg.c **** static void CyClockStartupError(uint8 errorCode)
 106:.\Generated_Source\PSoC4/cyfitter_cfg.c **** {
 107:.\Generated_Source\PSoC4/cyfitter_cfg.c ****     /* To remove the compiler warning if errorCode not used.                */
 108:.\Generated_Source\PSoC4/cyfitter_cfg.c ****     errorCode = errorCode;
 109:.\Generated_Source\PSoC4/cyfitter_cfg.c **** 
 110:.\Generated_Source\PSoC4/cyfitter_cfg.c ****     /* `#START CyClockStartupError` */
 111:.\Generated_Source\PSoC4/cyfitter_cfg.c **** 
 112:.\Generated_Source\PSoC4/cyfitter_cfg.c ****     /* If we have a clock startup error (bad MHz crystal, PLL lock, etc.),  */
 113:.\Generated_Source\PSoC4/cyfitter_cfg.c ****     /* we will end up here to allow the customer to implement something to  */
 114:.\Generated_Source\PSoC4/cyfitter_cfg.c ****     /* deal with the clock condition.                                       */
 115:.\Generated_Source\PSoC4/cyfitter_cfg.c **** 
 116:.\Generated_Source\PSoC4/cyfitter_cfg.c ****     /* `#END` */
 117:.\Generated_Source\PSoC4/cyfitter_cfg.c **** 
 118:.\Generated_Source\PSoC4/cyfitter_cfg.c ****     /* If nothing else, stop here since the clocks have not started         */
 119:.\Generated_Source\PSoC4/cyfitter_cfg.c ****     /* correctly.                                                           */
 120:.\Generated_Source\PSoC4/cyfitter_cfg.c ****     while(1) {}
 121:.\Generated_Source\PSoC4/cyfitter_cfg.c **** }
 122:.\Generated_Source\PSoC4/cyfitter_cfg.c **** #endif
 123:.\Generated_Source\PSoC4/cyfitter_cfg.c **** 
 124:.\Generated_Source\PSoC4/cyfitter_cfg.c **** #define CY_CFG_BASE_ADDR_COUNT 7u
 125:.\Generated_Source\PSoC4/cyfitter_cfg.c **** CYPACKED typedef struct
 126:.\Generated_Source\PSoC4/cyfitter_cfg.c **** {
 127:.\Generated_Source\PSoC4/cyfitter_cfg.c **** 	uint8 offset;
 128:.\Generated_Source\PSoC4/cyfitter_cfg.c **** 	uint8 value;
 129:.\Generated_Source\PSoC4/cyfitter_cfg.c **** } CYPACKED_ATTR cy_cfg_addrvalue_t;
 130:.\Generated_Source\PSoC4/cyfitter_cfg.c **** 
 131:.\Generated_Source\PSoC4/cyfitter_cfg.c **** 
 132:.\Generated_Source\PSoC4/cyfitter_cfg.c **** 
 133:.\Generated_Source\PSoC4/cyfitter_cfg.c **** /*******************************************************************************
 134:.\Generated_Source\PSoC4/cyfitter_cfg.c **** * Function Name: cfg_write_bytes32
 135:.\Generated_Source\PSoC4/cyfitter_cfg.c **** ********************************************************************************
 136:.\Generated_Source\PSoC4/cyfitter_cfg.c **** * Summary:
 137:.\Generated_Source\PSoC4/cyfitter_cfg.c **** *  This function is used for setting up the chip configuration areas that
 138:.\Generated_Source\PSoC4/cyfitter_cfg.c **** *  contain relatively sparse data.
 139:.\Generated_Source\PSoC4/cyfitter_cfg.c **** *
 140:.\Generated_Source\PSoC4/cyfitter_cfg.c **** * Parameters:
 141:.\Generated_Source\PSoC4/cyfitter_cfg.c **** *   void
 142:.\Generated_Source\PSoC4/cyfitter_cfg.c **** *
 143:.\Generated_Source\PSoC4/cyfitter_cfg.c **** * Return:
 144:.\Generated_Source\PSoC4/cyfitter_cfg.c **** *   void
 145:.\Generated_Source\PSoC4/cyfitter_cfg.c **** *
 146:.\Generated_Source\PSoC4/cyfitter_cfg.c **** *******************************************************************************/
 147:.\Generated_Source\PSoC4/cyfitter_cfg.c **** static void cfg_write_bytes32(const uint32 addr_table[], const cy_cfg_addrvalue_t data_table[]);
ARM GAS  C:\Users\11401393\AppData\Local\Temp\ccqPGSN4.s 			page 4


 148:.\Generated_Source\PSoC4/cyfitter_cfg.c **** static void cfg_write_bytes32(const uint32 addr_table[], const cy_cfg_addrvalue_t data_table[])
 149:.\Generated_Source\PSoC4/cyfitter_cfg.c **** {
  25              		.loc 1 149 0
  26              		.cfi_startproc
  27              	.LVL0:
  28 0000 F0B5     		push	{r4, r5, r6, r7, lr}
  29              		.cfi_def_cfa_offset 20
  30              		.cfi_offset 4, -20
  31              		.cfi_offset 5, -16
  32              		.cfi_offset 6, -12
  33              		.cfi_offset 7, -8
  34              		.cfi_offset 14, -4
  35              	.LVL1:
 150:.\Generated_Source\PSoC4/cyfitter_cfg.c **** 	/* For 32-bit little-endian architectures */
 151:.\Generated_Source\PSoC4/cyfitter_cfg.c **** 	uint32 i, j = 0u;
  36              		.loc 1 151 0
  37 0002 0022     		mov	r2, #0
 152:.\Generated_Source\PSoC4/cyfitter_cfg.c **** 	for (i = 0u; i < CY_CFG_BASE_ADDR_COUNT; i++)
  38              		.loc 1 152 0
  39 0004 0027     		mov	r7, #0
  40              	.LBB2:
 153:.\Generated_Source\PSoC4/cyfitter_cfg.c **** 	{
 154:.\Generated_Source\PSoC4/cyfitter_cfg.c **** 		uint32 baseAddr = addr_table[i];
 155:.\Generated_Source\PSoC4/cyfitter_cfg.c **** 		uint8 count = (uint8)baseAddr;
 156:.\Generated_Source\PSoC4/cyfitter_cfg.c **** 		baseAddr &= 0xFFFFFF00u;
  41              		.loc 1 156 0
  42 0006 FF23     		mov	r3, #255
  43 0008 9C46     		mov	ip, r3
  44              	.LBE2:
 152:.\Generated_Source\PSoC4/cyfitter_cfg.c **** 	for (i = 0u; i < CY_CFG_BASE_ADDR_COUNT; i++)
  45              		.loc 1 152 0
  46 000a 11E0     		b	.L2
  47              	.LVL2:
  48              	.L5:
  49              	.LBB3:
 154:.\Generated_Source\PSoC4/cyfitter_cfg.c **** 		uint32 baseAddr = addr_table[i];
  50              		.loc 1 154 0
  51 000c BB00     		lsl	r3, r7, #2
  52 000e C658     		ldr	r6, [r0, r3]
  53              	.LVL3:
 155:.\Generated_Source\PSoC4/cyfitter_cfg.c **** 		uint8 count = (uint8)baseAddr;
  54              		.loc 1 155 0
  55 0010 F3B2     		uxtb	r3, r6
  56              	.LVL4:
  57              		.loc 1 156 0
  58 0012 6446     		mov	r4, ip
  59 0014 A643     		bic	r6, r4
  60              	.LVL5:
 157:.\Generated_Source\PSoC4/cyfitter_cfg.c **** 		while (count != 0u)
  61              		.loc 1 157 0
  62 0016 08E0     		b	.L3
  63              	.L4:
 158:.\Generated_Source\PSoC4/cyfitter_cfg.c **** 		{
 159:.\Generated_Source\PSoC4/cyfitter_cfg.c **** 			CY_SET_XTND_REG8((void CYFAR *)(baseAddr + data_table[j].offset), data_table[j].value);
  64              		.loc 1 159 0
  65 0018 5400     		lsl	r4, r2, #1
  66 001a 0C19     		add	r4, r1, r4
ARM GAS  C:\Users\11401393\AppData\Local\Temp\ccqPGSN4.s 			page 5


  67 001c 2578     		ldrb	r5, [r4]
  68 001e AD19     		add	r5, r5, r6
  69 0020 6478     		ldrb	r4, [r4, #1]
  70 0022 2C70     		strb	r4, [r5]
 160:.\Generated_Source\PSoC4/cyfitter_cfg.c **** 			j++;
  71              		.loc 1 160 0
  72 0024 0132     		add	r2, r2, #1
  73              	.LVL6:
 161:.\Generated_Source\PSoC4/cyfitter_cfg.c **** 			count--;
  74              		.loc 1 161 0
  75 0026 013B     		sub	r3, r3, #1
  76              	.LVL7:
  77 0028 DBB2     		uxtb	r3, r3
  78              	.LVL8:
  79              	.L3:
 157:.\Generated_Source\PSoC4/cyfitter_cfg.c **** 		while (count != 0u)
  80              		.loc 1 157 0 discriminator 1
  81 002a 002B     		cmp	r3, #0
  82 002c F4D1     		bne	.L4
  83              	.LBE3:
 152:.\Generated_Source\PSoC4/cyfitter_cfg.c **** 	for (i = 0u; i < CY_CFG_BASE_ADDR_COUNT; i++)
  84              		.loc 1 152 0
  85 002e 0137     		add	r7, r7, #1
  86              	.LVL9:
  87              	.L2:
 152:.\Generated_Source\PSoC4/cyfitter_cfg.c **** 	for (i = 0u; i < CY_CFG_BASE_ADDR_COUNT; i++)
  88              		.loc 1 152 0 is_stmt 0 discriminator 1
  89 0030 062F     		cmp	r7, #6
  90 0032 EBD9     		bls	.L5
 162:.\Generated_Source\PSoC4/cyfitter_cfg.c **** 		}
 163:.\Generated_Source\PSoC4/cyfitter_cfg.c **** 	}
 164:.\Generated_Source\PSoC4/cyfitter_cfg.c **** }
  91              		.loc 1 164 0 is_stmt 1
  92              		@ sp needed
  93              	.LVL10:
  94 0034 F0BD     		pop	{r4, r5, r6, r7, pc}
  95              		.cfi_endproc
  96              	.LFE4:
  97              		.size	cfg_write_bytes32, .-cfg_write_bytes32
  98 0036 C046     		.section	.text.AnalogSetDefault,"ax",%progbits
  99              		.align	2
 100              		.code	16
 101              		.thumb_func
 102              		.type	AnalogSetDefault, %function
 103              	AnalogSetDefault:
 104              	.LFB6:
 165:.\Generated_Source\PSoC4/cyfitter_cfg.c **** 
 166:.\Generated_Source\PSoC4/cyfitter_cfg.c **** 
 167:.\Generated_Source\PSoC4/cyfitter_cfg.c **** /*******************************************************************************
 168:.\Generated_Source\PSoC4/cyfitter_cfg.c **** * Function Name: ClockSetup
 169:.\Generated_Source\PSoC4/cyfitter_cfg.c **** ********************************************************************************
 170:.\Generated_Source\PSoC4/cyfitter_cfg.c **** *
 171:.\Generated_Source\PSoC4/cyfitter_cfg.c **** * Summary:
 172:.\Generated_Source\PSoC4/cyfitter_cfg.c **** *   Performs the initialization of all of the clocks in the device based on the
 173:.\Generated_Source\PSoC4/cyfitter_cfg.c **** *   settings in the Clock tab of the DWR.  This includes enabling the requested
 174:.\Generated_Source\PSoC4/cyfitter_cfg.c **** *   clocks and setting the necessary dividers to produce the desired frequency. 
 175:.\Generated_Source\PSoC4/cyfitter_cfg.c **** *
ARM GAS  C:\Users\11401393\AppData\Local\Temp\ccqPGSN4.s 			page 6


 176:.\Generated_Source\PSoC4/cyfitter_cfg.c **** * Parameters:
 177:.\Generated_Source\PSoC4/cyfitter_cfg.c **** *   void
 178:.\Generated_Source\PSoC4/cyfitter_cfg.c **** *
 179:.\Generated_Source\PSoC4/cyfitter_cfg.c **** * Return:
 180:.\Generated_Source\PSoC4/cyfitter_cfg.c **** *   void
 181:.\Generated_Source\PSoC4/cyfitter_cfg.c **** *
 182:.\Generated_Source\PSoC4/cyfitter_cfg.c **** *******************************************************************************/
 183:.\Generated_Source\PSoC4/cyfitter_cfg.c **** static void ClockSetup(void);
 184:.\Generated_Source\PSoC4/cyfitter_cfg.c **** CY_CFG_SECTION
 185:.\Generated_Source\PSoC4/cyfitter_cfg.c **** static void ClockSetup(void)
 186:.\Generated_Source\PSoC4/cyfitter_cfg.c **** {
 187:.\Generated_Source\PSoC4/cyfitter_cfg.c **** 
 188:.\Generated_Source\PSoC4/cyfitter_cfg.c **** 	/* Set Flash Cycles based on max possible frequency in case a glitch occurs during ClockSetup(). *
 189:.\Generated_Source\PSoC4/cyfitter_cfg.c **** 	CY_SET_REG32((void CYXDATA *)(CYREG_CPUSS_FLASH_CTL), (0x0012u));
 190:.\Generated_Source\PSoC4/cyfitter_cfg.c **** 	/* Setup and trim IMO based on desired frequency. */
 191:.\Generated_Source\PSoC4/cyfitter_cfg.c **** 	CySysClkWriteImoFreq(48u);
 192:.\Generated_Source\PSoC4/cyfitter_cfg.c **** 	/* CYDEV_CLK_ILO_CONFIG Starting address: CYDEV_CLK_ILO_CONFIG */
 193:.\Generated_Source\PSoC4/cyfitter_cfg.c **** 	CY_SET_XTND_REG32((void CYFAR *)(CYREG_CLK_ILO_CONFIG), 0x80000006u);
 194:.\Generated_Source\PSoC4/cyfitter_cfg.c **** 
 195:.\Generated_Source\PSoC4/cyfitter_cfg.c **** 
 196:.\Generated_Source\PSoC4/cyfitter_cfg.c **** 	/* Setup phase aligned clocks */
 197:.\Generated_Source\PSoC4/cyfitter_cfg.c **** 	CY_SET_REG32((void *)CYREG_PERI_DIV_16_CTL3, 0x00BB7F00u);
 198:.\Generated_Source\PSoC4/cyfitter_cfg.c **** 	CY_SET_REG32((void *)CYREG_PERI_DIV_CMD, 0x8000FF43u);
 199:.\Generated_Source\PSoC4/cyfitter_cfg.c **** 	CY_SET_REG32((void *)CYREG_PERI_DIV_16_CTL0, 0x0000FE00u);
 200:.\Generated_Source\PSoC4/cyfitter_cfg.c **** 	CY_SET_REG32((void *)CYREG_PERI_DIV_CMD, 0x8000FF40u);
 201:.\Generated_Source\PSoC4/cyfitter_cfg.c **** 	CY_SET_REG32((void *)CYREG_PERI_DIV_16_CTL1, 0x0000FE00u);
 202:.\Generated_Source\PSoC4/cyfitter_cfg.c **** 	CY_SET_REG32((void *)CYREG_PERI_DIV_CMD, 0x8000FF41u);
 203:.\Generated_Source\PSoC4/cyfitter_cfg.c **** 	CY_SET_REG32((void *)CYREG_PERI_DIV_16_CTL2, 0x00001D00u);
 204:.\Generated_Source\PSoC4/cyfitter_cfg.c **** 	CY_SET_REG32((void *)CYREG_PERI_DIV_CMD, 0x8000FF42u);
 205:.\Generated_Source\PSoC4/cyfitter_cfg.c **** 
 206:.\Generated_Source\PSoC4/cyfitter_cfg.c **** 	/* CYDEV_CLK_IMO_CONFIG Starting address: CYDEV_CLK_IMO_CONFIG */
 207:.\Generated_Source\PSoC4/cyfitter_cfg.c **** 	CY_SET_XTND_REG32((void CYFAR *)(CYREG_CLK_IMO_CONFIG), 0x80000000u);
 208:.\Generated_Source\PSoC4/cyfitter_cfg.c **** 
 209:.\Generated_Source\PSoC4/cyfitter_cfg.c **** 	/* CYDEV_CLK_SELECT Starting address: CYDEV_CLK_SELECT */
 210:.\Generated_Source\PSoC4/cyfitter_cfg.c **** 	CY_SET_XTND_REG32((void CYFAR *)(CYREG_CLK_SELECT), 0x00040000u);
 211:.\Generated_Source\PSoC4/cyfitter_cfg.c **** 
 212:.\Generated_Source\PSoC4/cyfitter_cfg.c **** 	/* CYDEV_PERI_PCLK_CTL13 Starting address: CYDEV_PERI_PCLK_CTL13 */
 213:.\Generated_Source\PSoC4/cyfitter_cfg.c **** 	CY_SET_XTND_REG32((void CYFAR *)(CYREG_PERI_PCLK_CTL13), 0x00000043u);
 214:.\Generated_Source\PSoC4/cyfitter_cfg.c **** 
 215:.\Generated_Source\PSoC4/cyfitter_cfg.c **** 	/* CYDEV_PERI_PCLK_CTL12 Starting address: CYDEV_PERI_PCLK_CTL12 */
 216:.\Generated_Source\PSoC4/cyfitter_cfg.c **** 	CY_SET_XTND_REG32((void CYFAR *)(CYREG_PERI_PCLK_CTL12), 0x00000043u);
 217:.\Generated_Source\PSoC4/cyfitter_cfg.c **** 
 218:.\Generated_Source\PSoC4/cyfitter_cfg.c **** 	/* CYDEV_PERI_PCLK_CTL11 Starting address: CYDEV_PERI_PCLK_CTL11 */
 219:.\Generated_Source\PSoC4/cyfitter_cfg.c **** 	CY_SET_XTND_REG32((void CYFAR *)(CYREG_PERI_PCLK_CTL11), 0x00000043u);
 220:.\Generated_Source\PSoC4/cyfitter_cfg.c **** 
 221:.\Generated_Source\PSoC4/cyfitter_cfg.c **** 	/* CYDEV_PERI_PCLK_CTL7 Starting address: CYDEV_PERI_PCLK_CTL7 */
 222:.\Generated_Source\PSoC4/cyfitter_cfg.c **** 	CY_SET_XTND_REG32((void CYFAR *)(CYREG_PERI_PCLK_CTL7), 0x00000040u);
 223:.\Generated_Source\PSoC4/cyfitter_cfg.c **** 
 224:.\Generated_Source\PSoC4/cyfitter_cfg.c **** 	/* CYDEV_PERI_PCLK_CTL6 Starting address: CYDEV_PERI_PCLK_CTL6 */
 225:.\Generated_Source\PSoC4/cyfitter_cfg.c **** 	CY_SET_XTND_REG32((void CYFAR *)(CYREG_PERI_PCLK_CTL6), 0x00000041u);
 226:.\Generated_Source\PSoC4/cyfitter_cfg.c **** 
 227:.\Generated_Source\PSoC4/cyfitter_cfg.c **** 	/* CYDEV_PERI_PCLK_CTL2 Starting address: CYDEV_PERI_PCLK_CTL2 */
 228:.\Generated_Source\PSoC4/cyfitter_cfg.c **** 	CY_SET_XTND_REG32((void CYFAR *)(CYREG_PERI_PCLK_CTL2), 0x00000042u);
 229:.\Generated_Source\PSoC4/cyfitter_cfg.c **** 
 230:.\Generated_Source\PSoC4/cyfitter_cfg.c **** 	(void)CyIntSetVector(7u, &CySysWdtIsr);
 231:.\Generated_Source\PSoC4/cyfitter_cfg.c **** 	CyIntEnable(7u);
 232:.\Generated_Source\PSoC4/cyfitter_cfg.c **** 	CY_SET_XTND_REG32((void CYFAR *)(CYREG_WDT_CONFIG), 0x00000000u);
ARM GAS  C:\Users\11401393\AppData\Local\Temp\ccqPGSN4.s 			page 7


 233:.\Generated_Source\PSoC4/cyfitter_cfg.c **** }
 234:.\Generated_Source\PSoC4/cyfitter_cfg.c **** 
 235:.\Generated_Source\PSoC4/cyfitter_cfg.c **** 
 236:.\Generated_Source\PSoC4/cyfitter_cfg.c **** /* Analog API Functions */
 237:.\Generated_Source\PSoC4/cyfitter_cfg.c **** 
 238:.\Generated_Source\PSoC4/cyfitter_cfg.c **** 
 239:.\Generated_Source\PSoC4/cyfitter_cfg.c **** /*******************************************************************************
 240:.\Generated_Source\PSoC4/cyfitter_cfg.c **** * Function Name: AnalogSetDefault
 241:.\Generated_Source\PSoC4/cyfitter_cfg.c **** ********************************************************************************
 242:.\Generated_Source\PSoC4/cyfitter_cfg.c **** *
 243:.\Generated_Source\PSoC4/cyfitter_cfg.c **** * Summary:
 244:.\Generated_Source\PSoC4/cyfitter_cfg.c **** *  Sets up the analog portions of the chip to default values based on chip
 245:.\Generated_Source\PSoC4/cyfitter_cfg.c **** *  configuration options from the project.
 246:.\Generated_Source\PSoC4/cyfitter_cfg.c **** *
 247:.\Generated_Source\PSoC4/cyfitter_cfg.c **** * Parameters:
 248:.\Generated_Source\PSoC4/cyfitter_cfg.c **** *  void
 249:.\Generated_Source\PSoC4/cyfitter_cfg.c **** *
 250:.\Generated_Source\PSoC4/cyfitter_cfg.c **** * Return:
 251:.\Generated_Source\PSoC4/cyfitter_cfg.c **** *  void
 252:.\Generated_Source\PSoC4/cyfitter_cfg.c **** *
 253:.\Generated_Source\PSoC4/cyfitter_cfg.c **** *******************************************************************************/
 254:.\Generated_Source\PSoC4/cyfitter_cfg.c **** static void AnalogSetDefault(void);
 255:.\Generated_Source\PSoC4/cyfitter_cfg.c **** static void AnalogSetDefault(void)
 256:.\Generated_Source\PSoC4/cyfitter_cfg.c **** {
 105              		.loc 1 256 0
 106              		.cfi_startproc
 257:.\Generated_Source\PSoC4/cyfitter_cfg.c **** 	CY_SET_XTND_REG32((void CYFAR *)CYREG_HSIOM_AMUX_SPLIT_CTL1, 0x00000003u);
 107              		.loc 1 257 0
 108 0000 0323     		mov	r3, #3
 109 0002 054A     		ldr	r2, .L7
 110 0004 1360     		str	r3, [r2]
 258:.\Generated_Source\PSoC4/cyfitter_cfg.c **** 	CY_SET_XTND_REG32((void CYFAR *)CYREG_CTBM0_DFT_CTRL, 0x00000003u);
 111              		.loc 1 258 0
 112 0006 054A     		ldr	r2, .L7+4
 113 0008 1360     		str	r3, [r2]
 259:.\Generated_Source\PSoC4/cyfitter_cfg.c **** 	CY_SET_XTND_REG32((void CYFAR *)CYREG_CTBM1_DFT_CTRL, 0x00000003u);
 114              		.loc 1 259 0
 115 000a 054A     		ldr	r2, .L7+8
 116 000c 1360     		str	r3, [r2]
 260:.\Generated_Source\PSoC4/cyfitter_cfg.c **** 	CY_SET_XTND_REG32((void CYFAR *)CYREG_PASS_DSAB_DSAB_CTRL, 0x00000000u);
 117              		.loc 1 260 0
 118 000e 0022     		mov	r2, #0
 119 0010 044B     		ldr	r3, .L7+12
 120 0012 1A60     		str	r2, [r3]
 261:.\Generated_Source\PSoC4/cyfitter_cfg.c **** 	/* Variable VDDA is selected; no pumps are enabled by default */
 262:.\Generated_Source\PSoC4/cyfitter_cfg.c **** }
 121              		.loc 1 262 0
 122              		@ sp needed
 123 0014 7047     		bx	lr
 124              	.L8:
 125 0016 C046     		.align	2
 126              	.L7:
 127 0018 04210240 		.word	1073881348
 128 001c 30003040 		.word	1076887600
 129 0020 30003140 		.word	1076953136
 130 0024 000E3F40 		.word	1077874176
 131              		.cfi_endproc
ARM GAS  C:\Users\11401393\AppData\Local\Temp\ccqPGSN4.s 			page 8


 132              	.LFE6:
 133              		.size	AnalogSetDefault, .-AnalogSetDefault
 134              		.section	.text.CYMEMZERO,"ax",%progbits
 135              		.align	2
 136              		.code	16
 137              		.thumb_func
 138              		.type	CYMEMZERO, %function
 139              	CYMEMZERO:
 140              	.LFB1:
  60:.\Generated_Source\PSoC4/cyfitter_cfg.c **** {
 141              		.loc 1 60 0
 142              		.cfi_startproc
 143              	.LVL11:
 144 0000 08B5     		push	{r3, lr}
 145              		.cfi_def_cfa_offset 8
 146              		.cfi_offset 3, -8
 147              		.cfi_offset 14, -4
 148 0002 0A1C     		mov	r2, r1
  61:.\Generated_Source\PSoC4/cyfitter_cfg.c **** 	(void)memset(s, 0, n);
 149              		.loc 1 61 0
 150 0004 0021     		mov	r1, #0
 151              	.LVL12:
 152 0006 FFF7FEFF 		bl	memset
 153              	.LVL13:
  62:.\Generated_Source\PSoC4/cyfitter_cfg.c **** }
 154              		.loc 1 62 0
 155              		@ sp needed
 156 000a 08BD     		pop	{r3, pc}
 157              		.cfi_endproc
 158              	.LFE1:
 159              		.size	CYMEMZERO, .-CYMEMZERO
 160              		.section	.psocinit,"ax",%progbits
 161              		.align	2
 162              		.code	16
 163              		.thumb_func
 164              		.type	ClockSetup, %function
 165              	ClockSetup:
 166              	.LFB5:
 186:.\Generated_Source\PSoC4/cyfitter_cfg.c **** {
 167              		.loc 1 186 0
 168              		.cfi_startproc
 169 0000 08B5     		push	{r3, lr}
 170              		.cfi_def_cfa_offset 8
 171              		.cfi_offset 3, -8
 172              		.cfi_offset 14, -4
 189:.\Generated_Source\PSoC4/cyfitter_cfg.c **** 	CY_SET_REG32((void CYXDATA *)(CYREG_CPUSS_FLASH_CTL), (0x0012u));
 173              		.loc 1 189 0
 174 0002 1222     		mov	r2, #18
 175 0004 204B     		ldr	r3, .L11
 176 0006 1A60     		str	r2, [r3]
 191:.\Generated_Source\PSoC4/cyfitter_cfg.c **** 	CySysClkWriteImoFreq(48u);
 177              		.loc 1 191 0
 178 0008 3020     		mov	r0, #48
 179 000a FFF7FEFF 		bl	CySysClkWriteImoFreq
 180              	.LVL14:
 193:.\Generated_Source\PSoC4/cyfitter_cfg.c **** 	CY_SET_XTND_REG32((void CYFAR *)(CYREG_CLK_ILO_CONFIG), 0x80000006u);
 181              		.loc 1 193 0
ARM GAS  C:\Users\11401393\AppData\Local\Temp\ccqPGSN4.s 			page 9


 182 000e 1F4A     		ldr	r2, .L11+4
 183 0010 1F4B     		ldr	r3, .L11+8
 184 0012 1A60     		str	r2, [r3]
 197:.\Generated_Source\PSoC4/cyfitter_cfg.c **** 	CY_SET_REG32((void *)CYREG_PERI_DIV_16_CTL3, 0x00BB7F00u);
 185              		.loc 1 197 0
 186 0014 1F4A     		ldr	r2, .L11+12
 187 0016 204B     		ldr	r3, .L11+16
 188 0018 1A60     		str	r2, [r3]
 198:.\Generated_Source\PSoC4/cyfitter_cfg.c **** 	CY_SET_REG32((void *)CYREG_PERI_DIV_CMD, 0x8000FF43u);
 189              		.loc 1 198 0
 190 001a 204B     		ldr	r3, .L11+20
 191 001c 204A     		ldr	r2, .L11+24
 192 001e 1A60     		str	r2, [r3]
 199:.\Generated_Source\PSoC4/cyfitter_cfg.c **** 	CY_SET_REG32((void *)CYREG_PERI_DIV_16_CTL0, 0x0000FE00u);
 193              		.loc 1 199 0
 194 0020 FE22     		mov	r2, #254
 195 0022 1202     		lsl	r2, r2, #8
 196 0024 1F49     		ldr	r1, .L11+28
 197 0026 0A60     		str	r2, [r1]
 200:.\Generated_Source\PSoC4/cyfitter_cfg.c **** 	CY_SET_REG32((void *)CYREG_PERI_DIV_CMD, 0x8000FF40u);
 198              		.loc 1 200 0
 199 0028 1F49     		ldr	r1, .L11+32
 200 002a 1960     		str	r1, [r3]
 201:.\Generated_Source\PSoC4/cyfitter_cfg.c **** 	CY_SET_REG32((void *)CYREG_PERI_DIV_16_CTL1, 0x0000FE00u);
 201              		.loc 1 201 0
 202 002c 1F49     		ldr	r1, .L11+36
 203 002e 0A60     		str	r2, [r1]
 202:.\Generated_Source\PSoC4/cyfitter_cfg.c **** 	CY_SET_REG32((void *)CYREG_PERI_DIV_CMD, 0x8000FF41u);
 204              		.loc 1 202 0
 205 0030 1F4A     		ldr	r2, .L11+40
 206 0032 1A60     		str	r2, [r3]
 203:.\Generated_Source\PSoC4/cyfitter_cfg.c **** 	CY_SET_REG32((void *)CYREG_PERI_DIV_16_CTL2, 0x00001D00u);
 207              		.loc 1 203 0
 208 0034 E821     		mov	r1, #232
 209 0036 4901     		lsl	r1, r1, #5
 210 0038 1E4A     		ldr	r2, .L11+44
 211 003a 1160     		str	r1, [r2]
 204:.\Generated_Source\PSoC4/cyfitter_cfg.c **** 	CY_SET_REG32((void *)CYREG_PERI_DIV_CMD, 0x8000FF42u);
 212              		.loc 1 204 0
 213 003c 1E4A     		ldr	r2, .L11+48
 214 003e 1A60     		str	r2, [r3]
 207:.\Generated_Source\PSoC4/cyfitter_cfg.c **** 	CY_SET_XTND_REG32((void CYFAR *)(CYREG_CLK_IMO_CONFIG), 0x80000000u);
 215              		.loc 1 207 0
 216 0040 8022     		mov	r2, #128
 217 0042 1206     		lsl	r2, r2, #24
 218 0044 1D4B     		ldr	r3, .L11+52
 219 0046 1A60     		str	r2, [r3]
 210:.\Generated_Source\PSoC4/cyfitter_cfg.c **** 	CY_SET_XTND_REG32((void CYFAR *)(CYREG_CLK_SELECT), 0x00040000u);
 220              		.loc 1 210 0
 221 0048 8022     		mov	r2, #128
 222 004a D202     		lsl	r2, r2, #11
 223 004c 1C4B     		ldr	r3, .L11+56
 224 004e 1A60     		str	r2, [r3]
 213:.\Generated_Source\PSoC4/cyfitter_cfg.c **** 	CY_SET_XTND_REG32((void CYFAR *)(CYREG_PERI_PCLK_CTL13), 0x00000043u);
 225              		.loc 1 213 0
 226 0050 4323     		mov	r3, #67
 227 0052 1C4A     		ldr	r2, .L11+60
ARM GAS  C:\Users\11401393\AppData\Local\Temp\ccqPGSN4.s 			page 10


 228 0054 1360     		str	r3, [r2]
 216:.\Generated_Source\PSoC4/cyfitter_cfg.c **** 	CY_SET_XTND_REG32((void CYFAR *)(CYREG_PERI_PCLK_CTL12), 0x00000043u);
 229              		.loc 1 216 0
 230 0056 1C4A     		ldr	r2, .L11+64
 231 0058 1360     		str	r3, [r2]
 219:.\Generated_Source\PSoC4/cyfitter_cfg.c **** 	CY_SET_XTND_REG32((void CYFAR *)(CYREG_PERI_PCLK_CTL11), 0x00000043u);
 232              		.loc 1 219 0
 233 005a 1C4A     		ldr	r2, .L11+68
 234 005c 1360     		str	r3, [r2]
 222:.\Generated_Source\PSoC4/cyfitter_cfg.c **** 	CY_SET_XTND_REG32((void CYFAR *)(CYREG_PERI_PCLK_CTL7), 0x00000040u);
 235              		.loc 1 222 0
 236 005e 4022     		mov	r2, #64
 237 0060 1B4B     		ldr	r3, .L11+72
 238 0062 1A60     		str	r2, [r3]
 225:.\Generated_Source\PSoC4/cyfitter_cfg.c **** 	CY_SET_XTND_REG32((void CYFAR *)(CYREG_PERI_PCLK_CTL6), 0x00000041u);
 239              		.loc 1 225 0
 240 0064 4122     		mov	r2, #65
 241 0066 1B4B     		ldr	r3, .L11+76
 242 0068 1A60     		str	r2, [r3]
 228:.\Generated_Source\PSoC4/cyfitter_cfg.c **** 	CY_SET_XTND_REG32((void CYFAR *)(CYREG_PERI_PCLK_CTL2), 0x00000042u);
 243              		.loc 1 228 0
 244 006a 4222     		mov	r2, #66
 245 006c 1A4B     		ldr	r3, .L11+80
 246 006e 1A60     		str	r2, [r3]
 230:.\Generated_Source\PSoC4/cyfitter_cfg.c **** 	(void)CyIntSetVector(7u, &CySysWdtIsr);
 247              		.loc 1 230 0
 248 0070 0720     		mov	r0, #7
 249 0072 1A49     		ldr	r1, .L11+84
 250 0074 FFF7FEFF 		bl	CyIntSetVector
 251              	.LVL15:
 231:.\Generated_Source\PSoC4/cyfitter_cfg.c **** 	CyIntEnable(7u);
 252              		.loc 1 231 0
 253 0078 0720     		mov	r0, #7
 254 007a FFF7FEFF 		bl	CyIntEnable
 255              	.LVL16:
 232:.\Generated_Source\PSoC4/cyfitter_cfg.c **** 	CY_SET_XTND_REG32((void CYFAR *)(CYREG_WDT_CONFIG), 0x00000000u);
 256              		.loc 1 232 0
 257 007e 0022     		mov	r2, #0
 258 0080 174B     		ldr	r3, .L11+88
 259 0082 1A60     		str	r2, [r3]
 233:.\Generated_Source\PSoC4/cyfitter_cfg.c **** }
 260              		.loc 1 233 0
 261              		@ sp needed
 262 0084 08BD     		pop	{r3, pc}
 263              	.L12:
 264 0086 C046     		.align	2
 265              	.L11:
 266 0088 30001040 		.word	1074790448
 267 008c 06000080 		.word	-2147483642
 268 0090 04010B40 		.word	1074462980
 269 0094 007FBB00 		.word	12287744
 270 0098 0C030140 		.word	1073808140
 271 009c 00000140 		.word	1073807360
 272 00a0 43FF0080 		.word	-2147418301
 273 00a4 00030140 		.word	1073808128
 274 00a8 40FF0080 		.word	-2147418304
 275 00ac 04030140 		.word	1073808132
ARM GAS  C:\Users\11401393\AppData\Local\Temp\ccqPGSN4.s 			page 11


 276 00b0 41FF0080 		.word	-2147418303
 277 00b4 08030140 		.word	1073808136
 278 00b8 42FF0080 		.word	-2147418302
 279 00bc 08010B40 		.word	1074462984
 280 00c0 00010B40 		.word	1074462976
 281 00c4 34010140 		.word	1073807668
 282 00c8 30010140 		.word	1073807664
 283 00cc 2C010140 		.word	1073807660
 284 00d0 1C010140 		.word	1073807644
 285 00d4 18010140 		.word	1073807640
 286 00d8 08010140 		.word	1073807624
 287 00dc 00000000 		.word	CySysWdtIsr
 288 00e0 0C020B40 		.word	1074463244
 289              		.cfi_endproc
 290              	.LFE5:
 291              		.size	ClockSetup, .-ClockSetup
 292              		.section	.text.SetAnalogRoutingPumps,"ax",%progbits
 293              		.align	2
 294              		.global	SetAnalogRoutingPumps
 295              		.code	16
 296              		.thumb_func
 297              		.type	SetAnalogRoutingPumps, %function
 298              	SetAnalogRoutingPumps:
 299              	.LFB7:
 263:.\Generated_Source\PSoC4/cyfitter_cfg.c **** 
 264:.\Generated_Source\PSoC4/cyfitter_cfg.c **** 
 265:.\Generated_Source\PSoC4/cyfitter_cfg.c **** /*******************************************************************************
 266:.\Generated_Source\PSoC4/cyfitter_cfg.c **** * Function Name: SetAnalogRoutingPumps
 267:.\Generated_Source\PSoC4/cyfitter_cfg.c **** ********************************************************************************
 268:.\Generated_Source\PSoC4/cyfitter_cfg.c **** *
 269:.\Generated_Source\PSoC4/cyfitter_cfg.c **** * Summary:
 270:.\Generated_Source\PSoC4/cyfitter_cfg.c **** * Enables or disables the analog pumps feeding analog routing switches.
 271:.\Generated_Source\PSoC4/cyfitter_cfg.c **** * Intended to be called at startup, based on the Vdda system configuration;
 272:.\Generated_Source\PSoC4/cyfitter_cfg.c **** * may be called during operation when the user informs us that the Vdda voltage crossed the pump th
 273:.\Generated_Source\PSoC4/cyfitter_cfg.c **** *
 274:.\Generated_Source\PSoC4/cyfitter_cfg.c **** * Parameters:
 275:.\Generated_Source\PSoC4/cyfitter_cfg.c **** *  enabled - 1 to enable the pumps, 0 to disable the pumps
 276:.\Generated_Source\PSoC4/cyfitter_cfg.c **** *
 277:.\Generated_Source\PSoC4/cyfitter_cfg.c **** * Return:
 278:.\Generated_Source\PSoC4/cyfitter_cfg.c **** *  void
 279:.\Generated_Source\PSoC4/cyfitter_cfg.c **** *
 280:.\Generated_Source\PSoC4/cyfitter_cfg.c **** *******************************************************************************/
 281:.\Generated_Source\PSoC4/cyfitter_cfg.c **** void SetAnalogRoutingPumps(uint8 enabled)
 282:.\Generated_Source\PSoC4/cyfitter_cfg.c **** {
 300              		.loc 1 282 0
 301              		.cfi_startproc
 302              	.LVL17:
 283:.\Generated_Source\PSoC4/cyfitter_cfg.c **** 	uint32 regValue = CY_GET_XTND_REG32((void *)(CYREG_SAR_PUMP_CTRL));
 303              		.loc 1 283 0
 304 0000 0C4B     		ldr	r3, .L18
 305 0002 1B68     		ldr	r3, [r3]
 306              	.LVL18:
 284:.\Generated_Source\PSoC4/cyfitter_cfg.c **** 	if (enabled != 0u)
 307              		.loc 1 284 0
 308 0004 0028     		cmp	r0, #0
 309 0006 03D0     		beq	.L14
 285:.\Generated_Source\PSoC4/cyfitter_cfg.c **** 	{
ARM GAS  C:\Users\11401393\AppData\Local\Temp\ccqPGSN4.s 			page 12


 286:.\Generated_Source\PSoC4/cyfitter_cfg.c **** 		regValue |= 0x80000000u;
 310              		.loc 1 286 0
 311 0008 8022     		mov	r2, #128
 312 000a 1206     		lsl	r2, r2, #24
 313 000c 1A43     		orr	r2, r3
 314              	.LVL19:
 315 000e 01E0     		b	.L15
 316              	.LVL20:
 317              	.L14:
 287:.\Generated_Source\PSoC4/cyfitter_cfg.c **** 	}
 288:.\Generated_Source\PSoC4/cyfitter_cfg.c **** 	else
 289:.\Generated_Source\PSoC4/cyfitter_cfg.c **** 	{
 290:.\Generated_Source\PSoC4/cyfitter_cfg.c **** 		regValue &= ~0x80000000u;
 318              		.loc 1 290 0
 319 0010 5A00     		lsl	r2, r3, #1
 320 0012 5208     		lsr	r2, r2, #1
 321              	.LVL21:
 322              	.L15:
 291:.\Generated_Source\PSoC4/cyfitter_cfg.c **** 	}
 292:.\Generated_Source\PSoC4/cyfitter_cfg.c **** 	CY_SET_XTND_REG32((void *)(CYREG_SAR_PUMP_CTRL), regValue);
 323              		.loc 1 292 0
 324 0014 074B     		ldr	r3, .L18
 325 0016 1A60     		str	r2, [r3]
 293:.\Generated_Source\PSoC4/cyfitter_cfg.c **** 	regValue = CY_GET_XTND_REG32((void *)(CYREG_CLK_IMO_CONFIG));
 326              		.loc 1 293 0
 327 0018 074B     		ldr	r3, .L18+4
 328 001a 1B68     		ldr	r3, [r3]
 329              	.LVL22:
 294:.\Generated_Source\PSoC4/cyfitter_cfg.c **** 	if (enabled != 0u)
 330              		.loc 1 294 0
 331 001c 0028     		cmp	r0, #0
 332 001e 03D0     		beq	.L16
 295:.\Generated_Source\PSoC4/cyfitter_cfg.c **** 	{
 296:.\Generated_Source\PSoC4/cyfitter_cfg.c **** 		regValue |= 0x02000000u;
 333              		.loc 1 296 0
 334 0020 8022     		mov	r2, #128
 335 0022 9204     		lsl	r2, r2, #18
 336 0024 1A43     		orr	r2, r3
 337              	.LVL23:
 338 0026 01E0     		b	.L17
 339              	.LVL24:
 340              	.L16:
 297:.\Generated_Source\PSoC4/cyfitter_cfg.c **** 	}
 298:.\Generated_Source\PSoC4/cyfitter_cfg.c **** 	else
 299:.\Generated_Source\PSoC4/cyfitter_cfg.c **** 	{
 300:.\Generated_Source\PSoC4/cyfitter_cfg.c **** 		regValue &= ~0x02000000u;
 341              		.loc 1 300 0
 342 0028 044A     		ldr	r2, .L18+8
 343 002a 1A40     		and	r2, r3
 344              	.LVL25:
 345              	.L17:
 301:.\Generated_Source\PSoC4/cyfitter_cfg.c **** 	}
 302:.\Generated_Source\PSoC4/cyfitter_cfg.c **** 	CY_SET_XTND_REG32((void *)(CYREG_CLK_IMO_CONFIG), regValue);
 346              		.loc 1 302 0
 347 002c 024B     		ldr	r3, .L18+4
 348 002e 1A60     		str	r2, [r3]
 303:.\Generated_Source\PSoC4/cyfitter_cfg.c **** }
ARM GAS  C:\Users\11401393\AppData\Local\Temp\ccqPGSN4.s 			page 13


 349              		.loc 1 303 0
 350              		@ sp needed
 351 0030 7047     		bx	lr
 352              	.L19:
 353 0032 C046     		.align	2
 354              	.L18:
 355 0034 80033A40 		.word	1077543808
 356 0038 08010B40 		.word	1074462984
 357 003c FFFFFFFD 		.word	-33554433
 358              		.cfi_endproc
 359              	.LFE7:
 360              		.size	SetAnalogRoutingPumps, .-SetAnalogRoutingPumps
 361              		.section	.psocinit
 362              		.align	2
 363              		.global	cyfitter_cfg
 364              		.code	16
 365              		.thumb_func
 366              		.type	cyfitter_cfg, %function
 367              	cyfitter_cfg:
 368              	.LFB8:
 304:.\Generated_Source\PSoC4/cyfitter_cfg.c **** 
 305:.\Generated_Source\PSoC4/cyfitter_cfg.c **** #define CY_AMUX_UNUSED CYREG_CM0_ROM_DWT
 306:.\Generated_Source\PSoC4/cyfitter_cfg.c **** 
 307:.\Generated_Source\PSoC4/cyfitter_cfg.c **** 
 308:.\Generated_Source\PSoC4/cyfitter_cfg.c **** /*******************************************************************************
 309:.\Generated_Source\PSoC4/cyfitter_cfg.c **** * Function Name: cyfitter_cfg
 310:.\Generated_Source\PSoC4/cyfitter_cfg.c **** ********************************************************************************
 311:.\Generated_Source\PSoC4/cyfitter_cfg.c **** * Summary:
 312:.\Generated_Source\PSoC4/cyfitter_cfg.c **** *  This function is called by the start-up code for the selected device. It
 313:.\Generated_Source\PSoC4/cyfitter_cfg.c **** *  performs all of the necessary device configuration based on the design
 314:.\Generated_Source\PSoC4/cyfitter_cfg.c **** *  settings.  This includes settings from the Design Wide Resources (DWR) such
 315:.\Generated_Source\PSoC4/cyfitter_cfg.c **** *  as Clocks and Pins as well as any component configuration that is necessary.
 316:.\Generated_Source\PSoC4/cyfitter_cfg.c **** *
 317:.\Generated_Source\PSoC4/cyfitter_cfg.c **** * Parameters:  
 318:.\Generated_Source\PSoC4/cyfitter_cfg.c **** *   void
 319:.\Generated_Source\PSoC4/cyfitter_cfg.c **** *
 320:.\Generated_Source\PSoC4/cyfitter_cfg.c **** * Return:
 321:.\Generated_Source\PSoC4/cyfitter_cfg.c **** *   void
 322:.\Generated_Source\PSoC4/cyfitter_cfg.c **** *
 323:.\Generated_Source\PSoC4/cyfitter_cfg.c **** *******************************************************************************/
 324:.\Generated_Source\PSoC4/cyfitter_cfg.c **** CY_CFG_SECTION
 325:.\Generated_Source\PSoC4/cyfitter_cfg.c **** void cyfitter_cfg(void)
 326:.\Generated_Source\PSoC4/cyfitter_cfg.c **** {
 369              		.loc 1 326 0
 370              		.cfi_startproc
 371 00e4 38B5     		push	{r3, r4, r5, lr}
 372              		.cfi_def_cfa_offset 16
 373              		.cfi_offset 3, -16
 374              		.cfi_offset 4, -12
 375              		.cfi_offset 5, -8
 376              		.cfi_offset 14, -4
 327:.\Generated_Source\PSoC4/cyfitter_cfg.c **** 	/* Disable interrupts by default. Let user enable if/when they want. */
 328:.\Generated_Source\PSoC4/cyfitter_cfg.c **** 	CyGlobalIntDisable;
 377              		.loc 1 328 0
 378              	@ 328 ".\Generated_Source\PSoC4\cyfitter_cfg.c" 1
 379 00e6 72B6     		CPSID   i
 380              	@ 0 "" 2
ARM GAS  C:\Users\11401393\AppData\Local\Temp\ccqPGSN4.s 			page 14


 381              	.LVL26:
 382              		.code	16
 383              	.LBB4:
 329:.\Generated_Source\PSoC4/cyfitter_cfg.c **** 
 330:.\Generated_Source\PSoC4/cyfitter_cfg.c **** 	{
 331:.\Generated_Source\PSoC4/cyfitter_cfg.c **** 		static const uint32 CYCODE cy_cfg_addr_table[] = {
 332:.\Generated_Source\PSoC4/cyfitter_cfg.c **** 			0x400F3004u, /* Base address: 0x400F3000 Count: 4 */
 333:.\Generated_Source\PSoC4/cyfitter_cfg.c **** 			0x400F3101u, /* Base address: 0x400F3100 Count: 1 */
 334:.\Generated_Source\PSoC4/cyfitter_cfg.c **** 			0x400F3301u, /* Base address: 0x400F3300 Count: 1 */
 335:.\Generated_Source\PSoC4/cyfitter_cfg.c **** 			0x400F4107u, /* Base address: 0x400F4100 Count: 7 */
 336:.\Generated_Source\PSoC4/cyfitter_cfg.c **** 			0x400F4207u, /* Base address: 0x400F4200 Count: 7 */
 337:.\Generated_Source\PSoC4/cyfitter_cfg.c **** 			0x400F430Bu, /* Base address: 0x400F4300 Count: 11 */
 338:.\Generated_Source\PSoC4/cyfitter_cfg.c **** 			0x400F6002u, /* Base address: 0x400F6000 Count: 2 */
 339:.\Generated_Source\PSoC4/cyfitter_cfg.c **** 		};
 340:.\Generated_Source\PSoC4/cyfitter_cfg.c **** 
 341:.\Generated_Source\PSoC4/cyfitter_cfg.c **** 		static const cy_cfg_addrvalue_t CYCODE cy_cfg_data_table[] = {
 342:.\Generated_Source\PSoC4/cyfitter_cfg.c **** 			{0x38u, 0x80u},
 343:.\Generated_Source\PSoC4/cyfitter_cfg.c **** 			{0x3Eu, 0x40u},
 344:.\Generated_Source\PSoC4/cyfitter_cfg.c **** 			{0x58u, 0x04u},
 345:.\Generated_Source\PSoC4/cyfitter_cfg.c **** 			{0x5Fu, 0x01u},
 346:.\Generated_Source\PSoC4/cyfitter_cfg.c **** 			{0x18u, 0x01u},
 347:.\Generated_Source\PSoC4/cyfitter_cfg.c **** 			{0xB4u, 0x01u},
 348:.\Generated_Source\PSoC4/cyfitter_cfg.c **** 			{0x09u, 0x40u},
 349:.\Generated_Source\PSoC4/cyfitter_cfg.c **** 			{0x0Eu, 0x02u},
 350:.\Generated_Source\PSoC4/cyfitter_cfg.c **** 			{0x45u, 0x40u},
 351:.\Generated_Source\PSoC4/cyfitter_cfg.c **** 			{0x4Au, 0x01u},
 352:.\Generated_Source\PSoC4/cyfitter_cfg.c **** 			{0xC2u, 0xC0u},
 353:.\Generated_Source\PSoC4/cyfitter_cfg.c **** 			{0xD0u, 0x20u},
 354:.\Generated_Source\PSoC4/cyfitter_cfg.c **** 			{0xD2u, 0x10u},
 355:.\Generated_Source\PSoC4/cyfitter_cfg.c **** 			{0x01u, 0x44u},
 356:.\Generated_Source\PSoC4/cyfitter_cfg.c **** 			{0x04u, 0x02u},
 357:.\Generated_Source\PSoC4/cyfitter_cfg.c **** 			{0x06u, 0x02u},
 358:.\Generated_Source\PSoC4/cyfitter_cfg.c **** 			{0x6Cu, 0x40u},
 359:.\Generated_Source\PSoC4/cyfitter_cfg.c **** 			{0x70u, 0x08u},
 360:.\Generated_Source\PSoC4/cyfitter_cfg.c **** 			{0xC0u, 0x0Fu},
 361:.\Generated_Source\PSoC4/cyfitter_cfg.c **** 			{0xDCu, 0x03u},
 362:.\Generated_Source\PSoC4/cyfitter_cfg.c **** 			{0x69u, 0x04u},
 363:.\Generated_Source\PSoC4/cyfitter_cfg.c **** 			{0x6Cu, 0x01u},
 364:.\Generated_Source\PSoC4/cyfitter_cfg.c **** 			{0x72u, 0x02u},
 365:.\Generated_Source\PSoC4/cyfitter_cfg.c **** 			{0x79u, 0x40u},
 366:.\Generated_Source\PSoC4/cyfitter_cfg.c **** 			{0x90u, 0x02u},
 367:.\Generated_Source\PSoC4/cyfitter_cfg.c **** 			{0x91u, 0x44u},
 368:.\Generated_Source\PSoC4/cyfitter_cfg.c **** 			{0x9Au, 0x02u},
 369:.\Generated_Source\PSoC4/cyfitter_cfg.c **** 			{0xB4u, 0x48u},
 370:.\Generated_Source\PSoC4/cyfitter_cfg.c **** 			{0xDAu, 0x03u},
 371:.\Generated_Source\PSoC4/cyfitter_cfg.c **** 			{0xDCu, 0x05u},
 372:.\Generated_Source\PSoC4/cyfitter_cfg.c **** 			{0xECu, 0x08u},
 373:.\Generated_Source\PSoC4/cyfitter_cfg.c **** 			{0x02u, 0x01u},
 374:.\Generated_Source\PSoC4/cyfitter_cfg.c **** 			{0x11u, 0x01u},
 375:.\Generated_Source\PSoC4/cyfitter_cfg.c **** 		};
 376:.\Generated_Source\PSoC4/cyfitter_cfg.c **** 
 377:.\Generated_Source\PSoC4/cyfitter_cfg.c **** 
 378:.\Generated_Source\PSoC4/cyfitter_cfg.c **** 
 379:.\Generated_Source\PSoC4/cyfitter_cfg.c **** 		CYPACKED typedef struct {
 380:.\Generated_Source\PSoC4/cyfitter_cfg.c **** 			void CYFAR *address;
 381:.\Generated_Source\PSoC4/cyfitter_cfg.c **** 			uint16 size;
 382:.\Generated_Source\PSoC4/cyfitter_cfg.c **** 		} CYPACKED_ATTR cfg_memset_t;
ARM GAS  C:\Users\11401393\AppData\Local\Temp\ccqPGSN4.s 			page 15


 383:.\Generated_Source\PSoC4/cyfitter_cfg.c **** 
 384:.\Generated_Source\PSoC4/cyfitter_cfg.c **** 		static const cfg_memset_t CYCODE cfg_memset_list [] = {
 385:.\Generated_Source\PSoC4/cyfitter_cfg.c **** 			/* address, size */
 386:.\Generated_Source\PSoC4/cyfitter_cfg.c **** 			{(void CYFAR *)(CYDEV_UDB_P0_U0_BASE), 1024u},
 387:.\Generated_Source\PSoC4/cyfitter_cfg.c **** 			{(void CYFAR *)(CYDEV_UDB_DSI0_BASE), 1024u},
 388:.\Generated_Source\PSoC4/cyfitter_cfg.c **** 		};
 389:.\Generated_Source\PSoC4/cyfitter_cfg.c **** 
 390:.\Generated_Source\PSoC4/cyfitter_cfg.c **** 		uint8 CYDATA i;
 391:.\Generated_Source\PSoC4/cyfitter_cfg.c **** 
 392:.\Generated_Source\PSoC4/cyfitter_cfg.c **** 		/* Zero out critical memory blocks before beginning configuration */
 393:.\Generated_Source\PSoC4/cyfitter_cfg.c **** 		for (i = 0u; i < (sizeof(cfg_memset_list)/sizeof(cfg_memset_list[0])); i++)
 384              		.loc 1 393 0
 385 00e8 0024     		mov	r4, #0
 386              	.LBB5:
 394:.\Generated_Source\PSoC4/cyfitter_cfg.c **** 		{
 395:.\Generated_Source\PSoC4/cyfitter_cfg.c **** 			const cfg_memset_t CYCODE * CYDATA ms = &cfg_memset_list[i];
 387              		.loc 1 395 0
 388 00ea 384D     		ldr	r5, .L23
 389              	.LBE5:
 393:.\Generated_Source\PSoC4/cyfitter_cfg.c **** 		for (i = 0u; i < (sizeof(cfg_memset_list)/sizeof(cfg_memset_list[0])); i++)
 390              		.loc 1 393 0
 391 00ec 0CE0     		b	.L21
 392              	.LVL27:
 393              	.L22:
 394              	.LBB6:
 395              		.loc 1 395 0 discriminator 2
 396 00ee 6300     		lsl	r3, r4, #1
 397 00f0 1B19     		add	r3, r3, r4
 398 00f2 5B00     		lsl	r3, r3, #1
 399 00f4 EB18     		add	r3, r5, r3
 400              	.LVL28:
 396:.\Generated_Source\PSoC4/cyfitter_cfg.c **** 			CYMEMZERO(ms->address, (size_t)(uint32)(ms->size));
 401              		.loc 1 396 0 discriminator 2
 402 00f6 9988     		ldrh	r1, [r3, #4]
 403 00f8 1A88     		ldrh	r2, [r3]
 404 00fa 5888     		ldrh	r0, [r3, #2]
 405 00fc 0004     		lsl	r0, r0, #16
 406 00fe 1043     		orr	r0, r2
 407 0100 FFF7FEFF 		bl	CYMEMZERO
 408              	.LVL29:
 409              	.LBE6:
 393:.\Generated_Source\PSoC4/cyfitter_cfg.c **** 		for (i = 0u; i < (sizeof(cfg_memset_list)/sizeof(cfg_memset_list[0])); i++)
 410              		.loc 1 393 0 discriminator 2
 411 0104 0134     		add	r4, r4, #1
 412              	.LVL30:
 413 0106 E4B2     		uxtb	r4, r4
 414              	.LVL31:
 415              	.L21:
 393:.\Generated_Source\PSoC4/cyfitter_cfg.c **** 		for (i = 0u; i < (sizeof(cfg_memset_list)/sizeof(cfg_memset_list[0])); i++)
 416              		.loc 1 393 0 is_stmt 0 discriminator 1
 417 0108 012C     		cmp	r4, #1
 418 010a F0D9     		bls	.L22
 397:.\Generated_Source\PSoC4/cyfitter_cfg.c **** 		}
 398:.\Generated_Source\PSoC4/cyfitter_cfg.c **** 
 399:.\Generated_Source\PSoC4/cyfitter_cfg.c **** 		cfg_write_bytes32(cy_cfg_addr_table, cy_cfg_data_table);
 419              		.loc 1 399 0 is_stmt 1
 420 010c 2F49     		ldr	r1, .L23
ARM GAS  C:\Users\11401393\AppData\Local\Temp\ccqPGSN4.s 			page 16


 421 010e 081C     		mov	r0, r1
 422 0110 0C30     		add	r0, r0, #12
 423 0112 2831     		add	r1, r1, #40
 424 0114 FFF7FEFF 		bl	cfg_write_bytes32
 425              	.LVL32:
 400:.\Generated_Source\PSoC4/cyfitter_cfg.c **** 
 401:.\Generated_Source\PSoC4/cyfitter_cfg.c **** 		/* HSIOM Starting address: CYDEV_HSIOM_BASE */
 402:.\Generated_Source\PSoC4/cyfitter_cfg.c **** 		CY_SET_XTND_REG32((void CYFAR *)(CYREG_HSIOM_PORT_SEL3), 0x0000EE00u);
 426              		.loc 1 402 0
 427 0118 EE22     		mov	r2, #238
 428 011a 1202     		lsl	r2, r2, #8
 429 011c 2C4B     		ldr	r3, .L23+4
 430 011e 1A60     		str	r2, [r3]
 403:.\Generated_Source\PSoC4/cyfitter_cfg.c **** 		CY_SET_XTND_REG32((void CYFAR *)(CYREG_HSIOM_PORT_SEL4), 0x000000EEu);
 431              		.loc 1 403 0
 432 0120 EE22     		mov	r2, #238
 433 0122 2C4B     		ldr	r3, .L23+8
 434 0124 1A60     		str	r2, [r3]
 404:.\Generated_Source\PSoC4/cyfitter_cfg.c **** 
 405:.\Generated_Source\PSoC4/cyfitter_cfg.c **** 		/* UDB_PA_0 Starting address: CYDEV_UDB_PA0_BASE */
 406:.\Generated_Source\PSoC4/cyfitter_cfg.c **** 		CY_SET_XTND_REG32((void CYFAR *)(CYDEV_UDB_PA0_BASE), 0x00990000u);
 435              		.loc 1 406 0
 436 0126 9923     		mov	r3, #153
 437 0128 1B04     		lsl	r3, r3, #16
 438 012a 2B4A     		ldr	r2, .L23+12
 439 012c 1360     		str	r3, [r2]
 407:.\Generated_Source\PSoC4/cyfitter_cfg.c **** 
 408:.\Generated_Source\PSoC4/cyfitter_cfg.c **** 		/* UDB_PA_1 Starting address: CYDEV_UDB_PA1_BASE */
 409:.\Generated_Source\PSoC4/cyfitter_cfg.c **** 		CY_SET_XTND_REG32((void CYFAR *)(CYDEV_UDB_PA1_BASE), 0x00990004u);
 440              		.loc 1 409 0
 441 012e 2B4A     		ldr	r2, .L23+16
 442 0130 2B49     		ldr	r1, .L23+20
 443 0132 0A60     		str	r2, [r1]
 410:.\Generated_Source\PSoC4/cyfitter_cfg.c **** 		CY_SET_XTND_REG32((void CYFAR *)(CYREG_UDB_PA1_CFG4), 0xA0000000u);
 444              		.loc 1 410 0
 445 0134 A020     		mov	r0, #160
 446 0136 0006     		lsl	r0, r0, #24
 447 0138 2A49     		ldr	r1, .L23+24
 448 013a 0860     		str	r0, [r1]
 411:.\Generated_Source\PSoC4/cyfitter_cfg.c **** 
 412:.\Generated_Source\PSoC4/cyfitter_cfg.c **** 		/* UDB_PA_2 Starting address: CYDEV_UDB_PA2_BASE */
 413:.\Generated_Source\PSoC4/cyfitter_cfg.c **** 		CY_SET_XTND_REG32((void CYFAR *)(CYDEV_UDB_PA2_BASE), 0x00990004u);
 449              		.loc 1 413 0
 450 013c 2A49     		ldr	r1, .L23+28
 451 013e 0A60     		str	r2, [r1]
 414:.\Generated_Source\PSoC4/cyfitter_cfg.c **** 		CY_SET_XTND_REG32((void CYFAR *)(CYREG_UDB_PA2_CFG4), 0x000A0000u);
 452              		.loc 1 414 0
 453 0140 A021     		mov	r1, #160
 454 0142 0903     		lsl	r1, r1, #12
 455 0144 294A     		ldr	r2, .L23+32
 456 0146 1160     		str	r1, [r2]
 415:.\Generated_Source\PSoC4/cyfitter_cfg.c **** 
 416:.\Generated_Source\PSoC4/cyfitter_cfg.c **** 		/* UDB_PA_3 Starting address: CYDEV_UDB_PA3_BASE */
 417:.\Generated_Source\PSoC4/cyfitter_cfg.c **** 		CY_SET_XTND_REG32((void CYFAR *)(CYDEV_UDB_PA3_BASE), 0x00990000u);
 457              		.loc 1 417 0
 458 0148 294A     		ldr	r2, .L23+36
 459 014a 1360     		str	r3, [r2]
ARM GAS  C:\Users\11401393\AppData\Local\Temp\ccqPGSN4.s 			page 17


 418:.\Generated_Source\PSoC4/cyfitter_cfg.c **** 
 419:.\Generated_Source\PSoC4/cyfitter_cfg.c **** 		/* TCPWM_CNT0 Starting address: CYDEV_TCPWM_CNT0_TR_CTRL0 */
 420:.\Generated_Source\PSoC4/cyfitter_cfg.c **** 		CY_SET_XTND_REG32((void CYFAR *)(CYREG_TCPWM_CNT0_TR_CTRL0), 0x00030020u);
 460              		.loc 1 420 0
 461 014c 294A     		ldr	r2, .L23+40
 462 014e 2A4B     		ldr	r3, .L23+44
 463 0150 1A60     		str	r2, [r3]
 421:.\Generated_Source\PSoC4/cyfitter_cfg.c **** 
 422:.\Generated_Source\PSoC4/cyfitter_cfg.c **** 		/* TCPWM_CNT1 Starting address: CYDEV_TCPWM_CNT1_TR_CTRL0 */
 423:.\Generated_Source\PSoC4/cyfitter_cfg.c **** 		CY_SET_XTND_REG32((void CYFAR *)(CYREG_TCPWM_CNT1_TR_CTRL0), 0x00040060u);
 464              		.loc 1 423 0
 465 0152 2A4A     		ldr	r2, .L23+48
 466 0154 2A4B     		ldr	r3, .L23+52
 467 0156 1A60     		str	r2, [r3]
 424:.\Generated_Source\PSoC4/cyfitter_cfg.c **** 
 425:.\Generated_Source\PSoC4/cyfitter_cfg.c **** 		/* TCPWM_CNT2 Starting address: CYDEV_TCPWM_CNT2_TR_CTRL0 */
 426:.\Generated_Source\PSoC4/cyfitter_cfg.c **** 		CY_SET_XTND_REG32((void CYFAR *)(CYREG_TCPWM_CNT2_TR_CTRL0), 0x000E00B0u);
 468              		.loc 1 426 0
 469 0158 2A4A     		ldr	r2, .L23+56
 470 015a 2B4B     		ldr	r3, .L23+60
 471 015c 1A60     		str	r2, [r3]
 427:.\Generated_Source\PSoC4/cyfitter_cfg.c **** 
 428:.\Generated_Source\PSoC4/cyfitter_cfg.c **** 		/* Enable digital routing */
 429:.\Generated_Source\PSoC4/cyfitter_cfg.c **** 		CY_SET_XTND_REG8((void *)CYREG_UDB_UDBIF_BANK_CTL, CY_GET_XTND_REG8((void *)CYREG_UDB_UDBIF_BANK_
 472              		.loc 1 429 0
 473 015e 2B4B     		ldr	r3, .L23+64
 474 0160 1978     		ldrb	r1, [r3]
 475 0162 0222     		mov	r2, #2
 476 0164 0A43     		orr	r2, r1
 477 0166 1A70     		strb	r2, [r3]
 430:.\Generated_Source\PSoC4/cyfitter_cfg.c **** 
 431:.\Generated_Source\PSoC4/cyfitter_cfg.c **** 		/* Enable UDB array */
 432:.\Generated_Source\PSoC4/cyfitter_cfg.c **** 		CY_SET_XTND_REG8((void *)CYREG_UDB_UDBIF_WAIT_CFG, (uint8)((CY_GET_XTND_REG8((void *)CYREG_UDB_UD
 478              		.loc 1 432 0
 479 0168 294A     		ldr	r2, .L23+68
 480 016a 1178     		ldrb	r1, [r2]
 481 016c 3C20     		mov	r0, #60
 482 016e 8143     		bic	r1, r0
 483 0170 1420     		mov	r0, #20
 484 0172 0143     		orr	r1, r0
 485 0174 1170     		strb	r1, [r2]
 433:.\Generated_Source\PSoC4/cyfitter_cfg.c **** 		CY_SET_XTND_REG8((void *)CYREG_UDB_UDBIF_BANK_CTL, (uint8)(CY_GET_XTND_REG8((void *)CYREG_UDB_UDB
 486              		.loc 1 433 0
 487 0176 1978     		ldrb	r1, [r3]
 488 0178 1622     		mov	r2, #22
 489 017a 0A43     		orr	r2, r1
 490 017c 1A70     		strb	r2, [r3]
 491              	.LBE4:
 434:.\Generated_Source\PSoC4/cyfitter_cfg.c **** 	}
 435:.\Generated_Source\PSoC4/cyfitter_cfg.c **** 
 436:.\Generated_Source\PSoC4/cyfitter_cfg.c **** 	/* Perform second pass device configuration. These items must be configured in specific order afte
 437:.\Generated_Source\PSoC4/cyfitter_cfg.c **** 	/* IOPINS0_0 Starting address: CYDEV_GPIO_PRT0_DR */
 438:.\Generated_Source\PSoC4/cyfitter_cfg.c **** 	CY_SET_XTND_REG32((void CYFAR *)(CYREG_GPIO_PRT0_DR), 0x000000FFu);
 492              		.loc 1 438 0
 493 017e FF23     		mov	r3, #255
 494 0180 244A     		ldr	r2, .L23+72
 495 0182 1360     		str	r3, [r2]
ARM GAS  C:\Users\11401393\AppData\Local\Temp\ccqPGSN4.s 			page 18


 439:.\Generated_Source\PSoC4/cyfitter_cfg.c **** 	CY_SET_XTND_REG32((void CYFAR *)(CYREG_GPIO_PRT0_PC2), 0x000000FFu);
 496              		.loc 1 439 0
 497 0184 244A     		ldr	r2, .L23+76
 498 0186 1360     		str	r3, [r2]
 440:.\Generated_Source\PSoC4/cyfitter_cfg.c **** 
 441:.\Generated_Source\PSoC4/cyfitter_cfg.c **** 	/* IOPINS0_1 Starting address: CYDEV_GPIO_PRT1_DR */
 442:.\Generated_Source\PSoC4/cyfitter_cfg.c **** 	CY_SET_XTND_REG32((void CYFAR *)(CYREG_GPIO_PRT1_DR), 0x000000CFu);
 499              		.loc 1 442 0
 500 0188 CF22     		mov	r2, #207
 501 018a 244B     		ldr	r3, .L23+80
 502 018c 1A60     		str	r2, [r3]
 443:.\Generated_Source\PSoC4/cyfitter_cfg.c **** 	CY_SET_XTND_REG32((void CYFAR *)(CYREG_GPIO_PRT1_PC), 0x00480000u);
 503              		.loc 1 443 0
 504 018e 9022     		mov	r2, #144
 505 0190 D203     		lsl	r2, r2, #15
 506 0192 234B     		ldr	r3, .L23+84
 507 0194 1A60     		str	r2, [r3]
 444:.\Generated_Source\PSoC4/cyfitter_cfg.c **** 	CY_SET_XTND_REG32((void CYFAR *)(CYREG_GPIO_PRT1_PC2), 0x0000000Fu);
 508              		.loc 1 444 0
 509 0196 0F23     		mov	r3, #15
 510 0198 224A     		ldr	r2, .L23+88
 511 019a 1360     		str	r3, [r2]
 445:.\Generated_Source\PSoC4/cyfitter_cfg.c **** 
 446:.\Generated_Source\PSoC4/cyfitter_cfg.c **** 	/* IOPINS0_2 Starting address: CYDEV_GPIO_PRT2_DR */
 447:.\Generated_Source\PSoC4/cyfitter_cfg.c **** 	CY_SET_XTND_REG32((void CYFAR *)(CYREG_GPIO_PRT2_DR), 0x0000000Fu);
 512              		.loc 1 447 0
 513 019c 224A     		ldr	r2, .L23+92
 514 019e 1360     		str	r3, [r2]
 448:.\Generated_Source\PSoC4/cyfitter_cfg.c **** 	CY_SET_XTND_REG32((void CYFAR *)(CYREG_GPIO_PRT2_PC), 0x00000492u);
 515              		.loc 1 448 0
 516 01a0 224A     		ldr	r2, .L23+96
 517 01a2 234B     		ldr	r3, .L23+100
 518 01a4 1A60     		str	r2, [r3]
 449:.\Generated_Source\PSoC4/cyfitter_cfg.c **** 
 450:.\Generated_Source\PSoC4/cyfitter_cfg.c **** 	/* IOPINS0_3 Starting address: CYDEV_GPIO_PRT3_DR */
 451:.\Generated_Source\PSoC4/cyfitter_cfg.c **** 	CY_SET_XTND_REG32((void CYFAR *)(CYREG_GPIO_PRT3_PC), 0x00000D80u);
 519              		.loc 1 451 0
 520 01a6 D822     		mov	r2, #216
 521 01a8 1201     		lsl	r2, r2, #4
 522 01aa 224B     		ldr	r3, .L23+104
 523 01ac 1A60     		str	r2, [r3]
 452:.\Generated_Source\PSoC4/cyfitter_cfg.c **** 
 453:.\Generated_Source\PSoC4/cyfitter_cfg.c **** 	/* IOPINS0_4 Starting address: CYDEV_GPIO_PRT4_DR */
 454:.\Generated_Source\PSoC4/cyfitter_cfg.c **** 	CY_SET_XTND_REG32((void CYFAR *)(CYREG_GPIO_PRT4_DR), 0x00000067u);
 524              		.loc 1 454 0
 525 01ae 6722     		mov	r2, #103
 526 01b0 214B     		ldr	r3, .L23+108
 527 01b2 1A60     		str	r2, [r3]
 455:.\Generated_Source\PSoC4/cyfitter_cfg.c **** 	CY_SET_XTND_REG32((void CYFAR *)(CYREG_GPIO_PRT4_PC), 0x00090024u);
 528              		.loc 1 455 0
 529 01b4 214A     		ldr	r2, .L23+112
 530 01b6 224B     		ldr	r3, .L23+116
 531 01b8 1A60     		str	r2, [r3]
 456:.\Generated_Source\PSoC4/cyfitter_cfg.c **** 	CY_SET_XTND_REG32((void CYFAR *)(CYREG_GPIO_PRT4_PC2), 0x00000004u);
 532              		.loc 1 456 0
 533 01ba 0422     		mov	r2, #4
 534 01bc 214B     		ldr	r3, .L23+120
ARM GAS  C:\Users\11401393\AppData\Local\Temp\ccqPGSN4.s 			page 19


 535 01be 1A60     		str	r2, [r3]
 457:.\Generated_Source\PSoC4/cyfitter_cfg.c **** 
 458:.\Generated_Source\PSoC4/cyfitter_cfg.c **** 	/* Setup clocks based on selections from Clock DWR */
 459:.\Generated_Source\PSoC4/cyfitter_cfg.c **** 	ClockSetup();
 536              		.loc 1 459 0
 537 01c0 FFF71EFF 		bl	ClockSetup
 538              	.LVL33:
 460:.\Generated_Source\PSoC4/cyfitter_cfg.c **** 
 461:.\Generated_Source\PSoC4/cyfitter_cfg.c **** 	/* Perform basic analog initialization to defaults */
 462:.\Generated_Source\PSoC4/cyfitter_cfg.c **** 	AnalogSetDefault();
 539              		.loc 1 462 0
 540 01c4 FFF7FEFF 		bl	AnalogSetDefault
 541              	.LVL34:
 463:.\Generated_Source\PSoC4/cyfitter_cfg.c **** 
 464:.\Generated_Source\PSoC4/cyfitter_cfg.c **** }
 542              		.loc 1 464 0
 543              		@ sp needed
 544              	.LVL35:
 545 01c8 38BD     		pop	{r3, r4, r5, pc}
 546              	.L24:
 547 01ca C046     		.align	2
 548              	.L23:
 549 01cc 00000000 		.word	.LANCHOR0
 550 01d0 00030240 		.word	1073873664
 551 01d4 00040240 		.word	1073873920
 552 01d8 00500F40 		.word	1074745344
 553 01dc 04009900 		.word	10027012
 554 01e0 10500F40 		.word	1074745360
 555 01e4 14500F40 		.word	1074745364
 556 01e8 20500F40 		.word	1074745376
 557 01ec 24500F40 		.word	1074745380
 558 01f0 30500F40 		.word	1074745392
 559 01f4 20000300 		.word	196640
 560 01f8 20012040 		.word	1075839264
 561 01fc 60000400 		.word	262240
 562 0200 60012040 		.word	1075839328
 563 0204 B0000E00 		.word	917680
 564 0208 A0012040 		.word	1075839392
 565 020c 00700F40 		.word	1074753536
 566 0210 01700F40 		.word	1074753537
 567 0214 00000440 		.word	1074003968
 568 0218 18000440 		.word	1074003992
 569 021c 00010440 		.word	1074004224
 570 0220 08010440 		.word	1074004232
 571 0224 18010440 		.word	1074004248
 572 0228 00020440 		.word	1074004480
 573 022c 92040000 		.word	1170
 574 0230 08020440 		.word	1074004488
 575 0234 08030440 		.word	1074004744
 576 0238 00040440 		.word	1074004992
 577 023c 24000900 		.word	589860
 578 0240 08040440 		.word	1074005000
 579 0244 18040440 		.word	1074005016
 580              		.cfi_endproc
 581              	.LFE8:
 582              		.size	cyfitter_cfg, .-cyfitter_cfg
 583              		.section	.rodata
ARM GAS  C:\Users\11401393\AppData\Local\Temp\ccqPGSN4.s 			page 20


 584              		.align	2
 585              		.set	.LANCHOR0,. + 0
 586              		.type	cfg_memset_list.4767, %object
 587              		.size	cfg_memset_list.4767, 12
 588              	cfg_memset_list.4767:
 589 0000 00300F40 		.word	1074737152
 590 0004 0004     		.short	1024
 591 0006 00400F40 		.4byte	1074741248
 592 000a 0004     		.short	1024
 593              		.type	cy_cfg_addr_table.4761, %object
 594              		.size	cy_cfg_addr_table.4761, 28
 595              	cy_cfg_addr_table.4761:
 596 000c 04300F40 		.word	1074737156
 597 0010 01310F40 		.word	1074737409
 598 0014 01330F40 		.word	1074737921
 599 0018 07410F40 		.word	1074741511
 600 001c 07420F40 		.word	1074741767
 601 0020 0B430F40 		.word	1074742027
 602 0024 02600F40 		.word	1074749442
 603              		.type	cy_cfg_data_table.4762, %object
 604              		.size	cy_cfg_data_table.4762, 66
 605              	cy_cfg_data_table.4762:
 606 0028 38       		.byte	56
 607 0029 80       		.byte	-128
 608 002a 3E       		.byte	62
 609 002b 40       		.byte	64
 610 002c 58       		.byte	88
 611 002d 04       		.byte	4
 612 002e 5F       		.byte	95
 613 002f 01       		.byte	1
 614 0030 18       		.byte	24
 615 0031 01       		.byte	1
 616 0032 B4       		.byte	-76
 617 0033 01       		.byte	1
 618 0034 09       		.byte	9
 619 0035 40       		.byte	64
 620 0036 0E       		.byte	14
 621 0037 02       		.byte	2
 622 0038 45       		.byte	69
 623 0039 40       		.byte	64
 624 003a 4A       		.byte	74
 625 003b 01       		.byte	1
 626 003c C2       		.byte	-62
 627 003d C0       		.byte	-64
 628 003e D0       		.byte	-48
 629 003f 20       		.byte	32
 630 0040 D2       		.byte	-46
 631 0041 10       		.byte	16
 632 0042 01       		.byte	1
 633 0043 44       		.byte	68
 634 0044 04       		.byte	4
 635 0045 02       		.byte	2
 636 0046 06       		.byte	6
 637 0047 02       		.byte	2
 638 0048 6C       		.byte	108
 639 0049 40       		.byte	64
 640 004a 70       		.byte	112
ARM GAS  C:\Users\11401393\AppData\Local\Temp\ccqPGSN4.s 			page 21


 641 004b 08       		.byte	8
 642 004c C0       		.byte	-64
 643 004d 0F       		.byte	15
 644 004e DC       		.byte	-36
 645 004f 03       		.byte	3
 646 0050 69       		.byte	105
 647 0051 04       		.byte	4
 648 0052 6C       		.byte	108
 649 0053 01       		.byte	1
 650 0054 72       		.byte	114
 651 0055 02       		.byte	2
 652 0056 79       		.byte	121
 653 0057 40       		.byte	64
 654 0058 90       		.byte	-112
 655 0059 02       		.byte	2
 656 005a 91       		.byte	-111
 657 005b 44       		.byte	68
 658 005c 9A       		.byte	-102
 659 005d 02       		.byte	2
 660 005e B4       		.byte	-76
 661 005f 48       		.byte	72
 662 0060 DA       		.byte	-38
 663 0061 03       		.byte	3
 664 0062 DC       		.byte	-36
 665 0063 05       		.byte	5
 666 0064 EC       		.byte	-20
 667 0065 08       		.byte	8
 668 0066 02       		.byte	2
 669 0067 01       		.byte	1
 670 0068 11       		.byte	17
 671 0069 01       		.byte	1
 672 006a 0000     		.text
 673              	.Letext0:
 674              		.file 2 "c:\\program files (x86)\\cypress\\psoc creator\\3.2\\psoc creator\\import\\gnu\\arm\\4.8.
 675              		.file 3 ".\\Generated_Source\\PSoC4\\cytypes.h"
 676              		.file 4 ".\\Generated_Source\\PSoC4\\CyLib.h"