ARM GAS  C:\Users\11401393\AppData\Local\Temp\cctINdqa.s 			page 1


   1              		.cpu cortex-m0
   2              		.fpu softvfp
   3              		.eabi_attribute 20, 1
   4              		.eabi_attribute 21, 1
   5              		.eabi_attribute 23, 3
   6              		.eabi_attribute 24, 1
   7              		.eabi_attribute 25, 1
   8              		.eabi_attribute 26, 1
   9              		.eabi_attribute 30, 1
  10              		.eabi_attribute 34, 0
  11              		.eabi_attribute 18, 4
  12              		.code	16
  13              		.file	"CyLib.c"
  14              		.text
  15              	.Ltext0:
  16              		.cfi_sections	.debug_frame
  17              		.section	.text.CySysClkImoGetWcoLock,"ax",%progbits
  18              		.align	2
  19              		.code	16
  20              		.thumb_func
  21              		.type	CySysClkImoGetWcoLock, %function
  22              	CySysClkImoGetWcoLock:
  23              	.LFB5:
  24              		.file 1 ".\\Generated_Source\\PSoC4\\CyLib.c"
   1:.\Generated_Source\PSoC4/CyLib.c **** /*******************************************************************************
   2:.\Generated_Source\PSoC4/CyLib.c **** * File Name: CyLib.c
   3:.\Generated_Source\PSoC4/CyLib.c **** * Version 5.0
   4:.\Generated_Source\PSoC4/CyLib.c **** *
   5:.\Generated_Source\PSoC4/CyLib.c **** *  Description:
   6:.\Generated_Source\PSoC4/CyLib.c **** *   Provides a system API for the clocking, interrupts, and watchdog timer.
   7:.\Generated_Source\PSoC4/CyLib.c **** *
   8:.\Generated_Source\PSoC4/CyLib.c **** *  Note:
   9:.\Generated_Source\PSoC4/CyLib.c **** *   Documentation of the API's in this file is located in the
  10:.\Generated_Source\PSoC4/CyLib.c **** *   System Reference Guide provided with PSoC Creator.
  11:.\Generated_Source\PSoC4/CyLib.c **** *
  12:.\Generated_Source\PSoC4/CyLib.c **** ********************************************************************************
  13:.\Generated_Source\PSoC4/CyLib.c **** * Copyright 2010-2015, Cypress Semiconductor Corporation.  All rights reserved.
  14:.\Generated_Source\PSoC4/CyLib.c **** * You may use this file only in accordance with the license, terms, conditions,
  15:.\Generated_Source\PSoC4/CyLib.c **** * disclaimers, and limitations in the end user license agreement accompanying
  16:.\Generated_Source\PSoC4/CyLib.c **** * the software package with which this file was provided.
  17:.\Generated_Source\PSoC4/CyLib.c **** *******************************************************************************/
  18:.\Generated_Source\PSoC4/CyLib.c **** 
  19:.\Generated_Source\PSoC4/CyLib.c **** #include "CyLib.h"
  20:.\Generated_Source\PSoC4/CyLib.c **** 
  21:.\Generated_Source\PSoC4/CyLib.c **** #if(CY_IP_SRSSV2 && CY_IP_FMLT)
  22:.\Generated_Source\PSoC4/CyLib.c ****     #include "CyFlash.h"
  23:.\Generated_Source\PSoC4/CyLib.c **** #endif /* (CY_IP_SRSSV2 && CY_IP_FMLT) */
  24:.\Generated_Source\PSoC4/CyLib.c **** 
  25:.\Generated_Source\PSoC4/CyLib.c **** 
  26:.\Generated_Source\PSoC4/CyLib.c **** /* Do not use these definitions directly in your application */
  27:.\Generated_Source\PSoC4/CyLib.c **** uint32 cydelayFreqHz  = CYDEV_BCLK__SYSCLK__HZ;
  28:.\Generated_Source\PSoC4/CyLib.c **** uint32 cydelayFreqKhz = (CYDEV_BCLK__SYSCLK__HZ + CY_DELAY_1K_MINUS_1_THRESHOLD) / CY_DELAY_1K_THRE
  29:.\Generated_Source\PSoC4/CyLib.c **** uint8  cydelayFreqMhz = (uint8)((CYDEV_BCLK__SYSCLK__HZ + CY_DELAY_1M_MINUS_1_THRESHOLD) / CY_DELAY
  30:.\Generated_Source\PSoC4/CyLib.c **** uint32 cydelay32kMs   = CY_DELAY_MS_OVERFLOW * ((CYDEV_BCLK__SYSCLK__HZ + CY_DELAY_1K_MINUS_1_THRES
  31:.\Generated_Source\PSoC4/CyLib.c ****                         CY_DELAY_1K_THRESHOLD);
  32:.\Generated_Source\PSoC4/CyLib.c **** 
  33:.\Generated_Source\PSoC4/CyLib.c **** 
ARM GAS  C:\Users\11401393\AppData\Local\Temp\cctINdqa.s 			page 2


  34:.\Generated_Source\PSoC4/CyLib.c **** static cySysTickCallback CySysTickCallbacks[CY_SYS_SYST_NUM_OF_CALLBACKS];
  35:.\Generated_Source\PSoC4/CyLib.c **** static void CySysTickServiceCallbacks(void);
  36:.\Generated_Source\PSoC4/CyLib.c **** #if (CY_PSOC4_4100M || CY_PSOC4_4200M)
  37:.\Generated_Source\PSoC4/CyLib.c ****     static uint32 CySysClkImoGetWcoLock(void);
  38:.\Generated_Source\PSoC4/CyLib.c **** #endif  /* (CY_PSOC4_4100M || CY_PSOC4_4200M) */
  39:.\Generated_Source\PSoC4/CyLib.c **** 
  40:.\Generated_Source\PSoC4/CyLib.c **** 
  41:.\Generated_Source\PSoC4/CyLib.c **** /*******************************************************************************
  42:.\Generated_Source\PSoC4/CyLib.c **** * Indicates whether or not the SysTick has been initialized. The variable is
  43:.\Generated_Source\PSoC4/CyLib.c **** * initialized to 0 and set to 1 the first time CySysTickStart() is called.
  44:.\Generated_Source\PSoC4/CyLib.c **** *
  45:.\Generated_Source\PSoC4/CyLib.c **** * This allows the component to restart without reinitialization after the first
  46:.\Generated_Source\PSoC4/CyLib.c **** * call to the CySysTickStart() routine.
  47:.\Generated_Source\PSoC4/CyLib.c **** *
  48:.\Generated_Source\PSoC4/CyLib.c **** * If reinitialization of the SysTick is required, call CySysTickInit() before
  49:.\Generated_Source\PSoC4/CyLib.c **** * calling CySysTickStart(). Alternatively, the SysTick can be reinitialized by
  50:.\Generated_Source\PSoC4/CyLib.c **** * calling the CySysTickInit() and CySysTickEnable() functions.
  51:.\Generated_Source\PSoC4/CyLib.c **** *******************************************************************************/
  52:.\Generated_Source\PSoC4/CyLib.c **** uint32 CySysTickInitVar = 0u;
  53:.\Generated_Source\PSoC4/CyLib.c **** 
  54:.\Generated_Source\PSoC4/CyLib.c **** 
  55:.\Generated_Source\PSoC4/CyLib.c **** #if(CY_IP_SRSSV2)
  56:.\Generated_Source\PSoC4/CyLib.c ****         /* Conversion between CySysClkWriteImoFreq() parameter and register's value */
  57:.\Generated_Source\PSoC4/CyLib.c ****         const uint8 cyImoFreqMhz2Reg[CY_SYS_CLK_IMO_FREQ_TABLE_SIZE] = {
  58:.\Generated_Source\PSoC4/CyLib.c ****             /*  3 MHz */ 0x03u,  /*  4 MHz */ 0x04u,  /*  5 MHz */ 0x05u,  /*  6 MHz */ 0x06u,
  59:.\Generated_Source\PSoC4/CyLib.c ****             /*  7 MHz */ 0x07u,  /*  8 MHz */ 0x08u,  /*  9 MHz */ 0x09u,  /* 10 MHz */ 0x0Au,
  60:.\Generated_Source\PSoC4/CyLib.c ****             /* 11 MHz */ 0x0Bu,  /* 12 MHz */ 0x0Cu,  /* 13 MHz */ 0x0Eu,  /* 14 MHz */ 0x0Fu,
  61:.\Generated_Source\PSoC4/CyLib.c ****             /* 15 MHz */ 0x10u,  /* 16 MHz */ 0x11u,  /* 17 MHz */ 0x12u,  /* 18 MHz */ 0x13u,
  62:.\Generated_Source\PSoC4/CyLib.c ****             /* 19 MHz */ 0x14u,  /* 20 MHz */ 0x15u,  /* 21 MHz */ 0x16u,  /* 22 MHz */ 0x17u,
  63:.\Generated_Source\PSoC4/CyLib.c ****             /* 23 MHz */ 0x18u,  /* 24 MHz */ 0x19u,  /* 25 MHz */ 0x1Bu,  /* 26 MHz */ 0x1Cu,
  64:.\Generated_Source\PSoC4/CyLib.c ****             /* 27 MHz */ 0x1Du,  /* 28 MHz */ 0x1Eu,  /* 29 MHz */ 0x1Fu,  /* 30 MHz */ 0x20u,
  65:.\Generated_Source\PSoC4/CyLib.c ****             /* 31 MHz */ 0x21u,  /* 32 MHz */ 0x22u,  /* 33 MHz */ 0x23u,  /* 34 MHz */ 0x25u,
  66:.\Generated_Source\PSoC4/CyLib.c ****             /* 35 MHz */ 0x26u,  /* 36 MHz */ 0x27u,  /* 37 MHz */ 0x28u,  /* 38 MHz */ 0x29u,
  67:.\Generated_Source\PSoC4/CyLib.c ****             /* 39 MHz */ 0x2Au,  /* 40 MHz */ 0x2Bu,  /* 41 MHz */ 0x2Eu,  /* 42 MHz */ 0x2Fu,
  68:.\Generated_Source\PSoC4/CyLib.c ****             /* 43 MHz */ 0x30u,  /* 44 MHz */ 0x31u,  /* 45 MHz */ 0x32u,  /* 46 MHz */ 0x33u,
  69:.\Generated_Source\PSoC4/CyLib.c ****             /* 47 MHz */ 0x34u,  /* 48 MHz */ 0x35u };
  70:.\Generated_Source\PSoC4/CyLib.c **** #endif /* (CY_IP_SRSSV2) */
  71:.\Generated_Source\PSoC4/CyLib.c **** 
  72:.\Generated_Source\PSoC4/CyLib.c **** 
  73:.\Generated_Source\PSoC4/CyLib.c **** /*******************************************************************************
  74:.\Generated_Source\PSoC4/CyLib.c **** * Function Name: CySysClkImoStart
  75:.\Generated_Source\PSoC4/CyLib.c **** ********************************************************************************
  76:.\Generated_Source\PSoC4/CyLib.c **** *
  77:.\Generated_Source\PSoC4/CyLib.c **** * Summary:
  78:.\Generated_Source\PSoC4/CyLib.c **** *  Enables the IMO.
  79:.\Generated_Source\PSoC4/CyLib.c **** *
  80:.\Generated_Source\PSoC4/CyLib.c **** *  For PSoC 4100M / PSoC 4200M devices, this function will also enable WCO lock
  81:.\Generated_Source\PSoC4/CyLib.c **** *  if selected in the Design Wide Resources tab.
  82:.\Generated_Source\PSoC4/CyLib.c **** *
  83:.\Generated_Source\PSoC4/CyLib.c **** * Parameters:
  84:.\Generated_Source\PSoC4/CyLib.c **** *  None
  85:.\Generated_Source\PSoC4/CyLib.c **** *
  86:.\Generated_Source\PSoC4/CyLib.c **** * Return:
  87:.\Generated_Source\PSoC4/CyLib.c **** *  None
  88:.\Generated_Source\PSoC4/CyLib.c **** *
  89:.\Generated_Source\PSoC4/CyLib.c **** *******************************************************************************/
  90:.\Generated_Source\PSoC4/CyLib.c **** void CySysClkImoStart(void)
ARM GAS  C:\Users\11401393\AppData\Local\Temp\cctINdqa.s 			page 3


  91:.\Generated_Source\PSoC4/CyLib.c **** {
  92:.\Generated_Source\PSoC4/CyLib.c ****     CY_SYS_CLK_IMO_CONFIG_REG |= CY_SYS_CLK_IMO_CONFIG_ENABLE;
  93:.\Generated_Source\PSoC4/CyLib.c **** 
  94:.\Generated_Source\PSoC4/CyLib.c ****     #if (CY_PSOC4_4100M || CY_PSOC4_4200M)
  95:.\Generated_Source\PSoC4/CyLib.c ****         #if (CYDEV_IMO_TRIMMED_BY_WCO == 1u)
  96:.\Generated_Source\PSoC4/CyLib.c ****             CySysClkImoEnableWcoLock();
  97:.\Generated_Source\PSoC4/CyLib.c ****         #endif  /* (CYDEV_IMO_TRIMMED_BY_WCO == 1u) */
  98:.\Generated_Source\PSoC4/CyLib.c ****     #endif  /* (CY_PSOC4_4100M || CY_PSOC4_4200M) */
  99:.\Generated_Source\PSoC4/CyLib.c **** 
 100:.\Generated_Source\PSoC4/CyLib.c **** }
 101:.\Generated_Source\PSoC4/CyLib.c **** 
 102:.\Generated_Source\PSoC4/CyLib.c **** 
 103:.\Generated_Source\PSoC4/CyLib.c **** /*******************************************************************************
 104:.\Generated_Source\PSoC4/CyLib.c **** * Function Name: CySysClkImoStop
 105:.\Generated_Source\PSoC4/CyLib.c **** ********************************************************************************
 106:.\Generated_Source\PSoC4/CyLib.c **** *
 107:.\Generated_Source\PSoC4/CyLib.c **** * Summary:
 108:.\Generated_Source\PSoC4/CyLib.c **** *  Disables the IMO.
 109:.\Generated_Source\PSoC4/CyLib.c **** *
 110:.\Generated_Source\PSoC4/CyLib.c **** *  For PSoC 4100M/PSoC 4200M devices , this function will also disable WCO lock
 111:.\Generated_Source\PSoC4/CyLib.c **** *  if already enabled.
 112:.\Generated_Source\PSoC4/CyLib.c **** *
 113:.\Generated_Source\PSoC4/CyLib.c **** * Parameters:
 114:.\Generated_Source\PSoC4/CyLib.c **** *  None
 115:.\Generated_Source\PSoC4/CyLib.c **** *
 116:.\Generated_Source\PSoC4/CyLib.c **** * Return:
 117:.\Generated_Source\PSoC4/CyLib.c **** *  None
 118:.\Generated_Source\PSoC4/CyLib.c **** *
 119:.\Generated_Source\PSoC4/CyLib.c **** *******************************************************************************/
 120:.\Generated_Source\PSoC4/CyLib.c **** void CySysClkImoStop(void)
 121:.\Generated_Source\PSoC4/CyLib.c **** {
 122:.\Generated_Source\PSoC4/CyLib.c ****     #if (CY_PSOC4_4100M || CY_PSOC4_4200M)
 123:.\Generated_Source\PSoC4/CyLib.c ****         CySysClkImoDisableWcoLock();
 124:.\Generated_Source\PSoC4/CyLib.c ****     #endif  /* #if (CY_PSOC4_4100M || CY_PSOC4_4200M) */
 125:.\Generated_Source\PSoC4/CyLib.c **** 
 126:.\Generated_Source\PSoC4/CyLib.c ****     CY_SYS_CLK_IMO_CONFIG_REG &= ( uint32 ) ( ~( uint32 )CY_SYS_CLK_IMO_CONFIG_ENABLE);
 127:.\Generated_Source\PSoC4/CyLib.c **** }
 128:.\Generated_Source\PSoC4/CyLib.c **** 
 129:.\Generated_Source\PSoC4/CyLib.c **** #if (CY_PSOC4_4100M || CY_PSOC4_4200M)
 130:.\Generated_Source\PSoC4/CyLib.c **** 
 131:.\Generated_Source\PSoC4/CyLib.c ****     /*******************************************************************************
 132:.\Generated_Source\PSoC4/CyLib.c ****     * Function Name: CySysClkImoEnableWcoLock
 133:.\Generated_Source\PSoC4/CyLib.c ****     ********************************************************************************
 134:.\Generated_Source\PSoC4/CyLib.c ****     *
 135:.\Generated_Source\PSoC4/CyLib.c ****     * Summary:
 136:.\Generated_Source\PSoC4/CyLib.c ****     *  Enables the IMO to WCO lock feature. This function works only if the WCO is
 137:.\Generated_Source\PSoC4/CyLib.c ****     *  already enabled. If the WCO is not enabled then this function returns
 138:.\Generated_Source\PSoC4/CyLib.c ****     *  without enabling the lock feature.
 139:.\Generated_Source\PSoC4/CyLib.c ****     *
 140:.\Generated_Source\PSoC4/CyLib.c ****     *  This function is applicable for PSoC 4100M/PSoC 4200M devices only.
 141:.\Generated_Source\PSoC4/CyLib.c ****     *
 142:.\Generated_Source\PSoC4/CyLib.c ****     * Parameters:
 143:.\Generated_Source\PSoC4/CyLib.c ****     *  None
 144:.\Generated_Source\PSoC4/CyLib.c ****     *
 145:.\Generated_Source\PSoC4/CyLib.c ****     * Return:
 146:.\Generated_Source\PSoC4/CyLib.c ****     *  None
 147:.\Generated_Source\PSoC4/CyLib.c ****     *
ARM GAS  C:\Users\11401393\AppData\Local\Temp\cctINdqa.s 			page 4


 148:.\Generated_Source\PSoC4/CyLib.c ****     *******************************************************************************/
 149:.\Generated_Source\PSoC4/CyLib.c ****     void CySysClkImoEnableWcoLock(void)
 150:.\Generated_Source\PSoC4/CyLib.c ****     {
 151:.\Generated_Source\PSoC4/CyLib.c ****         uint32 i;
 152:.\Generated_Source\PSoC4/CyLib.c ****         uint32 freq = CY_SYS_CLK_IMO_MIN_FREQ_MHZ;
 153:.\Generated_Source\PSoC4/CyLib.c ****         uint8  interruptState;
 154:.\Generated_Source\PSoC4/CyLib.c ****         uint32 regTmp;
 155:.\Generated_Source\PSoC4/CyLib.c ****         volatile uint32 flashCtlReg;
 156:.\Generated_Source\PSoC4/CyLib.c **** 
 157:.\Generated_Source\PSoC4/CyLib.c ****         if (0u != CySysClkWcoEnabled())
 158:.\Generated_Source\PSoC4/CyLib.c ****         {
 159:.\Generated_Source\PSoC4/CyLib.c ****             interruptState = CyEnterCriticalSection();
 160:.\Generated_Source\PSoC4/CyLib.c **** 
 161:.\Generated_Source\PSoC4/CyLib.c ****             /* Get current IMO frequency based on the register value */
 162:.\Generated_Source\PSoC4/CyLib.c ****             for(i = 0u; i < CY_SYS_CLK_IMO_FREQ_TABLE_SIZE; i++)
 163:.\Generated_Source\PSoC4/CyLib.c ****             {
 164:.\Generated_Source\PSoC4/CyLib.c ****                 if ((uint8) (CY_SYS_CLK_IMO_TRIM2_REG & CY_SYS_CLK_IMO_FREQ_BITS_MASK) == cyImoFreq
 165:.\Generated_Source\PSoC4/CyLib.c ****                 {
 166:.\Generated_Source\PSoC4/CyLib.c ****                     freq = i + CY_SYS_CLK_IMO_FREQ_TABLE_OFFSET;
 167:.\Generated_Source\PSoC4/CyLib.c ****                     break;
 168:.\Generated_Source\PSoC4/CyLib.c ****                 }
 169:.\Generated_Source\PSoC4/CyLib.c ****             }
 170:.\Generated_Source\PSoC4/CyLib.c **** 
 171:.\Generated_Source\PSoC4/CyLib.c ****             if ((CY_SYS_CLK_IMO_TRIM4_REG & CY_SYS_CLK_IMO_TRIM4_GAIN_MASK) == 0u)
 172:.\Generated_Source\PSoC4/CyLib.c ****             {
 173:.\Generated_Source\PSoC4/CyLib.c **** 			    CY_SYS_CLK_IMO_TRIM4_REG = (CY_SYS_CLK_IMO_TRIM4_REG & (uint32) ~CY_SYS_CLK_IMO_TRIM4_GAIN_M
 174:.\Generated_Source\PSoC4/CyLib.c **** 			             				    CY_SYS_CLK_IMO_TRIM4_GAIN;
 175:.\Generated_Source\PSoC4/CyLib.c ****             }
 176:.\Generated_Source\PSoC4/CyLib.c **** 
 177:.\Generated_Source\PSoC4/CyLib.c ****             regTmp  = CY_SYS_CLK_WCO_DPLL_REG & ~(CY_SYS_CLK_WCO_DPLL_MULT_MASK |
 178:.\Generated_Source\PSoC4/CyLib.c ****                                                   CY_SYS_CLK_WCO_CONFIG_DPLL_LF_IGAIN_MASK |
 179:.\Generated_Source\PSoC4/CyLib.c ****                                                   CY_SYS_CLK_WCO_CONFIG_DPLL_LF_PGAIN_MASK);
 180:.\Generated_Source\PSoC4/CyLib.c **** 
 181:.\Generated_Source\PSoC4/CyLib.c ****             /* Set multiplier to determine IMO frequency in multiples of the WCO frequency */
 182:.\Generated_Source\PSoC4/CyLib.c ****             regTmp |= (CY_SYS_CLK_WCO_DPLL_MULT_VALUE(freq) & CY_SYS_CLK_WCO_DPLL_MULT_MASK);
 183:.\Generated_Source\PSoC4/CyLib.c **** 
 184:.\Generated_Source\PSoC4/CyLib.c ****             /* Set DPLL Loop Filter Integral and Proportional Gains Setting */
 185:.\Generated_Source\PSoC4/CyLib.c ****             regTmp |= (CY_SYS_CLK_WCO_CONFIG_DPLL_LF_IGAIN | CY_SYS_CLK_WCO_CONFIG_DPLL_LF_PGAIN);
 186:.\Generated_Source\PSoC4/CyLib.c **** 
 187:.\Generated_Source\PSoC4/CyLib.c ****             CY_SYS_CLK_WCO_DPLL_REG = regTmp;
 188:.\Generated_Source\PSoC4/CyLib.c **** 
 189:.\Generated_Source\PSoC4/CyLib.c ****             flashCtlReg = CY_FLASH_CTL_REG;
 190:.\Generated_Source\PSoC4/CyLib.c ****             CySysFlashSetWaitCycles(CY_SYS_CLK_IMO_MAX_FREQ_MHZ);
 191:.\Generated_Source\PSoC4/CyLib.c ****             CY_SYS_CLK_WCO_CONFIG_REG |= CY_SYS_CLK_WCO_CONFIG_DPLL_ENABLE;
 192:.\Generated_Source\PSoC4/CyLib.c ****             CyDelay(320u);
 193:.\Generated_Source\PSoC4/CyLib.c ****             CY_FLASH_CTL_REG = flashCtlReg;
 194:.\Generated_Source\PSoC4/CyLib.c **** 
 195:.\Generated_Source\PSoC4/CyLib.c ****             CyExitCriticalSection(interruptState);
 196:.\Generated_Source\PSoC4/CyLib.c ****         }
 197:.\Generated_Source\PSoC4/CyLib.c ****     }
 198:.\Generated_Source\PSoC4/CyLib.c **** 
 199:.\Generated_Source\PSoC4/CyLib.c **** 
 200:.\Generated_Source\PSoC4/CyLib.c ****     /*******************************************************************************
 201:.\Generated_Source\PSoC4/CyLib.c ****     * Function Name: CySysClkImoDisableWcoLock
 202:.\Generated_Source\PSoC4/CyLib.c ****     ********************************************************************************
 203:.\Generated_Source\PSoC4/CyLib.c ****     *
 204:.\Generated_Source\PSoC4/CyLib.c ****     * Summary:
ARM GAS  C:\Users\11401393\AppData\Local\Temp\cctINdqa.s 			page 5


 205:.\Generated_Source\PSoC4/CyLib.c ****     *  Disables the IMO to WCO lock feature.
 206:.\Generated_Source\PSoC4/CyLib.c ****     *
 207:.\Generated_Source\PSoC4/CyLib.c ****     *  This function is applicable for PSoC 4100M/PSoC 4200M devices only.
 208:.\Generated_Source\PSoC4/CyLib.c ****     *
 209:.\Generated_Source\PSoC4/CyLib.c ****     * Parameters:
 210:.\Generated_Source\PSoC4/CyLib.c ****     *  None
 211:.\Generated_Source\PSoC4/CyLib.c ****     *
 212:.\Generated_Source\PSoC4/CyLib.c ****     * Return:
 213:.\Generated_Source\PSoC4/CyLib.c ****     *  None
 214:.\Generated_Source\PSoC4/CyLib.c ****     *
 215:.\Generated_Source\PSoC4/CyLib.c ****     *******************************************************************************/
 216:.\Generated_Source\PSoC4/CyLib.c ****     void CySysClkImoDisableWcoLock(void)
 217:.\Generated_Source\PSoC4/CyLib.c ****     {
 218:.\Generated_Source\PSoC4/CyLib.c ****         CY_SYS_CLK_WCO_CONFIG_REG &= (uint32) ~CY_SYS_CLK_WCO_CONFIG_DPLL_ENABLE;
 219:.\Generated_Source\PSoC4/CyLib.c ****     }
 220:.\Generated_Source\PSoC4/CyLib.c **** 
 221:.\Generated_Source\PSoC4/CyLib.c **** 
 222:.\Generated_Source\PSoC4/CyLib.c ****     /*******************************************************************************
 223:.\Generated_Source\PSoC4/CyLib.c ****     * Function Name: CySysClkImoGetWcoLock
 224:.\Generated_Source\PSoC4/CyLib.c ****     ********************************************************************************
 225:.\Generated_Source\PSoC4/CyLib.c ****     *
 226:.\Generated_Source\PSoC4/CyLib.c ****     * Summary:
 227:.\Generated_Source\PSoC4/CyLib.c ****     *  Reports the IMO to WCO lock enable state.
 228:.\Generated_Source\PSoC4/CyLib.c ****     *
 229:.\Generated_Source\PSoC4/CyLib.c ****     *  This function is applicable for PSoC 4100M/PSoC 4200M devices only.
 230:.\Generated_Source\PSoC4/CyLib.c ****     *
 231:.\Generated_Source\PSoC4/CyLib.c ****     * Parameters:
 232:.\Generated_Source\PSoC4/CyLib.c ****     *  None
 233:.\Generated_Source\PSoC4/CyLib.c ****     *
 234:.\Generated_Source\PSoC4/CyLib.c ****     * Return:
 235:.\Generated_Source\PSoC4/CyLib.c ****     *  1 if IMO to WCO lock is enabled, and 0 if IMO to WCO lock is disabled.
 236:.\Generated_Source\PSoC4/CyLib.c ****     *
 237:.\Generated_Source\PSoC4/CyLib.c ****     *******************************************************************************/
 238:.\Generated_Source\PSoC4/CyLib.c ****     static uint32 CySysClkImoGetWcoLock(void)
 239:.\Generated_Source\PSoC4/CyLib.c ****     {
  25              		.loc 1 239 0
  26              		.cfi_startproc
 240:.\Generated_Source\PSoC4/CyLib.c ****         return ((0u != (CY_SYS_CLK_WCO_CONFIG_REG & CY_SYS_CLK_WCO_CONFIG_DPLL_ENABLE)) ?
  27              		.loc 1 240 0
  28 0000 034B     		ldr	r3, .L4
  29 0002 1B68     		ldr	r3, [r3]
 241:.\Generated_Source\PSoC4/CyLib.c ****                 (uint32) 1u :
  30              		.loc 1 241 0
  31 0004 5A00     		lsl	r2, r3, #1
  32 0006 01D5     		bpl	.L3
  33 0008 0120     		mov	r0, #1
  34 000a 00E0     		b	.L2
  35              	.L3:
  36 000c 0020     		mov	r0, #0
  37              	.L2:
 242:.\Generated_Source\PSoC4/CyLib.c ****                 (uint32) 0u);
 243:.\Generated_Source\PSoC4/CyLib.c ****     }
  38              		.loc 1 243 0
  39              		@ sp needed
  40 000e 7047     		bx	lr
  41              	.L5:
  42              		.align	2
ARM GAS  C:\Users\11401393\AppData\Local\Temp\cctINdqa.s 			page 6


  43              	.L4:
  44 0010 00002240 		.word	1075970048
  45              		.cfi_endproc
  46              	.LFE5:
  47              		.size	CySysClkImoGetWcoLock, .-CySysClkImoGetWcoLock
  48              		.section	.text.CySysClkImoStart,"ax",%progbits
  49              		.align	2
  50              		.global	CySysClkImoStart
  51              		.code	16
  52              		.thumb_func
  53              		.type	CySysClkImoStart, %function
  54              	CySysClkImoStart:
  55              	.LFB1:
  91:.\Generated_Source\PSoC4/CyLib.c **** {
  56              		.loc 1 91 0
  57              		.cfi_startproc
  92:.\Generated_Source\PSoC4/CyLib.c ****     CY_SYS_CLK_IMO_CONFIG_REG |= CY_SYS_CLK_IMO_CONFIG_ENABLE;
  58              		.loc 1 92 0
  59 0000 034B     		ldr	r3, .L7
  60 0002 1968     		ldr	r1, [r3]
  61 0004 8022     		mov	r2, #128
  62 0006 1206     		lsl	r2, r2, #24
  63 0008 0A43     		orr	r2, r1
  64 000a 1A60     		str	r2, [r3]
 100:.\Generated_Source\PSoC4/CyLib.c **** }
  65              		.loc 1 100 0
  66              		@ sp needed
  67 000c 7047     		bx	lr
  68              	.L8:
  69 000e C046     		.align	2
  70              	.L7:
  71 0010 08010B40 		.word	1074462984
  72              		.cfi_endproc
  73              	.LFE1:
  74              		.size	CySysClkImoStart, .-CySysClkImoStart
  75              		.section	.text.CySysClkImoDisableWcoLock,"ax",%progbits
  76              		.align	2
  77              		.global	CySysClkImoDisableWcoLock
  78              		.code	16
  79              		.thumb_func
  80              		.type	CySysClkImoDisableWcoLock, %function
  81              	CySysClkImoDisableWcoLock:
  82              	.LFB4:
 217:.\Generated_Source\PSoC4/CyLib.c ****     {
  83              		.loc 1 217 0
  84              		.cfi_startproc
 218:.\Generated_Source\PSoC4/CyLib.c ****         CY_SYS_CLK_WCO_CONFIG_REG &= (uint32) ~CY_SYS_CLK_WCO_CONFIG_DPLL_ENABLE;
  85              		.loc 1 218 0
  86 0000 024B     		ldr	r3, .L10
  87 0002 1968     		ldr	r1, [r3]
  88 0004 024A     		ldr	r2, .L10+4
  89 0006 0A40     		and	r2, r1
  90 0008 1A60     		str	r2, [r3]
 219:.\Generated_Source\PSoC4/CyLib.c ****     }
  91              		.loc 1 219 0
  92              		@ sp needed
  93 000a 7047     		bx	lr
ARM GAS  C:\Users\11401393\AppData\Local\Temp\cctINdqa.s 			page 7


  94              	.L11:
  95              		.align	2
  96              	.L10:
  97 000c 00002240 		.word	1075970048
  98 0010 FFFFFFBF 		.word	-1073741825
  99              		.cfi_endproc
 100              	.LFE4:
 101              		.size	CySysClkImoDisableWcoLock, .-CySysClkImoDisableWcoLock
 102              		.section	.text.CySysClkImoStop,"ax",%progbits
 103              		.align	2
 104              		.global	CySysClkImoStop
 105              		.code	16
 106              		.thumb_func
 107              		.type	CySysClkImoStop, %function
 108              	CySysClkImoStop:
 109              	.LFB2:
 121:.\Generated_Source\PSoC4/CyLib.c **** {
 110              		.loc 1 121 0
 111              		.cfi_startproc
 112 0000 08B5     		push	{r3, lr}
 113              		.cfi_def_cfa_offset 8
 114              		.cfi_offset 3, -8
 115              		.cfi_offset 14, -4
 123:.\Generated_Source\PSoC4/CyLib.c ****         CySysClkImoDisableWcoLock();
 116              		.loc 1 123 0
 117 0002 FFF7FEFF 		bl	CySysClkImoDisableWcoLock
 118              	.LVL0:
 126:.\Generated_Source\PSoC4/CyLib.c ****     CY_SYS_CLK_IMO_CONFIG_REG &= ( uint32 ) ( ~( uint32 )CY_SYS_CLK_IMO_CONFIG_ENABLE);
 119              		.loc 1 126 0
 120 0006 034B     		ldr	r3, .L13
 121 0008 1A68     		ldr	r2, [r3]
 122 000a 5200     		lsl	r2, r2, #1
 123 000c 5208     		lsr	r2, r2, #1
 124 000e 1A60     		str	r2, [r3]
 127:.\Generated_Source\PSoC4/CyLib.c **** }
 125              		.loc 1 127 0
 126              		@ sp needed
 127 0010 08BD     		pop	{r3, pc}
 128              	.L14:
 129 0012 C046     		.align	2
 130              	.L13:
 131 0014 08010B40 		.word	1074462984
 132              		.cfi_endproc
 133              	.LFE2:
 134              		.size	CySysClkImoStop, .-CySysClkImoStop
 135              		.section	.text.CySysClkWriteHfclkDirect,"ax",%progbits
 136              		.align	2
 137              		.global	CySysClkWriteHfclkDirect
 138              		.code	16
 139              		.thumb_func
 140              		.type	CySysClkWriteHfclkDirect, %function
 141              	CySysClkWriteHfclkDirect:
 142              	.LFB6:
 244:.\Generated_Source\PSoC4/CyLib.c **** 
 245:.\Generated_Source\PSoC4/CyLib.c **** #endif /* (CY_PSOC4_4100M || CY_PSOC4_4200M) */
 246:.\Generated_Source\PSoC4/CyLib.c **** 
 247:.\Generated_Source\PSoC4/CyLib.c **** 
ARM GAS  C:\Users\11401393\AppData\Local\Temp\cctINdqa.s 			page 8


 248:.\Generated_Source\PSoC4/CyLib.c **** /*******************************************************************************
 249:.\Generated_Source\PSoC4/CyLib.c **** * Function Name: CySysClkWriteHfclkDirect
 250:.\Generated_Source\PSoC4/CyLib.c **** ********************************************************************************
 251:.\Generated_Source\PSoC4/CyLib.c **** *
 252:.\Generated_Source\PSoC4/CyLib.c **** * Summary:
 253:.\Generated_Source\PSoC4/CyLib.c **** *  Selects the direct source for the HFCLK.
 254:.\Generated_Source\PSoC4/CyLib.c **** *
 255:.\Generated_Source\PSoC4/CyLib.c **** * Parameters:
 256:.\Generated_Source\PSoC4/CyLib.c **** *  clkSelect: One of the available HFCLK direct sources:
 257:.\Generated_Source\PSoC4/CyLib.c **** *   Define                    Source
 258:.\Generated_Source\PSoC4/CyLib.c **** *    CY_SYS_CLK_HFCLK_IMO     IMO
 259:.\Generated_Source\PSoC4/CyLib.c **** *    CY_SYS_CLK_HFCLK_EXTCLK  External clock pin
 260:.\Generated_Source\PSoC4/CyLib.c **** *    CY_SYS_CLK_HFCLK_ECO     External crystal oscillator
 261:.\Generated_Source\PSoC4/CyLib.c **** *                             (applicable only for PSoC 4100-BL / PSoC 4200-BL)
 262:.\Generated_Source\PSoC4/CyLib.c **** *
 263:.\Generated_Source\PSoC4/CyLib.c **** * Return:
 264:.\Generated_Source\PSoC4/CyLib.c **** *  None
 265:.\Generated_Source\PSoC4/CyLib.c **** *
 266:.\Generated_Source\PSoC4/CyLib.c **** * Side Effects:
 267:.\Generated_Source\PSoC4/CyLib.c **** *  The new source must be running and stable before calling this function.
 268:.\Generated_Source\PSoC4/CyLib.c **** *
 269:.\Generated_Source\PSoC4/CyLib.c **** *  PSoC 4000:
 270:.\Generated_Source\PSoC4/CyLib.c **** *  The SYSCLK has a maximum speed of 16 MHz, so HFCLK and SYSCLK dividers should
 271:.\Generated_Source\PSoC4/CyLib.c **** *  be selected in a way to not to exceed 16 MHz for the System clock.
 272:.\Generated_Source\PSoC4/CyLib.c **** *
 273:.\Generated_Source\PSoC4/CyLib.c **** *  If the SYSCLK clock frequency increases during device operation, call
 274:.\Generated_Source\PSoC4/CyLib.c **** *  CySysFlashSetWaitCycles() with the appropriate parameter to adjust the number
 275:.\Generated_Source\PSoC4/CyLib.c **** *  of clock cycles the cache will wait before sampling data comes back from
 276:.\Generated_Source\PSoC4/CyLib.c **** *  Flash. If the SYSCLK clock frequency decreases, you can call
 277:.\Generated_Source\PSoC4/CyLib.c **** *  CySysFlashSetWaitCycles() to improve the CPU performance. See
 278:.\Generated_Source\PSoC4/CyLib.c **** *  CySysFlashSetWaitCycles() description for more information.
 279:.\Generated_Source\PSoC4/CyLib.c **** *
 280:.\Generated_Source\PSoC4/CyLib.c **** *******************************************************************************/
 281:.\Generated_Source\PSoC4/CyLib.c **** void CySysClkWriteHfclkDirect(uint32 clkSelect)
 282:.\Generated_Source\PSoC4/CyLib.c **** {
 143              		.loc 1 282 0
 144              		.cfi_startproc
 145              	.LVL1:
 146 0000 10B5     		push	{r4, lr}
 147              		.cfi_def_cfa_offset 8
 148              		.cfi_offset 4, -8
 149              		.cfi_offset 14, -4
 150 0002 041C     		mov	r4, r0
 283:.\Generated_Source\PSoC4/CyLib.c ****     uint8  interruptState;
 284:.\Generated_Source\PSoC4/CyLib.c **** 
 285:.\Generated_Source\PSoC4/CyLib.c ****     interruptState = CyEnterCriticalSection();
 151              		.loc 1 285 0
 152 0004 FFF7FEFF 		bl	CyEnterCriticalSection
 153              	.LVL2:
 286:.\Generated_Source\PSoC4/CyLib.c **** 
 287:.\Generated_Source\PSoC4/CyLib.c ****     CY_SYS_CLK_SELECT_REG = ((CY_SYS_CLK_SELECT_REG & (( uint32 ) ~(( uint32 )CY_SYS_CLK_SELECT_DIR
 154              		.loc 1 287 0
 155 0008 054B     		ldr	r3, .L16
 156 000a 1A68     		ldr	r2, [r3]
 157 000c 0721     		mov	r1, #7
 158 000e 8A43     		bic	r2, r1
 288:.\Generated_Source\PSoC4/CyLib.c ****                         (( uint32 ) (clkSelect & ( uint32 )CY_SYS_CLK_SELECT_DIRECT_SEL_PARAM_MASK)
ARM GAS  C:\Users\11401393\AppData\Local\Temp\cctINdqa.s 			page 9


 159              		.loc 1 288 0
 160 0010 0121     		mov	r1, #1
 161 0012 0C40     		and	r4, r1
 162              	.LVL3:
 287:.\Generated_Source\PSoC4/CyLib.c ****     CY_SYS_CLK_SELECT_REG = ((CY_SYS_CLK_SELECT_REG & (( uint32 ) ~(( uint32 )CY_SYS_CLK_SELECT_DIR
 163              		.loc 1 287 0
 164 0014 1443     		orr	r4, r2
 165 0016 1C60     		str	r4, [r3]
 289:.\Generated_Source\PSoC4/CyLib.c **** 
 290:.\Generated_Source\PSoC4/CyLib.c ****     CyExitCriticalSection(interruptState);
 166              		.loc 1 290 0
 167 0018 FFF7FEFF 		bl	CyExitCriticalSection
 168              	.LVL4:
 291:.\Generated_Source\PSoC4/CyLib.c **** }
 169              		.loc 1 291 0
 170              		@ sp needed
 171 001c 10BD     		pop	{r4, pc}
 172              	.L17:
 173 001e C046     		.align	2
 174              	.L16:
 175 0020 00010B40 		.word	1074462976
 176              		.cfi_endproc
 177              	.LFE6:
 178              		.size	CySysClkWriteHfclkDirect, .-CySysClkWriteHfclkDirect
 179              		.section	.text.CySysClkWriteSysclkDiv,"ax",%progbits
 180              		.align	2
 181              		.global	CySysClkWriteSysclkDiv
 182              		.code	16
 183              		.thumb_func
 184              		.type	CySysClkWriteSysclkDiv, %function
 185              	CySysClkWriteSysclkDiv:
 186              	.LFB7:
 292:.\Generated_Source\PSoC4/CyLib.c **** 
 293:.\Generated_Source\PSoC4/CyLib.c **** 
 294:.\Generated_Source\PSoC4/CyLib.c **** /*******************************************************************************
 295:.\Generated_Source\PSoC4/CyLib.c **** * Function Name: CySysClkWriteSysclkDiv
 296:.\Generated_Source\PSoC4/CyLib.c **** ********************************************************************************
 297:.\Generated_Source\PSoC4/CyLib.c **** *
 298:.\Generated_Source\PSoC4/CyLib.c **** * Summary:
 299:.\Generated_Source\PSoC4/CyLib.c **** *  Selects the prescaler divide amount for SYSCLK from HFCLK.
 300:.\Generated_Source\PSoC4/CyLib.c **** *
 301:.\Generated_Source\PSoC4/CyLib.c **** * Parameters:
 302:.\Generated_Source\PSoC4/CyLib.c **** *  divider: Power of 2 prescaler selection
 303:.\Generated_Source\PSoC4/CyLib.c **** *
 304:.\Generated_Source\PSoC4/CyLib.c **** *   Define                        Description
 305:.\Generated_Source\PSoC4/CyLib.c **** *   CY_SYS_CLK_SYSCLK_DIV1        SYSCLK = HFCLK / 1
 306:.\Generated_Source\PSoC4/CyLib.c **** *   CY_SYS_CLK_SYSCLK_DIV2        SYSCLK = HFCLK / 2
 307:.\Generated_Source\PSoC4/CyLib.c **** *   CY_SYS_CLK_SYSCLK_DIV4        SYSCLK = HFCLK / 4
 308:.\Generated_Source\PSoC4/CyLib.c **** *   CY_SYS_CLK_SYSCLK_DIV8        SYSCLK = HFCLK / 8
 309:.\Generated_Source\PSoC4/CyLib.c **** *   CY_SYS_CLK_SYSCLK_DIV16       SYSCLK = HFCLK / 16  (N/A for 4000 Family)
 310:.\Generated_Source\PSoC4/CyLib.c **** *   CY_SYS_CLK_SYSCLK_DIV32       SYSCLK = HFCLK / 32  (N/A for 4000 Family)
 311:.\Generated_Source\PSoC4/CyLib.c **** *   CY_SYS_CLK_SYSCLK_DIV64       SYSCLK = HFCLK / 64  (N/A for 4000 Family)
 312:.\Generated_Source\PSoC4/CyLib.c **** *   CY_SYS_CLK_SYSCLK_DIV128      SYSCLK = HFCLK / 128 (N/A for 4000 Family)
 313:.\Generated_Source\PSoC4/CyLib.c **** *
 314:.\Generated_Source\PSoC4/CyLib.c **** * Return:
 315:.\Generated_Source\PSoC4/CyLib.c **** *  None
 316:.\Generated_Source\PSoC4/CyLib.c **** *
ARM GAS  C:\Users\11401393\AppData\Local\Temp\cctINdqa.s 			page 10


 317:.\Generated_Source\PSoC4/CyLib.c **** * Side Effects:
 318:.\Generated_Source\PSoC4/CyLib.c **** *  4000 Family:
 319:.\Generated_Source\PSoC4/CyLib.c **** *  The SYS_CLK has the speed of 16 MHz, so dividers HF_CLK and SYS_CLK
 320:.\Generated_Source\PSoC4/CyLib.c **** *  dividers should be selected in a way, not to exceed 16 MHz for SYS_CLK.
 321:.\Generated_Source\PSoC4/CyLib.c **** *
 322:.\Generated_Source\PSoC4/CyLib.c **** *  If the SYSCLK clock frequency increases during the device operation, call
 323:.\Generated_Source\PSoC4/CyLib.c **** *  CySysFlashSetWaitCycles() with the appropriate parameter to adjust the number
 324:.\Generated_Source\PSoC4/CyLib.c **** *  of clock cycles the cache will wait before sampling data comes back from
 325:.\Generated_Source\PSoC4/CyLib.c **** *  Flash. If the SYSCLK clock frequency decreases, you can call
 326:.\Generated_Source\PSoC4/CyLib.c **** *  CySysFlashSetWaitCycles() to improve the CPU performance. See
 327:.\Generated_Source\PSoC4/CyLib.c **** *  CySysFlashSetWaitCycles() description for more information.
 328:.\Generated_Source\PSoC4/CyLib.c **** *
 329:.\Generated_Source\PSoC4/CyLib.c **** *******************************************************************************/
 330:.\Generated_Source\PSoC4/CyLib.c **** void CySysClkWriteSysclkDiv(uint32 divider)
 331:.\Generated_Source\PSoC4/CyLib.c **** {
 187              		.loc 1 331 0
 188              		.cfi_startproc
 189              	.LVL5:
 190 0000 10B5     		push	{r4, lr}
 191              		.cfi_def_cfa_offset 8
 192              		.cfi_offset 4, -8
 193              		.cfi_offset 14, -4
 194 0002 041C     		mov	r4, r0
 332:.\Generated_Source\PSoC4/CyLib.c ****     uint8  interruptState;
 333:.\Generated_Source\PSoC4/CyLib.c **** 
 334:.\Generated_Source\PSoC4/CyLib.c ****     interruptState = CyEnterCriticalSection();
 195              		.loc 1 334 0
 196 0004 FFF7FEFF 		bl	CyEnterCriticalSection
 197              	.LVL6:
 335:.\Generated_Source\PSoC4/CyLib.c **** 
 336:.\Generated_Source\PSoC4/CyLib.c ****     CY_SYS_CLK_SELECT_REG = ((uint32)(((uint32)divider & CY_SYS_CLK_SELECT_SYSCLK_DIV_MASK) <<
 198              		.loc 1 336 0
 199 0008 0722     		mov	r2, #7
 200 000a 1440     		and	r4, r2
 201              	.LVL7:
 202 000c E204     		lsl	r2, r4, #19
 337:.\Generated_Source\PSoC4/CyLib.c ****                                     CY_SYS_CLK_SELECT_SYSCLK_DIV_SHIFT)) |
 338:.\Generated_Source\PSoC4/CyLib.c ****                             (CY_SYS_CLK_SELECT_REG & ((uint32)(~(uint32)(CY_SYS_CLK_SELECT_SYSCLK_D
 203              		.loc 1 338 0
 204 000e 044B     		ldr	r3, .L19
 205 0010 1C68     		ldr	r4, [r3]
 206 0012 0449     		ldr	r1, .L19+4
 207 0014 0C40     		and	r4, r1
 337:.\Generated_Source\PSoC4/CyLib.c ****                                     CY_SYS_CLK_SELECT_SYSCLK_DIV_SHIFT)) |
 208              		.loc 1 337 0
 209 0016 1443     		orr	r4, r2
 336:.\Generated_Source\PSoC4/CyLib.c ****     CY_SYS_CLK_SELECT_REG = ((uint32)(((uint32)divider & CY_SYS_CLK_SELECT_SYSCLK_DIV_MASK) <<
 210              		.loc 1 336 0
 211 0018 1C60     		str	r4, [r3]
 339:.\Generated_Source\PSoC4/CyLib.c ****                                     CY_SYS_CLK_SELECT_SYSCLK_DIV_SHIFT))));
 340:.\Generated_Source\PSoC4/CyLib.c **** 
 341:.\Generated_Source\PSoC4/CyLib.c ****     CyExitCriticalSection(interruptState);
 212              		.loc 1 341 0
 213 001a FFF7FEFF 		bl	CyExitCriticalSection
 214              	.LVL8:
 342:.\Generated_Source\PSoC4/CyLib.c **** }
 215              		.loc 1 342 0
ARM GAS  C:\Users\11401393\AppData\Local\Temp\cctINdqa.s 			page 11


 216              		@ sp needed
 217 001e 10BD     		pop	{r4, pc}
 218              	.L20:
 219              		.align	2
 220              	.L19:
 221 0020 00010B40 		.word	1074462976
 222 0024 FFFFC7FF 		.word	-3670017
 223              		.cfi_endproc
 224              	.LFE7:
 225              		.size	CySysClkWriteSysclkDiv, .-CySysClkWriteSysclkDiv
 226              		.section	.text.CySysLvdDisable,"ax",%progbits
 227              		.align	2
 228              		.global	CySysLvdDisable
 229              		.code	16
 230              		.thumb_func
 231              		.type	CySysLvdDisable, %function
 232              	CySysLvdDisable:
 233              	.LFB10:
 343:.\Generated_Source\PSoC4/CyLib.c **** 
 344:.\Generated_Source\PSoC4/CyLib.c **** 
 345:.\Generated_Source\PSoC4/CyLib.c **** /*******************************************************************************
 346:.\Generated_Source\PSoC4/CyLib.c **** * Function Name: CySysClkWriteImoFreq
 347:.\Generated_Source\PSoC4/CyLib.c **** ********************************************************************************
 348:.\Generated_Source\PSoC4/CyLib.c **** *
 349:.\Generated_Source\PSoC4/CyLib.c **** * Summary:
 350:.\Generated_Source\PSoC4/CyLib.c **** *  Sets the frequency of the IMO.
 351:.\Generated_Source\PSoC4/CyLib.c **** *
 352:.\Generated_Source\PSoC4/CyLib.c **** *  If IMO is currently driving the HFCLK, and if the HFCLK frequency decreases,
 353:.\Generated_Source\PSoC4/CyLib.c **** *  you can call CySysFlashSetWaitCycles () to improve CPU performance. See
 354:.\Generated_Source\PSoC4/CyLib.c **** *  CySysFlashSetWaitCycles () for more information.
 355:.\Generated_Source\PSoC4/CyLib.c **** *
 356:.\Generated_Source\PSoC4/CyLib.c **** *  For PSoC 4000 family of devices, maximum HFCLK frequency is 16 MHz. If IMO is
 357:.\Generated_Source\PSoC4/CyLib.c **** *  configured to frequencies above 16 MHz, ensure to set the appropriate HFCLK
 358:.\Generated_Source\PSoC4/CyLib.c **** *  predivider value first.
 359:.\Generated_Source\PSoC4/CyLib.c **** *
 360:.\Generated_Source\PSoC4/CyLib.c **** *  For PSoC 4100M/PSoC 4200M devices, if WCO lock feature is enabled then this
 361:.\Generated_Source\PSoC4/CyLib.c **** *  API will disable the lock, write the new IMO frequency and then re-enable the
 362:.\Generated_Source\PSoC4/CyLib.c **** *  lock.
 363:.\Generated_Source\PSoC4/CyLib.c **** *
 364:.\Generated_Source\PSoC4/CyLib.c **** * Parameters:
 365:.\Generated_Source\PSoC4/CyLib.c **** *  All PSoC 4 families excluding PSoC 4000: Valid range [3-48] with step size
 366:.\Generated_Source\PSoC4/CyLib.c **** *  equals 1.
 367:.\Generated_Source\PSoC4/CyLib.c **** *
 368:.\Generated_Source\PSoC4/CyLib.c **** *  PSoC 4000: Valid range [24-48] with step size equals 4.
 369:.\Generated_Source\PSoC4/CyLib.c **** *
 370:.\Generated_Source\PSoC4/CyLib.c **** *  Note: The CPU is halted if new frequency is invalid and project is
 371:.\Generated_Source\PSoC4/CyLib.c **** *  compiled in debug mode.
 372:.\Generated_Source\PSoC4/CyLib.c **** *
 373:.\Generated_Source\PSoC4/CyLib.c **** * Return:
 374:.\Generated_Source\PSoC4/CyLib.c **** *  None
 375:.\Generated_Source\PSoC4/CyLib.c **** *
 376:.\Generated_Source\PSoC4/CyLib.c **** * Side Effects:
 377:.\Generated_Source\PSoC4/CyLib.c **** *  If the SYSCLK clock frequency increases during the device operation, call
 378:.\Generated_Source\PSoC4/CyLib.c **** *  CySysFlashSetWaitCycles() with the appropriate parameter to adjust the number
 379:.\Generated_Source\PSoC4/CyLib.c **** *  of clock cycles the cache will wait before sampling data comes back from
 380:.\Generated_Source\PSoC4/CyLib.c **** *  Flash. If the SYSCLK clock frequency decreases, you can call
 381:.\Generated_Source\PSoC4/CyLib.c **** *  CySysFlashSetWaitCycles() to improve the CPU performance. See
ARM GAS  C:\Users\11401393\AppData\Local\Temp\cctINdqa.s 			page 12


 382:.\Generated_Source\PSoC4/CyLib.c **** *  CySysFlashSetWaitCycles() description for more information.
 383:.\Generated_Source\PSoC4/CyLib.c **** *
 384:.\Generated_Source\PSoC4/CyLib.c **** *  PSoC 4000: The System Clock (SYSCLK) has maximum speed of 16 MHz, so HFCLK
 385:.\Generated_Source\PSoC4/CyLib.c **** *  and SYSCLK dividers should be selected in a way, to not to exceed 16 MHz for
 386:.\Generated_Source\PSoC4/CyLib.c **** *  the System clock.
 387:.\Generated_Source\PSoC4/CyLib.c **** *
 388:.\Generated_Source\PSoC4/CyLib.c **** *******************************************************************************/
 389:.\Generated_Source\PSoC4/CyLib.c **** #if(CY_IP_SRSSV2)
 390:.\Generated_Source\PSoC4/CyLib.c ****     void CySysClkWriteImoFreq(uint32 freq)
 391:.\Generated_Source\PSoC4/CyLib.c ****     {
 392:.\Generated_Source\PSoC4/CyLib.c ****         #if (CY_IP_FMLT)
 393:.\Generated_Source\PSoC4/CyLib.c ****             volatile uint32   parameters[2u];
 394:.\Generated_Source\PSoC4/CyLib.c ****             volatile uint32   regValues[4u];
 395:.\Generated_Source\PSoC4/CyLib.c ****         #else
 396:.\Generated_Source\PSoC4/CyLib.c ****             uint8  bgTrim4;
 397:.\Generated_Source\PSoC4/CyLib.c ****             uint8  bgTrim5;
 398:.\Generated_Source\PSoC4/CyLib.c ****             uint8  newImoTrim2Value;
 399:.\Generated_Source\PSoC4/CyLib.c ****             uint8  currentImoTrim2Value;
 400:.\Generated_Source\PSoC4/CyLib.c ****         #endif /* (CY_IP_FM) */
 401:.\Generated_Source\PSoC4/CyLib.c **** 
 402:.\Generated_Source\PSoC4/CyLib.c ****         #if (CY_PSOC4_4100M || CY_PSOC4_4200M)
 403:.\Generated_Source\PSoC4/CyLib.c ****             uint32 wcoLock = 0u;
 404:.\Generated_Source\PSoC4/CyLib.c ****         #endif  /* #if (CY_PSOC4_4100M || CY_PSOC4_4200M) */
 405:.\Generated_Source\PSoC4/CyLib.c **** 
 406:.\Generated_Source\PSoC4/CyLib.c ****         uint8  interruptState;
 407:.\Generated_Source\PSoC4/CyLib.c **** 
 408:.\Generated_Source\PSoC4/CyLib.c **** 
 409:.\Generated_Source\PSoC4/CyLib.c ****         interruptState = CyEnterCriticalSection();
 410:.\Generated_Source\PSoC4/CyLib.c **** 
 411:.\Generated_Source\PSoC4/CyLib.c ****         #if (CY_PSOC4_4100M || CY_PSOC4_4200M)
 412:.\Generated_Source\PSoC4/CyLib.c ****             if(0u != CySysClkImoGetWcoLock())
 413:.\Generated_Source\PSoC4/CyLib.c ****             {
 414:.\Generated_Source\PSoC4/CyLib.c ****                 wcoLock = 1u;
 415:.\Generated_Source\PSoC4/CyLib.c ****                 CySysClkImoDisableWcoLock();
 416:.\Generated_Source\PSoC4/CyLib.c ****             }
 417:.\Generated_Source\PSoC4/CyLib.c ****         #endif  /* #if (CY_PSOC4_4100M || CY_PSOC4_4200M) */
 418:.\Generated_Source\PSoC4/CyLib.c **** 
 419:.\Generated_Source\PSoC4/CyLib.c ****         #if (CY_IP_FMLT)
 420:.\Generated_Source\PSoC4/CyLib.c **** 
 421:.\Generated_Source\PSoC4/CyLib.c ****             /* FM-Lite Clock Restore */
 422:.\Generated_Source\PSoC4/CyLib.c ****             regValues[0u] = CY_SYS_CLK_IMO_CONFIG_REG;
 423:.\Generated_Source\PSoC4/CyLib.c ****             regValues[1u] = CY_SYS_CLK_SELECT_REG;
 424:.\Generated_Source\PSoC4/CyLib.c ****             regValues[2u] = cyImoFreqMhz2Reg[freq - CY_SYS_CLK_IMO_FREQ_TABLE_OFFSET];
 425:.\Generated_Source\PSoC4/CyLib.c ****             regValues[3u] = CY_FLASH_CTL_REG;
 426:.\Generated_Source\PSoC4/CyLib.c **** 
 427:.\Generated_Source\PSoC4/CyLib.c ****             parameters[0u] =
 428:.\Generated_Source\PSoC4/CyLib.c ****                 (uint32) ((CY_FLASH_KEY_TWO(CY_FLASH_API_OPCODE_CLK_RESTORE) <<  CY_FLASH_PARAM_KEY
 429:.\Generated_Source\PSoC4/CyLib.c ****                             CY_FLASH_KEY_ONE);
 430:.\Generated_Source\PSoC4/CyLib.c ****             parameters[1u] = (uint32) &regValues[0u];
 431:.\Generated_Source\PSoC4/CyLib.c **** 
 432:.\Generated_Source\PSoC4/CyLib.c ****             CY_FLASH_CPUSS_SYSARG_REG = (uint32) &parameters[0u];
 433:.\Generated_Source\PSoC4/CyLib.c ****             CY_FLASH_CPUSS_SYSREQ_REG = CY_FLASH_CPUSS_REQ_START | CY_FLASH_API_OPCODE_CLK_RESTORE;
 434:.\Generated_Source\PSoC4/CyLib.c ****             (void) CY_FLASH_CPUSS_SYSARG_REG;
 435:.\Generated_Source\PSoC4/CyLib.c **** 
 436:.\Generated_Source\PSoC4/CyLib.c ****         #else /* (CY_IP_FM) */
 437:.\Generated_Source\PSoC4/CyLib.c **** 
 438:.\Generated_Source\PSoC4/CyLib.c ****         if ((freq >= CY_SYS_CLK_IMO_MIN_FREQ_MHZ) && (freq <= CY_SYS_CLK_IMO_MAX_FREQ_MHZ))
ARM GAS  C:\Users\11401393\AppData\Local\Temp\cctINdqa.s 			page 13


 439:.\Generated_Source\PSoC4/CyLib.c ****         {
 440:.\Generated_Source\PSoC4/CyLib.c ****             if(freq <= CY_SFLASH_IMO_MAXF0_REG)
 441:.\Generated_Source\PSoC4/CyLib.c ****             {
 442:.\Generated_Source\PSoC4/CyLib.c ****                 bgTrim4 = CY_SFLASH_IMO_ABS0_REG;
 443:.\Generated_Source\PSoC4/CyLib.c ****                 bgTrim5 = CY_SFLASH_IMO_TMPCO0_REG;
 444:.\Generated_Source\PSoC4/CyLib.c ****             }
 445:.\Generated_Source\PSoC4/CyLib.c ****             else if(freq <= CY_SFLASH_IMO_MAXF1_REG)
 446:.\Generated_Source\PSoC4/CyLib.c ****             {
 447:.\Generated_Source\PSoC4/CyLib.c ****                 bgTrim4 = CY_SFLASH_IMO_ABS1_REG;
 448:.\Generated_Source\PSoC4/CyLib.c ****                 bgTrim5 = CY_SFLASH_IMO_TMPCO1_REG;
 449:.\Generated_Source\PSoC4/CyLib.c ****             }
 450:.\Generated_Source\PSoC4/CyLib.c ****             else if(freq <= CY_SFLASH_IMO_MAXF2_REG)
 451:.\Generated_Source\PSoC4/CyLib.c ****             {
 452:.\Generated_Source\PSoC4/CyLib.c ****                 bgTrim4 = CY_SFLASH_IMO_ABS2_REG;
 453:.\Generated_Source\PSoC4/CyLib.c ****                 bgTrim5 = CY_SFLASH_IMO_TMPCO2_REG;
 454:.\Generated_Source\PSoC4/CyLib.c ****             }
 455:.\Generated_Source\PSoC4/CyLib.c ****             else if(freq <= CY_SFLASH_IMO_MAXF3_REG)
 456:.\Generated_Source\PSoC4/CyLib.c ****             {
 457:.\Generated_Source\PSoC4/CyLib.c ****                 bgTrim4 = CY_SFLASH_IMO_ABS3_REG;
 458:.\Generated_Source\PSoC4/CyLib.c ****                 bgTrim5 = CY_SFLASH_IMO_TMPCO3_REG;
 459:.\Generated_Source\PSoC4/CyLib.c ****             }
 460:.\Generated_Source\PSoC4/CyLib.c ****             else
 461:.\Generated_Source\PSoC4/CyLib.c ****             {
 462:.\Generated_Source\PSoC4/CyLib.c ****                 bgTrim4 = CY_SFLASH_IMO_ABS4_REG;
 463:.\Generated_Source\PSoC4/CyLib.c ****                 bgTrim5 = CY_SFLASH_IMO_TMPCO4_REG;
 464:.\Generated_Source\PSoC4/CyLib.c ****             }
 465:.\Generated_Source\PSoC4/CyLib.c **** 
 466:.\Generated_Source\PSoC4/CyLib.c ****             /* Get IMO_TRIM2 value for the new frequency */
 467:.\Generated_Source\PSoC4/CyLib.c ****             newImoTrim2Value = cyImoFreqMhz2Reg[freq - CY_SYS_CLK_IMO_FREQ_TABLE_OFFSET];
 468:.\Generated_Source\PSoC4/CyLib.c **** 
 469:.\Generated_Source\PSoC4/CyLib.c **** 
 470:.\Generated_Source\PSoC4/CyLib.c ****             /**********************************************`*****************************
 471:.\Generated_Source\PSoC4/CyLib.c ****             * The IMO can have a different trim per frequency. To avoid possible corner
 472:.\Generated_Source\PSoC4/CyLib.c ****             * cases where a trim change can exceed the maximum frequency, the trim must
 473:.\Generated_Source\PSoC4/CyLib.c ****             * be applied at a frequency that is low enough.
 474:.\Generated_Source\PSoC4/CyLib.c ****             *
 475:.\Generated_Source\PSoC4/CyLib.c ****             * Comparing IMO_TRIM2 values for the current and new frequencies, since
 476:.\Generated_Source\PSoC4/CyLib.c ****             * IMO_TRIM2 value as a function of IMO frequency is a strictly increasing
 477:.\Generated_Source\PSoC4/CyLib.c ****             * function and is time-invariant.
 478:.\Generated_Source\PSoC4/CyLib.c ****             ***************************************************************************/
 479:.\Generated_Source\PSoC4/CyLib.c ****             if ((newImoTrim2Value >= CY_SYS_CLK_IMO_BOUNDARY_FREQ_TRIM2) && (freq >= CY_SYS_CLK_IMO
 480:.\Generated_Source\PSoC4/CyLib.c ****             {
 481:.\Generated_Source\PSoC4/CyLib.c ****                 /* Set boundary IMO frequency: safe for IMO above 48 MHZ trimming */
 482:.\Generated_Source\PSoC4/CyLib.c ****                 CY_SYS_CLK_IMO_TRIM2_REG = (uint32) cyImoFreqMhz2Reg[CY_SYS_CLK_IMO_TEMP_FREQ_MHZ -
 483:.\Generated_Source\PSoC4/CyLib.c ****                                                                      CY_SYS_CLK_IMO_FREQ_TABLE_OFFS
 484:.\Generated_Source\PSoC4/CyLib.c **** 
 485:.\Generated_Source\PSoC4/CyLib.c ****                 CyDelayCycles(CY_SYS_CLK_IMO_FREQ_TIMEOUT_CYCLES);
 486:.\Generated_Source\PSoC4/CyLib.c **** 
 487:.\Generated_Source\PSoC4/CyLib.c ****                 currentImoTrim2Value = CY_SYS_CLK_IMO_TEMP_FREQ_TRIM2;
 488:.\Generated_Source\PSoC4/CyLib.c ****             }
 489:.\Generated_Source\PSoC4/CyLib.c ****             else
 490:.\Generated_Source\PSoC4/CyLib.c ****             {
 491:.\Generated_Source\PSoC4/CyLib.c ****                 currentImoTrim2Value = (uint8) (CY_SYS_CLK_IMO_TRIM2_REG & CY_SYS_CLK_IMO_FREQ_BITS
 492:.\Generated_Source\PSoC4/CyLib.c ****             }
 493:.\Generated_Source\PSoC4/CyLib.c **** 
 494:.\Generated_Source\PSoC4/CyLib.c **** 
 495:.\Generated_Source\PSoC4/CyLib.c ****             /***************************************************************************
ARM GAS  C:\Users\11401393\AppData\Local\Temp\cctINdqa.s 			page 14


 496:.\Generated_Source\PSoC4/CyLib.c ****             * A trim change needs to be allowed to settle (within 5us) before the Freq
 497:.\Generated_Source\PSoC4/CyLib.c ****             * can be changed to a new frequency.
 498:.\Generated_Source\PSoC4/CyLib.c ****             *
 499:.\Generated_Source\PSoC4/CyLib.c ****             * Comparing IMO_TRIM2 values for the current and new frequencies, since
 500:.\Generated_Source\PSoC4/CyLib.c ****             * IMO_TRIM2 value as a function of IMO frequency is a strictly increasing
 501:.\Generated_Source\PSoC4/CyLib.c ****             * function and is time-invariant.
 502:.\Generated_Source\PSoC4/CyLib.c ****             ***************************************************************************/
 503:.\Generated_Source\PSoC4/CyLib.c ****             if (newImoTrim2Value < currentImoTrim2Value)
 504:.\Generated_Source\PSoC4/CyLib.c ****             {
 505:.\Generated_Source\PSoC4/CyLib.c ****                 /* Set new IMO frequency */
 506:.\Generated_Source\PSoC4/CyLib.c ****                 CY_SYS_CLK_IMO_TRIM2_REG = cyImoFreqMhz2Reg[freq - CY_SYS_CLK_IMO_FREQ_TABLE_OFFSET
 507:.\Generated_Source\PSoC4/CyLib.c ****                 CyDelayCycles(CY_SYS_CLK_IMO_FREQ_TIMEOUT_CYCLES);
 508:.\Generated_Source\PSoC4/CyLib.c ****             }
 509:.\Generated_Source\PSoC4/CyLib.c **** 
 510:.\Generated_Source\PSoC4/CyLib.c ****             /* Set trims for the new IMO frequency */
 511:.\Generated_Source\PSoC4/CyLib.c ****             CY_SYS_CLK_IMO_TRIM1_REG = (uint32) CY_SFLASH_IMO_TRIM_REG(freq - CY_SYS_CLK_IMO_FREQ_T
 512:.\Generated_Source\PSoC4/CyLib.c ****             CY_PWR_BG_TRIM4_REG  = bgTrim4;
 513:.\Generated_Source\PSoC4/CyLib.c ****             CY_PWR_BG_TRIM5_REG  = bgTrim5;
 514:.\Generated_Source\PSoC4/CyLib.c ****             CyDelayUs(CY_SYS_CLK_IMO_TRIM_TIMEOUT_US);
 515:.\Generated_Source\PSoC4/CyLib.c **** 
 516:.\Generated_Source\PSoC4/CyLib.c ****             if (newImoTrim2Value > currentImoTrim2Value)
 517:.\Generated_Source\PSoC4/CyLib.c ****             {
 518:.\Generated_Source\PSoC4/CyLib.c ****                 /* Set new IMO frequency */
 519:.\Generated_Source\PSoC4/CyLib.c ****                 CY_SYS_CLK_IMO_TRIM2_REG = cyImoFreqMhz2Reg[freq - CY_SYS_CLK_IMO_FREQ_TABLE_OFFSET
 520:.\Generated_Source\PSoC4/CyLib.c ****                 CyDelayCycles(CY_SYS_CLK_IMO_FREQ_TIMEOUT_CYCLES);
 521:.\Generated_Source\PSoC4/CyLib.c ****             }
 522:.\Generated_Source\PSoC4/CyLib.c ****         }
 523:.\Generated_Source\PSoC4/CyLib.c ****         else
 524:.\Generated_Source\PSoC4/CyLib.c ****         {
 525:.\Generated_Source\PSoC4/CyLib.c ****             /* Halt CPU in debug mode if new frequency is invalid */
 526:.\Generated_Source\PSoC4/CyLib.c ****             CYASSERT(0u != 0u);
 527:.\Generated_Source\PSoC4/CyLib.c ****         }
 528:.\Generated_Source\PSoC4/CyLib.c **** 
 529:.\Generated_Source\PSoC4/CyLib.c ****         #endif /* (CY_IP_FMLT) */
 530:.\Generated_Source\PSoC4/CyLib.c **** 
 531:.\Generated_Source\PSoC4/CyLib.c ****         #if (CY_PSOC4_4100M || CY_PSOC4_4200M)
 532:.\Generated_Source\PSoC4/CyLib.c ****             if (1u == wcoLock)
 533:.\Generated_Source\PSoC4/CyLib.c ****             {
 534:.\Generated_Source\PSoC4/CyLib.c ****                 CySysClkImoEnableWcoLock();
 535:.\Generated_Source\PSoC4/CyLib.c ****             }
 536:.\Generated_Source\PSoC4/CyLib.c ****         #endif  /* #if (CY_PSOC4_4100M || CY_PSOC4_4200M) */
 537:.\Generated_Source\PSoC4/CyLib.c **** 
 538:.\Generated_Source\PSoC4/CyLib.c ****         CyExitCriticalSection(interruptState);
 539:.\Generated_Source\PSoC4/CyLib.c ****     }
 540:.\Generated_Source\PSoC4/CyLib.c **** 
 541:.\Generated_Source\PSoC4/CyLib.c **** #else
 542:.\Generated_Source\PSoC4/CyLib.c **** 
 543:.\Generated_Source\PSoC4/CyLib.c ****     void CySysClkWriteImoFreq(uint32 freq)
 544:.\Generated_Source\PSoC4/CyLib.c ****     {
 545:.\Generated_Source\PSoC4/CyLib.c ****         uint8  interruptState;
 546:.\Generated_Source\PSoC4/CyLib.c **** 
 547:.\Generated_Source\PSoC4/CyLib.c ****         if ((freq == 24u) || (freq == 32u) || (freq == 48u))
 548:.\Generated_Source\PSoC4/CyLib.c ****         {
 549:.\Generated_Source\PSoC4/CyLib.c ****             interruptState = CyEnterCriticalSection();
 550:.\Generated_Source\PSoC4/CyLib.c **** 
 551:.\Generated_Source\PSoC4/CyLib.c ****             /* Set IMO to 24 MHz - CLK_IMO_SELECT.FREQ = 0 */
 552:.\Generated_Source\PSoC4/CyLib.c ****             CY_SYS_CLK_IMO_SELECT_REG &= ((uint32) ~CY_SYS_CLK_IMO_SELECT_FREQ_MASK);
ARM GAS  C:\Users\11401393\AppData\Local\Temp\cctINdqa.s 			page 15


 553:.\Generated_Source\PSoC4/CyLib.c **** 
 554:.\Generated_Source\PSoC4/CyLib.c ****             /* Apply coarse trim */
 555:.\Generated_Source\PSoC4/CyLib.c ****             CY_SYS_CLK_IMO_TRIM1_REG = (CY_SYS_CLK_IMO_TRIM1_REG & ((uint32) ~CY_SYS_CLK_IMO_TRIM1_
 556:.\Generated_Source\PSoC4/CyLib.c ****                 (CY_SFLASH_IMO_TRIM_REG(freq - CY_SYS_CLK_IMO_MIN_FREQ_MHZ) & CY_SYS_CLK_IMO_TRIM1_
 557:.\Generated_Source\PSoC4/CyLib.c **** 
 558:.\Generated_Source\PSoC4/CyLib.c ****             /* Zero out fine trim */
 559:.\Generated_Source\PSoC4/CyLib.c ****             CY_SYS_CLK_IMO_TRIM2_REG = CY_SYS_CLK_IMO_TRIM2_REG & ((uint32) ~CY_SYS_CLK_IMO_TRIM2_F
 560:.\Generated_Source\PSoC4/CyLib.c **** 
 561:.\Generated_Source\PSoC4/CyLib.c ****             /* Apply TC trim */
 562:.\Generated_Source\PSoC4/CyLib.c ****             CY_SYS_CLK_IMO_TRIM3_REG = (CY_SYS_CLK_IMO_TRIM3_REG & ((uint32) ~CY_SYS_CLK_IMO_TRIM3_
 563:.\Generated_Source\PSoC4/CyLib.c ****                 (CY_SFLASH_IMO_TCTRIM_REG(freq - CY_SYS_CLK_IMO_MIN_FREQ_MHZ) & CY_SYS_CLK_IMO_TRIM
 564:.\Generated_Source\PSoC4/CyLib.c **** 
 565:.\Generated_Source\PSoC4/CyLib.c ****             CyDelayCycles(CY_SYS_CLK_IMO_TRIM_DELAY_US);
 566:.\Generated_Source\PSoC4/CyLib.c **** 
 567:.\Generated_Source\PSoC4/CyLib.c ****             if (freq > CY_SYS_CLK_IMO_MIN_FREQ_MHZ)
 568:.\Generated_Source\PSoC4/CyLib.c ****             {
 569:.\Generated_Source\PSoC4/CyLib.c ****                 /* Select nearby intermediate frequency */
 570:.\Generated_Source\PSoC4/CyLib.c ****                 CY_SYS_CLK_IMO_SELECT_REG = (CY_SYS_CLK_IMO_SELECT_REG & ((uint32) ~CY_SYS_CLK_IMO_
 571:.\Generated_Source\PSoC4/CyLib.c ****                     (((freq - 4u - CY_SYS_CLK_IMO_MIN_FREQ_MHZ) >> 2u) & CY_SYS_CLK_IMO_SELECT_FREQ
 572:.\Generated_Source\PSoC4/CyLib.c **** 
 573:.\Generated_Source\PSoC4/CyLib.c ****                 CyDelayCycles(CY_SYS_CLK_IMO_TRIM_DELAY_US);
 574:.\Generated_Source\PSoC4/CyLib.c **** 
 575:.\Generated_Source\PSoC4/CyLib.c ****                 /* Make small step to final frequency */
 576:.\Generated_Source\PSoC4/CyLib.c ****                 /* Select nearby intermediate frequency */
 577:.\Generated_Source\PSoC4/CyLib.c ****                 CY_SYS_CLK_IMO_SELECT_REG = (CY_SYS_CLK_IMO_SELECT_REG & ((uint32) ~CY_SYS_CLK_IMO_
 578:.\Generated_Source\PSoC4/CyLib.c ****                     (((freq - CY_SYS_CLK_IMO_MIN_FREQ_MHZ) >> 2u) & CY_SYS_CLK_IMO_SELECT_FREQ_MASK
 579:.\Generated_Source\PSoC4/CyLib.c ****             }
 580:.\Generated_Source\PSoC4/CyLib.c **** 
 581:.\Generated_Source\PSoC4/CyLib.c ****             CyExitCriticalSection(interruptState);
 582:.\Generated_Source\PSoC4/CyLib.c ****         }
 583:.\Generated_Source\PSoC4/CyLib.c ****         else
 584:.\Generated_Source\PSoC4/CyLib.c ****         {
 585:.\Generated_Source\PSoC4/CyLib.c ****             /* Halt CPU in debug mode if new frequency is invalid */
 586:.\Generated_Source\PSoC4/CyLib.c ****             CYASSERT(0u != 0u);
 587:.\Generated_Source\PSoC4/CyLib.c ****         }
 588:.\Generated_Source\PSoC4/CyLib.c ****     }
 589:.\Generated_Source\PSoC4/CyLib.c **** 
 590:.\Generated_Source\PSoC4/CyLib.c **** #endif /* (CY_IP_SRSSV2) */
 591:.\Generated_Source\PSoC4/CyLib.c **** 
 592:.\Generated_Source\PSoC4/CyLib.c **** 
 593:.\Generated_Source\PSoC4/CyLib.c **** #if(CY_IP_SRSSLT)
 594:.\Generated_Source\PSoC4/CyLib.c ****     /*******************************************************************************
 595:.\Generated_Source\PSoC4/CyLib.c ****     * Function Name: CySysClkWriteHfclkDiv
 596:.\Generated_Source\PSoC4/CyLib.c ****     ********************************************************************************
 597:.\Generated_Source\PSoC4/CyLib.c ****     *
 598:.\Generated_Source\PSoC4/CyLib.c ****     * Summary:
 599:.\Generated_Source\PSoC4/CyLib.c ****     *  Selects the pre-scaler divider value for HFCLK from IMO.
 600:.\Generated_Source\PSoC4/CyLib.c ****     *
 601:.\Generated_Source\PSoC4/CyLib.c ****     *  The HFCLK predivider allows the device to divide the HFCLK selection mux
 602:.\Generated_Source\PSoC4/CyLib.c ****     *  input before use as HFCLK. The predivider is capable of dividing the HFCLK by
 603:.\Generated_Source\PSoC4/CyLib.c ****     *  powers of 2 between 1 and 8.
 604:.\Generated_Source\PSoC4/CyLib.c ****     *
 605:.\Generated_Source\PSoC4/CyLib.c ****     *  Note HFCLK's frequency cannot exceed 16 MHz. This API is applicable for
 606:.\Generated_Source\PSoC4/CyLib.c ****     *  PSoC 4000 family of devices only.
 607:.\Generated_Source\PSoC4/CyLib.c ****     *
 608:.\Generated_Source\PSoC4/CyLib.c ****     *
 609:.\Generated_Source\PSoC4/CyLib.c ****     * Parameters:
ARM GAS  C:\Users\11401393\AppData\Local\Temp\cctINdqa.s 			page 16


 610:.\Generated_Source\PSoC4/CyLib.c ****     *  divider: HF clock divider value
 611:.\Generated_Source\PSoC4/CyLib.c ****     *   Define                        Description
 612:.\Generated_Source\PSoC4/CyLib.c ****     *   CY_SYS_CLK_HFCLK_DIV_NODIV    Transparent mode (w/o dividing)
 613:.\Generated_Source\PSoC4/CyLib.c ****     *   CY_SYS_CLK_HFCLK_DIV_2        Divide selected clock source by 2
 614:.\Generated_Source\PSoC4/CyLib.c ****     *   CY_SYS_CLK_HFCLK_DIV_4        Divide selected clock source by 4
 615:.\Generated_Source\PSoC4/CyLib.c ****     *   CY_SYS_CLK_HFCLK_DIV_8        Divide selected clock source by 8
 616:.\Generated_Source\PSoC4/CyLib.c ****     *
 617:.\Generated_Source\PSoC4/CyLib.c ****     * Return:
 618:.\Generated_Source\PSoC4/CyLib.c ****     *  None
 619:.\Generated_Source\PSoC4/CyLib.c ****     *
 620:.\Generated_Source\PSoC4/CyLib.c ****     * Side Effects:
 621:.\Generated_Source\PSoC4/CyLib.c ****     *  If the SYSCLK clock frequency increases during the device operation, call
 622:.\Generated_Source\PSoC4/CyLib.c ****     *  CySysFlashSetWaitCycles() with the appropriate parameter to adjust the number
 623:.\Generated_Source\PSoC4/CyLib.c ****     *  of clock cycles the cache will wait before sampling data comes back from
 624:.\Generated_Source\PSoC4/CyLib.c ****     *  Flash. If the SYSCLK clock frequency decreases, you can call
 625:.\Generated_Source\PSoC4/CyLib.c ****     *  CySysFlashSetWaitCycles() to improve the CPU performance. See
 626:.\Generated_Source\PSoC4/CyLib.c ****     *  CySysFlashSetWaitCycles() description for more information.
 627:.\Generated_Source\PSoC4/CyLib.c ****     *
 628:.\Generated_Source\PSoC4/CyLib.c ****     *******************************************************************************/
 629:.\Generated_Source\PSoC4/CyLib.c ****     void CySysClkWriteHfclkDiv(uint32 divider)
 630:.\Generated_Source\PSoC4/CyLib.c ****     {
 631:.\Generated_Source\PSoC4/CyLib.c ****         uint8  interruptState;
 632:.\Generated_Source\PSoC4/CyLib.c **** 
 633:.\Generated_Source\PSoC4/CyLib.c ****         interruptState = CyEnterCriticalSection();
 634:.\Generated_Source\PSoC4/CyLib.c **** 
 635:.\Generated_Source\PSoC4/CyLib.c ****         CY_SYS_CLK_SELECT_REG = ((CY_SYS_CLK_SELECT_REG & ((uint32) (~(CY_SYS_CLK_SELECT_HFCLK_DIV_
 636:.\Generated_Source\PSoC4/CyLib.c ****                                         CY_SYS_CLK_SELECT_HFCLK_DIV_SHIFT)))) |
 637:.\Generated_Source\PSoC4/CyLib.c ****                     ((uint32)((divider & CY_SYS_CLK_SELECT_HFCLK_DIV_MASK) << CY_SYS_CLK_SELECT_HFC
 638:.\Generated_Source\PSoC4/CyLib.c **** 
 639:.\Generated_Source\PSoC4/CyLib.c ****         CyExitCriticalSection(interruptState);
 640:.\Generated_Source\PSoC4/CyLib.c ****     }
 641:.\Generated_Source\PSoC4/CyLib.c **** #endif /* (CY_IP_SRSSLT) */
 642:.\Generated_Source\PSoC4/CyLib.c **** 
 643:.\Generated_Source\PSoC4/CyLib.c **** 
 644:.\Generated_Source\PSoC4/CyLib.c **** #if (CY_PSOC4_4100BL || CY_PSOC4_4200BL)
 645:.\Generated_Source\PSoC4/CyLib.c **** 
 646:.\Generated_Source\PSoC4/CyLib.c ****     /*******************************************************************************
 647:.\Generated_Source\PSoC4/CyLib.c ****     * Function Name: CySysClkEcoStart
 648:.\Generated_Source\PSoC4/CyLib.c ****     ********************************************************************************
 649:.\Generated_Source\PSoC4/CyLib.c ****     *
 650:.\Generated_Source\PSoC4/CyLib.c ****     * Summary:
 651:.\Generated_Source\PSoC4/CyLib.c ****     *  Starts the External Crystal Oscillator (ECO). Refer to the device datasheet
 652:.\Generated_Source\PSoC4/CyLib.c ****     *  for the ECO startup time.
 653:.\Generated_Source\PSoC4/CyLib.c ****     *
 654:.\Generated_Source\PSoC4/CyLib.c ****     *  The timeout interval is measured based on the system frequency defined by
 655:.\Generated_Source\PSoC4/CyLib.c ****     *  PSoC Creator at build time. If System clock frequency is changed in
 656:.\Generated_Source\PSoC4/CyLib.c ****     *  runtime, the CyDelayFreq() with the appropriate parameter should be called.
 657:.\Generated_Source\PSoC4/CyLib.c ****     *
 658:.\Generated_Source\PSoC4/CyLib.c ****     * Parameters:
 659:.\Generated_Source\PSoC4/CyLib.c ****     *  timeoutUs: Timeout in microseconds. If zero is specified, the function
 660:.\Generated_Source\PSoC4/CyLib.c ****     *             starts the crystal and returns CYRET_SUCCESS. If non-zero
 661:.\Generated_Source\PSoC4/CyLib.c ****     *             value is passed, the CYRET_SUCCESS is returned once crystal
 662:.\Generated_Source\PSoC4/CyLib.c ****     *             is oscillating and amplitude reached 60% and it does not mean
 663:.\Generated_Source\PSoC4/CyLib.c ****     *             24 MHz crystal is within 50 ppm. If it is not oscillating or
 664:.\Generated_Source\PSoC4/CyLib.c ****     *             amplitude didn't reach 60% after specified amount of time, the
 665:.\Generated_Source\PSoC4/CyLib.c ****     *             CYRET_TIMEOUT is returned.
 666:.\Generated_Source\PSoC4/CyLib.c ****     *
ARM GAS  C:\Users\11401393\AppData\Local\Temp\cctINdqa.s 			page 17


 667:.\Generated_Source\PSoC4/CyLib.c ****     * Return:
 668:.\Generated_Source\PSoC4/CyLib.c ****     *   CYRET_SUCCESS - Completed successfully. The ECO is oscillating and amplitude
 669:.\Generated_Source\PSoC4/CyLib.c ****     *                   reached 60% and it does not mean 24 MHz crystal is within
 670:.\Generated_Source\PSoC4/CyLib.c ****     *                   50 ppm.
 671:.\Generated_Source\PSoC4/CyLib.c ****     *   CYRET_TIMEOUT - Timeout occurred.
 672:.\Generated_Source\PSoC4/CyLib.c ****     *
 673:.\Generated_Source\PSoC4/CyLib.c ****     *******************************************************************************/
 674:.\Generated_Source\PSoC4/CyLib.c ****     cystatus CySysClkEcoStart(uint32 timeoutUs)
 675:.\Generated_Source\PSoC4/CyLib.c ****     {
 676:.\Generated_Source\PSoC4/CyLib.c ****         cystatus status = CYRET_SUCCESS;
 677:.\Generated_Source\PSoC4/CyLib.c **** 
 678:.\Generated_Source\PSoC4/CyLib.c ****         /* Enable the RF oscillator band gap */
 679:.\Generated_Source\PSoC4/CyLib.c ****         CY_SYS_XTAL_BLESS_RF_CONFIG_REG |= CY_SYS_XTAL_BLESS_RF_CONFIG_RF_ENABLE;
 680:.\Generated_Source\PSoC4/CyLib.c **** 
 681:.\Generated_Source\PSoC4/CyLib.c ****         /* Update trimming register */
 682:.\Generated_Source\PSoC4/CyLib.c ****         CY_SYS_XTAL_BLERD_BB_XO_REG = CY_SYS_XTAL_BLERD_BB_XO_TRIM;
 683:.\Generated_Source\PSoC4/CyLib.c **** 
 684:.\Generated_Source\PSoC4/CyLib.c ****         /* Enable the Crystal */
 685:.\Generated_Source\PSoC4/CyLib.c ****         CY_SYS_XTAL_BLERD_DBUS_REG |= CY_SYS_XTAL_BLERD_DBUS_XTAL_ENABLE;
 686:.\Generated_Source\PSoC4/CyLib.c **** 
 687:.\Generated_Source\PSoC4/CyLib.c ****         if(timeoutUs > 0u)
 688:.\Generated_Source\PSoC4/CyLib.c ****         {
 689:.\Generated_Source\PSoC4/CyLib.c ****             status = CYRET_TIMEOUT;
 690:.\Generated_Source\PSoC4/CyLib.c **** 
 691:.\Generated_Source\PSoC4/CyLib.c ****             for( ; timeoutUs > 0u; timeoutUs--)
 692:.\Generated_Source\PSoC4/CyLib.c ****             {
 693:.\Generated_Source\PSoC4/CyLib.c ****                 CyDelayUs(1u);
 694:.\Generated_Source\PSoC4/CyLib.c **** 
 695:.\Generated_Source\PSoC4/CyLib.c ****                 if(0u != CySysClkEcoReadStatus())
 696:.\Generated_Source\PSoC4/CyLib.c ****                 {
 697:.\Generated_Source\PSoC4/CyLib.c ****                     status = CYRET_SUCCESS;
 698:.\Generated_Source\PSoC4/CyLib.c ****                     break;
 699:.\Generated_Source\PSoC4/CyLib.c ****                 }
 700:.\Generated_Source\PSoC4/CyLib.c ****             }
 701:.\Generated_Source\PSoC4/CyLib.c **** 
 702:.\Generated_Source\PSoC4/CyLib.c ****         }
 703:.\Generated_Source\PSoC4/CyLib.c **** 
 704:.\Generated_Source\PSoC4/CyLib.c ****         return(status);
 705:.\Generated_Source\PSoC4/CyLib.c ****     }
 706:.\Generated_Source\PSoC4/CyLib.c **** 
 707:.\Generated_Source\PSoC4/CyLib.c **** 
 708:.\Generated_Source\PSoC4/CyLib.c ****     /*******************************************************************************
 709:.\Generated_Source\PSoC4/CyLib.c ****     * Function Name: CySysClkEcoStop
 710:.\Generated_Source\PSoC4/CyLib.c ****     ********************************************************************************
 711:.\Generated_Source\PSoC4/CyLib.c ****     *
 712:.\Generated_Source\PSoC4/CyLib.c ****     * Summary:
 713:.\Generated_Source\PSoC4/CyLib.c ****     *  Stops the megahertz crystal.
 714:.\Generated_Source\PSoC4/CyLib.c ****     *
 715:.\Generated_Source\PSoC4/CyLib.c ****     * Parameters:
 716:.\Generated_Source\PSoC4/CyLib.c ****     *  None
 717:.\Generated_Source\PSoC4/CyLib.c ****     *
 718:.\Generated_Source\PSoC4/CyLib.c ****     * Return:
 719:.\Generated_Source\PSoC4/CyLib.c ****     *  None
 720:.\Generated_Source\PSoC4/CyLib.c ****     *
 721:.\Generated_Source\PSoC4/CyLib.c ****     *******************************************************************************/
 722:.\Generated_Source\PSoC4/CyLib.c ****     void CySysClkEcoStop(void)
 723:.\Generated_Source\PSoC4/CyLib.c ****     {
ARM GAS  C:\Users\11401393\AppData\Local\Temp\cctINdqa.s 			page 18


 724:.\Generated_Source\PSoC4/CyLib.c ****         /* Disable the RF oscillator band gap */
 725:.\Generated_Source\PSoC4/CyLib.c ****         CY_SYS_XTAL_BLESS_RF_CONFIG_REG &= (uint32) ~CY_SYS_XTAL_BLESS_RF_CONFIG_RF_ENABLE;
 726:.\Generated_Source\PSoC4/CyLib.c **** 
 727:.\Generated_Source\PSoC4/CyLib.c ****         /* Disable the Crystal */
 728:.\Generated_Source\PSoC4/CyLib.c ****         CY_SYS_XTAL_BLERD_DBUS_REG &= (uint32) ~CY_SYS_XTAL_BLERD_DBUS_XTAL_ENABLE;
 729:.\Generated_Source\PSoC4/CyLib.c ****     }
 730:.\Generated_Source\PSoC4/CyLib.c **** 
 731:.\Generated_Source\PSoC4/CyLib.c **** 
 732:.\Generated_Source\PSoC4/CyLib.c ****     /*******************************************************************************
 733:.\Generated_Source\PSoC4/CyLib.c ****     * Function Name: CySysClkEcoReadStatus
 734:.\Generated_Source\PSoC4/CyLib.c ****     ********************************************************************************
 735:.\Generated_Source\PSoC4/CyLib.c ****     *
 736:.\Generated_Source\PSoC4/CyLib.c ****     * Summary:
 737:.\Generated_Source\PSoC4/CyLib.c ****     *  Read status bit (50 ppm reached) for the megahertz crystal.
 738:.\Generated_Source\PSoC4/CyLib.c ****     *
 739:.\Generated_Source\PSoC4/CyLib.c ****     * Parameters:
 740:.\Generated_Source\PSoC4/CyLib.c ****     *  None
 741:.\Generated_Source\PSoC4/CyLib.c ****     *
 742:.\Generated_Source\PSoC4/CyLib.c ****     * Return:
 743:.\Generated_Source\PSoC4/CyLib.c ****     *  Non-zero indicates that XTAL output reached 50 ppm.
 744:.\Generated_Source\PSoC4/CyLib.c ****     *
 745:.\Generated_Source\PSoC4/CyLib.c ****     *******************************************************************************/
 746:.\Generated_Source\PSoC4/CyLib.c ****     uint32 CySysClkEcoReadStatus(void)
 747:.\Generated_Source\PSoC4/CyLib.c ****     {
 748:.\Generated_Source\PSoC4/CyLib.c ****         return (CY_SYS_XTAL_BLERD_FSM_REG & CY_SYS_XTAL_BLERD_FSM_XO_AMP_DETECT);
 749:.\Generated_Source\PSoC4/CyLib.c ****     }
 750:.\Generated_Source\PSoC4/CyLib.c **** 
 751:.\Generated_Source\PSoC4/CyLib.c **** 
 752:.\Generated_Source\PSoC4/CyLib.c ****     /*******************************************************************************
 753:.\Generated_Source\PSoC4/CyLib.c ****     * Function Name: CySysClkWriteEcoDiv
 754:.\Generated_Source\PSoC4/CyLib.c ****     ********************************************************************************
 755:.\Generated_Source\PSoC4/CyLib.c ****     *
 756:.\Generated_Source\PSoC4/CyLib.c ****     * Summary:
 757:.\Generated_Source\PSoC4/CyLib.c ****     *  Selects value for the ECO divider.
 758:.\Generated_Source\PSoC4/CyLib.c ****     *
 759:.\Generated_Source\PSoC4/CyLib.c ****     *  The ECO must not be the HFCLK clock source when this function is called.
 760:.\Generated_Source\PSoC4/CyLib.c ****     *  The HFCLK source can be changed to the other clock source by call to the
 761:.\Generated_Source\PSoC4/CyLib.c ****     *  CySysClkWriteHfclkDirect() function. If the ECO sources the HFCLK this
 762:.\Generated_Source\PSoC4/CyLib.c ****     *  function will not have any effect if compiler in release mode, and halt the
 763:.\Generated_Source\PSoC4/CyLib.c ****     *  CPU when compiler in debug mode.
 764:.\Generated_Source\PSoC4/CyLib.c ****     *
 765:.\Generated_Source\PSoC4/CyLib.c ****     * Parameters:
 766:.\Generated_Source\PSoC4/CyLib.c ****     *  divider: Power of 2 divider selection.
 767:.\Generated_Source\PSoC4/CyLib.c ****     *
 768:.\Generated_Source\PSoC4/CyLib.c ****     *   Define                        Description
 769:.\Generated_Source\PSoC4/CyLib.c ****     *   CY_SYS_CLK_ECO_DIV1             HFCLK = ECO / 1
 770:.\Generated_Source\PSoC4/CyLib.c ****     *   CY_SYS_CLK_ECO_DIV2             HFCLK = ECO / 2
 771:.\Generated_Source\PSoC4/CyLib.c ****     *   CY_SYS_CLK_ECO_DIV4             HFCLK = ECO / 4
 772:.\Generated_Source\PSoC4/CyLib.c ****     *   CY_SYS_CLK_ECO_DIV8             HFCLK = ECO / 8
 773:.\Generated_Source\PSoC4/CyLib.c ****     *
 774:.\Generated_Source\PSoC4/CyLib.c ****     * Return:
 775:.\Generated_Source\PSoC4/CyLib.c ****     *  None
 776:.\Generated_Source\PSoC4/CyLib.c ****     *
 777:.\Generated_Source\PSoC4/CyLib.c ****     * Side Effects:
 778:.\Generated_Source\PSoC4/CyLib.c ****     *  If the SYSCLK clock frequency increases during the device operation, call
 779:.\Generated_Source\PSoC4/CyLib.c ****     *  CySysFlashSetWaitCycles() with the appropriate parameter to adjust the number
 780:.\Generated_Source\PSoC4/CyLib.c ****     *  of clock cycles the cache will wait before sampling data comes back from
ARM GAS  C:\Users\11401393\AppData\Local\Temp\cctINdqa.s 			page 19


 781:.\Generated_Source\PSoC4/CyLib.c ****     *  Flash. If the SYSCLK clock frequency decreases, you can call
 782:.\Generated_Source\PSoC4/CyLib.c ****     *  CySysFlashSetWaitCycles() to improve the CPU performance. See
 783:.\Generated_Source\PSoC4/CyLib.c ****     *  CySysFlashSetWaitCycles() description for more information.
 784:.\Generated_Source\PSoC4/CyLib.c ****     *
 785:.\Generated_Source\PSoC4/CyLib.c ****     *******************************************************************************/
 786:.\Generated_Source\PSoC4/CyLib.c ****     void CySysClkWriteEcoDiv(uint32 divider)
 787:.\Generated_Source\PSoC4/CyLib.c ****     {
 788:.\Generated_Source\PSoC4/CyLib.c ****         uint8  interruptState;
 789:.\Generated_Source\PSoC4/CyLib.c **** 
 790:.\Generated_Source\PSoC4/CyLib.c ****         if (CY_SYS_CLK_HFCLK_ECO != (CY_SYS_CLK_SELECT_REG & CY_SYS_CLK_SELECT_DIRECT_SEL_MASK))
 791:.\Generated_Source\PSoC4/CyLib.c ****         {
 792:.\Generated_Source\PSoC4/CyLib.c ****             interruptState = CyEnterCriticalSection();
 793:.\Generated_Source\PSoC4/CyLib.c **** 
 794:.\Generated_Source\PSoC4/CyLib.c ****             CY_SYS_CLK_XTAL_CLK_DIV_CONFIG_REG =  (divider & CY_SYS_CLK_XTAL_CLK_DIV_MASK) |
 795:.\Generated_Source\PSoC4/CyLib.c ****                                                   (CY_SYS_CLK_XTAL_CLK_DIV_CONFIG_REG & ((uint32) ~
 796:.\Generated_Source\PSoC4/CyLib.c **** 
 797:.\Generated_Source\PSoC4/CyLib.c ****             CyExitCriticalSection(interruptState);
 798:.\Generated_Source\PSoC4/CyLib.c ****         }
 799:.\Generated_Source\PSoC4/CyLib.c ****         else
 800:.\Generated_Source\PSoC4/CyLib.c ****         {
 801:.\Generated_Source\PSoC4/CyLib.c ****             /* Halt CPU in debug mode if ECO sources HFCLK */
 802:.\Generated_Source\PSoC4/CyLib.c ****             CYASSERT(0u != 0u);
 803:.\Generated_Source\PSoC4/CyLib.c ****         }
 804:.\Generated_Source\PSoC4/CyLib.c ****     }
 805:.\Generated_Source\PSoC4/CyLib.c **** #endif /* (CY_PSOC4_4100BL || CY_PSOC4_4200BL) */
 806:.\Generated_Source\PSoC4/CyLib.c **** 
 807:.\Generated_Source\PSoC4/CyLib.c **** 
 808:.\Generated_Source\PSoC4/CyLib.c **** 
 809:.\Generated_Source\PSoC4/CyLib.c **** 
 810:.\Generated_Source\PSoC4/CyLib.c **** 
 811:.\Generated_Source\PSoC4/CyLib.c **** 
 812:.\Generated_Source\PSoC4/CyLib.c **** #if(CY_IP_SRSSV2)
 813:.\Generated_Source\PSoC4/CyLib.c **** 
 814:.\Generated_Source\PSoC4/CyLib.c ****     /*******************************************************************************
 815:.\Generated_Source\PSoC4/CyLib.c ****     * Function Name: CySysLvdEnable
 816:.\Generated_Source\PSoC4/CyLib.c ****     ********************************************************************************
 817:.\Generated_Source\PSoC4/CyLib.c ****     *
 818:.\Generated_Source\PSoC4/CyLib.c ****     * Summary:
 819:.\Generated_Source\PSoC4/CyLib.c ****     *  Enables the output of the low-voltage monitor when Vddd is at or below the
 820:.\Generated_Source\PSoC4/CyLib.c ****     *  trip point, configures the device to generate an interrupt, and sets the
 821:.\Generated_Source\PSoC4/CyLib.c ****     *  voltage trip level.
 822:.\Generated_Source\PSoC4/CyLib.c ****     *
 823:.\Generated_Source\PSoC4/CyLib.c ****     * Parameters:
 824:.\Generated_Source\PSoC4/CyLib.c ****     *  threshold: Threshold selection for Low Voltage Detect circuit.
 825:.\Generated_Source\PSoC4/CyLib.c ****     *  Threshold variation is +/- 2.5% from these typical voltage choices.
 826:.\Generated_Source\PSoC4/CyLib.c ****     *         Define                     Voltage threshold
 827:.\Generated_Source\PSoC4/CyLib.c ****     *    CY_LVD_THRESHOLD_1_75_V       1.7500 V
 828:.\Generated_Source\PSoC4/CyLib.c ****     *    CY_LVD_THRESHOLD_1_80_V       1.8000 V
 829:.\Generated_Source\PSoC4/CyLib.c ****     *    CY_LVD_THRESHOLD_1_90_V       1.9000 V
 830:.\Generated_Source\PSoC4/CyLib.c ****     *    CY_LVD_THRESHOLD_2_00_V       2.0000 V
 831:.\Generated_Source\PSoC4/CyLib.c ****     *    CY_LVD_THRESHOLD_2_10_V       2.1000 V
 832:.\Generated_Source\PSoC4/CyLib.c ****     *    CY_LVD_THRESHOLD_2_20_V       2.2000 V
 833:.\Generated_Source\PSoC4/CyLib.c ****     *    CY_LVD_THRESHOLD_2_30_V       2.3000 V
 834:.\Generated_Source\PSoC4/CyLib.c ****     *    CY_LVD_THRESHOLD_2_40_V       2.4000 V
 835:.\Generated_Source\PSoC4/CyLib.c ****     *    CY_LVD_THRESHOLD_2_50_V       2.5000 V
 836:.\Generated_Source\PSoC4/CyLib.c ****     *    CY_LVD_THRESHOLD_2_60_V       2.6000 V
 837:.\Generated_Source\PSoC4/CyLib.c ****     *    CY_LVD_THRESHOLD_2_70_V       2.7000 V
ARM GAS  C:\Users\11401393\AppData\Local\Temp\cctINdqa.s 			page 20


 838:.\Generated_Source\PSoC4/CyLib.c ****     *    CY_LVD_THRESHOLD_2_80_V       2.8000 V
 839:.\Generated_Source\PSoC4/CyLib.c ****     *    CY_LVD_THRESHOLD_2_90_V       2.9000 V
 840:.\Generated_Source\PSoC4/CyLib.c ****     *    CY_LVD_THRESHOLD_3_00_V       3.0000 V
 841:.\Generated_Source\PSoC4/CyLib.c ****     *    CY_LVD_THRESHOLD_3_20_V       3.2000 V
 842:.\Generated_Source\PSoC4/CyLib.c ****     *    CY_LVD_THRESHOLD_4_50_V       4.5000 V
 843:.\Generated_Source\PSoC4/CyLib.c ****     *
 844:.\Generated_Source\PSoC4/CyLib.c ****     * Return:
 845:.\Generated_Source\PSoC4/CyLib.c ****     *  None
 846:.\Generated_Source\PSoC4/CyLib.c ****     *
 847:.\Generated_Source\PSoC4/CyLib.c ****     *******************************************************************************/
 848:.\Generated_Source\PSoC4/CyLib.c ****     void CySysLvdEnable(uint32 threshold)
 849:.\Generated_Source\PSoC4/CyLib.c ****     {
 850:.\Generated_Source\PSoC4/CyLib.c ****         /* Prevent propagating a false interrupt */
 851:.\Generated_Source\PSoC4/CyLib.c ****         CY_LVD_PWR_INTR_MASK_REG   &= (uint32) ~CY_LVD_PROPAGATE_INT_TO_CPU;
 852:.\Generated_Source\PSoC4/CyLib.c **** 
 853:.\Generated_Source\PSoC4/CyLib.c ****         /* Set specified threshold */
 854:.\Generated_Source\PSoC4/CyLib.c ****         CY_LVD_PWR_VMON_CONFIG_REG = (CY_LVD_PWR_VMON_CONFIG_REG & ~CY_LVD_PWR_VMON_CONFIG_LVD_SEL_
 855:.\Generated_Source\PSoC4/CyLib.c ****                 ((threshold << CY_LVD_PWR_VMON_CONFIG_LVD_SEL_SHIFT) & CY_LVD_PWR_VMON_CONFIG_LVD_S
 856:.\Generated_Source\PSoC4/CyLib.c **** 
 857:.\Generated_Source\PSoC4/CyLib.c ****         /* Enable the LVD. This may cause a false LVD event. */
 858:.\Generated_Source\PSoC4/CyLib.c ****         CY_LVD_PWR_VMON_CONFIG_REG |= CY_LVD_PWR_VMON_CONFIG_LVD_EN;
 859:.\Generated_Source\PSoC4/CyLib.c **** 
 860:.\Generated_Source\PSoC4/CyLib.c ****         /* Wait for the circuit to stabilize */
 861:.\Generated_Source\PSoC4/CyLib.c ****         CyDelayUs(CY_LVD_STABILIZE_TIMEOUT_US);
 862:.\Generated_Source\PSoC4/CyLib.c **** 
 863:.\Generated_Source\PSoC4/CyLib.c ****         /* Clear the false event */
 864:.\Generated_Source\PSoC4/CyLib.c ****         CySysLvdClearInterrupt();
 865:.\Generated_Source\PSoC4/CyLib.c **** 
 866:.\Generated_Source\PSoC4/CyLib.c ****         /* Unmask the interrupt */
 867:.\Generated_Source\PSoC4/CyLib.c ****         CY_LVD_PWR_INTR_MASK_REG   |= CY_LVD_PROPAGATE_INT_TO_CPU;
 868:.\Generated_Source\PSoC4/CyLib.c ****     }
 869:.\Generated_Source\PSoC4/CyLib.c **** 
 870:.\Generated_Source\PSoC4/CyLib.c **** 
 871:.\Generated_Source\PSoC4/CyLib.c ****     /*******************************************************************************
 872:.\Generated_Source\PSoC4/CyLib.c ****     * Function Name: CySysLvdDisable
 873:.\Generated_Source\PSoC4/CyLib.c ****     ********************************************************************************
 874:.\Generated_Source\PSoC4/CyLib.c ****     *
 875:.\Generated_Source\PSoC4/CyLib.c ****     * Summary:
 876:.\Generated_Source\PSoC4/CyLib.c ****     *  Disables the low voltage detection. A low voltage interrupt is disabled.
 877:.\Generated_Source\PSoC4/CyLib.c ****     *
 878:.\Generated_Source\PSoC4/CyLib.c ****     * Parameters:
 879:.\Generated_Source\PSoC4/CyLib.c ****     *  None
 880:.\Generated_Source\PSoC4/CyLib.c ****     *
 881:.\Generated_Source\PSoC4/CyLib.c ****     * Return:
 882:.\Generated_Source\PSoC4/CyLib.c ****     *  None
 883:.\Generated_Source\PSoC4/CyLib.c ****     *
 884:.\Generated_Source\PSoC4/CyLib.c ****     *******************************************************************************/
 885:.\Generated_Source\PSoC4/CyLib.c ****     void CySysLvdDisable(void)
 886:.\Generated_Source\PSoC4/CyLib.c ****     {
 234              		.loc 1 886 0
 235              		.cfi_startproc
 887:.\Generated_Source\PSoC4/CyLib.c ****         CY_LVD_PWR_INTR_MASK_REG   &= ~CY_LVD_PROPAGATE_INT_TO_CPU;
 236              		.loc 1 887 0
 237 0000 054B     		ldr	r3, .L22
 238 0002 1A68     		ldr	r2, [r3]
 239 0004 0221     		mov	r1, #2
 240 0006 8A43     		bic	r2, r1
ARM GAS  C:\Users\11401393\AppData\Local\Temp\cctINdqa.s 			page 21


 241 0008 1A60     		str	r2, [r3]
 888:.\Generated_Source\PSoC4/CyLib.c ****         CY_LVD_PWR_VMON_CONFIG_REG &= ~CY_LVD_PWR_VMON_CONFIG_LVD_EN;
 242              		.loc 1 888 0
 243 000a 044B     		ldr	r3, .L22+4
 244 000c 1A68     		ldr	r2, [r3]
 245 000e 0121     		mov	r1, #1
 246 0010 8A43     		bic	r2, r1
 247 0012 1A60     		str	r2, [r3]
 889:.\Generated_Source\PSoC4/CyLib.c ****     }
 248              		.loc 1 889 0
 249              		@ sp needed
 250 0014 7047     		bx	lr
 251              	.L23:
 252 0016 C046     		.align	2
 253              	.L22:
 254 0018 08000B40 		.word	1074462728
 255 001c 18000B40 		.word	1074462744
 256              		.cfi_endproc
 257              	.LFE10:
 258              		.size	CySysLvdDisable, .-CySysLvdDisable
 259              		.section	.text.CySysLvdGetInterruptSource,"ax",%progbits
 260              		.align	2
 261              		.global	CySysLvdGetInterruptSource
 262              		.code	16
 263              		.thumb_func
 264              		.type	CySysLvdGetInterruptSource, %function
 265              	CySysLvdGetInterruptSource:
 266              	.LFB11:
 890:.\Generated_Source\PSoC4/CyLib.c **** 
 891:.\Generated_Source\PSoC4/CyLib.c **** 
 892:.\Generated_Source\PSoC4/CyLib.c ****     /*******************************************************************************
 893:.\Generated_Source\PSoC4/CyLib.c ****     * Function Name: CySysLvdGetInterruptSource
 894:.\Generated_Source\PSoC4/CyLib.c ****     ********************************************************************************
 895:.\Generated_Source\PSoC4/CyLib.c ****     *
 896:.\Generated_Source\PSoC4/CyLib.c ****     * Summary:
 897:.\Generated_Source\PSoC4/CyLib.c ****     *  Gets the low voltage detection interrupt status (without clearing).
 898:.\Generated_Source\PSoC4/CyLib.c ****     *
 899:.\Generated_Source\PSoC4/CyLib.c ****     * Parameters:
 900:.\Generated_Source\PSoC4/CyLib.c ****     *  None
 901:.\Generated_Source\PSoC4/CyLib.c ****     *
 902:.\Generated_Source\PSoC4/CyLib.c ****     * Return:
 903:.\Generated_Source\PSoC4/CyLib.c ****     *  Interrupt request value:
 904:.\Generated_Source\PSoC4/CyLib.c ****     *    CY_SYS_LVD_INT - Indicates an Low Voltage Detect interrupt
 905:.\Generated_Source\PSoC4/CyLib.c ****     *
 906:.\Generated_Source\PSoC4/CyLib.c ****     *******************************************************************************/
 907:.\Generated_Source\PSoC4/CyLib.c ****     uint32 CySysLvdGetInterruptSource(void)
 908:.\Generated_Source\PSoC4/CyLib.c ****     {
 267              		.loc 1 908 0
 268              		.cfi_startproc
 909:.\Generated_Source\PSoC4/CyLib.c ****         return (CY_LVD_PWR_INTR_REG & CY_SYS_LVD_INT);
 269              		.loc 1 909 0
 270 0000 024B     		ldr	r3, .L25
 271 0002 1B68     		ldr	r3, [r3]
 272 0004 0220     		mov	r0, #2
 273 0006 1840     		and	r0, r3
 910:.\Generated_Source\PSoC4/CyLib.c ****     }
 274              		.loc 1 910 0
ARM GAS  C:\Users\11401393\AppData\Local\Temp\cctINdqa.s 			page 22


 275              		@ sp needed
 276 0008 7047     		bx	lr
 277              	.L26:
 278 000a C046     		.align	2
 279              	.L25:
 280 000c 04000B40 		.word	1074462724
 281              		.cfi_endproc
 282              	.LFE11:
 283              		.size	CySysLvdGetInterruptSource, .-CySysLvdGetInterruptSource
 284              		.section	.text.CySysLvdClearInterrupt,"ax",%progbits
 285              		.align	2
 286              		.global	CySysLvdClearInterrupt
 287              		.code	16
 288              		.thumb_func
 289              		.type	CySysLvdClearInterrupt, %function
 290              	CySysLvdClearInterrupt:
 291              	.LFB12:
 911:.\Generated_Source\PSoC4/CyLib.c **** 
 912:.\Generated_Source\PSoC4/CyLib.c **** 
 913:.\Generated_Source\PSoC4/CyLib.c ****     /*******************************************************************************
 914:.\Generated_Source\PSoC4/CyLib.c ****     * Function Name: CySysLvdClearInterrupt
 915:.\Generated_Source\PSoC4/CyLib.c ****     ********************************************************************************
 916:.\Generated_Source\PSoC4/CyLib.c ****     *
 917:.\Generated_Source\PSoC4/CyLib.c ****     * Summary:
 918:.\Generated_Source\PSoC4/CyLib.c ****     *  Clears the low voltage detection interrupt status.
 919:.\Generated_Source\PSoC4/CyLib.c ****     *
 920:.\Generated_Source\PSoC4/CyLib.c ****     * Parameters:
 921:.\Generated_Source\PSoC4/CyLib.c ****     *  None
 922:.\Generated_Source\PSoC4/CyLib.c ****     *
 923:.\Generated_Source\PSoC4/CyLib.c ****     * Return:
 924:.\Generated_Source\PSoC4/CyLib.c ****     *  None
 925:.\Generated_Source\PSoC4/CyLib.c ****     *
 926:.\Generated_Source\PSoC4/CyLib.c ****     *******************************************************************************/
 927:.\Generated_Source\PSoC4/CyLib.c ****     void CySysLvdClearInterrupt(void)
 928:.\Generated_Source\PSoC4/CyLib.c ****     {
 292              		.loc 1 928 0
 293              		.cfi_startproc
 929:.\Generated_Source\PSoC4/CyLib.c ****         CY_LVD_PWR_INTR_REG = CY_SYS_LVD_INT;
 294              		.loc 1 929 0
 295 0000 0222     		mov	r2, #2
 296 0002 014B     		ldr	r3, .L28
 297 0004 1A60     		str	r2, [r3]
 930:.\Generated_Source\PSoC4/CyLib.c ****     }
 298              		.loc 1 930 0
 299              		@ sp needed
 300 0006 7047     		bx	lr
 301              	.L29:
 302              		.align	2
 303              	.L28:
 304 0008 04000B40 		.word	1074462724
 305              		.cfi_endproc
 306              	.LFE12:
 307              		.size	CySysLvdClearInterrupt, .-CySysLvdClearInterrupt
 308              		.section	.text.CySysGetResetReason,"ax",%progbits
 309              		.align	2
 310              		.global	CySysGetResetReason
 311              		.code	16
ARM GAS  C:\Users\11401393\AppData\Local\Temp\cctINdqa.s 			page 23


 312              		.thumb_func
 313              		.type	CySysGetResetReason, %function
 314              	CySysGetResetReason:
 315              	.LFB13:
 931:.\Generated_Source\PSoC4/CyLib.c **** 
 932:.\Generated_Source\PSoC4/CyLib.c **** #endif /* (CY_IP_SRSSV2) */
 933:.\Generated_Source\PSoC4/CyLib.c **** 
 934:.\Generated_Source\PSoC4/CyLib.c **** 
 935:.\Generated_Source\PSoC4/CyLib.c **** /*******************************************************************************
 936:.\Generated_Source\PSoC4/CyLib.c **** * Function Name: CySysGetResetReason
 937:.\Generated_Source\PSoC4/CyLib.c **** ********************************************************************************
 938:.\Generated_Source\PSoC4/CyLib.c **** *
 939:.\Generated_Source\PSoC4/CyLib.c **** * Summary:
 940:.\Generated_Source\PSoC4/CyLib.c **** *  Reports the cause for the latest reset(s) that occurred in the system. All
 941:.\Generated_Source\PSoC4/CyLib.c **** *  the bits in the RES_CAUSE register assert when the corresponding reset cause
 942:.\Generated_Source\PSoC4/CyLib.c **** *  occurs and must be cleared by the firmware. These bits are cleared by the
 943:.\Generated_Source\PSoC4/CyLib.c **** *  hardware only during XRES, POR, or a detected brown-out.
 944:.\Generated_Source\PSoC4/CyLib.c **** *
 945:.\Generated_Source\PSoC4/CyLib.c **** * Parameters:
 946:.\Generated_Source\PSoC4/CyLib.c **** *  reason: bits in the RES_CAUSE register to clear.
 947:.\Generated_Source\PSoC4/CyLib.c **** *   CY_SYS_RESET_WDT       - WDT caused a reset
 948:.\Generated_Source\PSoC4/CyLib.c **** *   CY_SYS_RESET_PROTFAULT - Occured protection violation that requires reset
 949:.\Generated_Source\PSoC4/CyLib.c **** *   CY_SYS_RESET_SW        - Cortex-M0 requested a system reset.
 950:.\Generated_Source\PSoC4/CyLib.c **** *
 951:.\Generated_Source\PSoC4/CyLib.c **** * Return:
 952:.\Generated_Source\PSoC4/CyLib.c **** *  Status. Same enumerated bit values as used for the reason parameter.
 953:.\Generated_Source\PSoC4/CyLib.c **** *
 954:.\Generated_Source\PSoC4/CyLib.c **** *******************************************************************************/
 955:.\Generated_Source\PSoC4/CyLib.c **** uint32 CySysGetResetReason(uint32 reason)
 956:.\Generated_Source\PSoC4/CyLib.c **** {
 316              		.loc 1 956 0
 317              		.cfi_startproc
 318              	.LVL9:
 957:.\Generated_Source\PSoC4/CyLib.c ****     uint32 status;
 958:.\Generated_Source\PSoC4/CyLib.c **** 
 959:.\Generated_Source\PSoC4/CyLib.c ****     reason &= (CY_SYS_RESET_WDT | CY_SYS_RESET_PROTFAULT | CY_SYS_RESET_SW);
 319              		.loc 1 959 0
 320 0000 1922     		mov	r2, #25
 321 0002 111C     		mov	r1, r2
 322 0004 0140     		and	r1, r0
 323              	.LVL10:
 960:.\Generated_Source\PSoC4/CyLib.c ****     status = CY_SYS_RES_CAUSE_REG &
 324              		.loc 1 960 0
 325 0006 024B     		ldr	r3, .L31
 326 0008 1868     		ldr	r0, [r3]
 327 000a 1040     		and	r0, r2
 328              	.LVL11:
 961:.\Generated_Source\PSoC4/CyLib.c ****              (CY_SYS_RESET_WDT | CY_SYS_RESET_PROTFAULT | CY_SYS_RESET_SW);
 962:.\Generated_Source\PSoC4/CyLib.c ****     CY_SYS_RES_CAUSE_REG = reason;
 329              		.loc 1 962 0
 330 000c 1960     		str	r1, [r3]
 963:.\Generated_Source\PSoC4/CyLib.c **** 
 964:.\Generated_Source\PSoC4/CyLib.c ****     return (status);
 965:.\Generated_Source\PSoC4/CyLib.c **** }
 331              		.loc 1 965 0
 332              		@ sp needed
 333 000e 7047     		bx	lr
ARM GAS  C:\Users\11401393\AppData\Local\Temp\cctINdqa.s 			page 24


 334              	.L32:
 335              		.align	2
 336              	.L31:
 337 0010 00030B40 		.word	1074463488
 338              		.cfi_endproc
 339              	.LFE13:
 340              		.size	CySysGetResetReason, .-CySysGetResetReason
 341              		.section	.text.CyDisableInts,"ax",%progbits
 342              		.align	2
 343              		.global	CyDisableInts
 344              		.code	16
 345              		.thumb_func
 346              		.type	CyDisableInts, %function
 347              	CyDisableInts:
 348              	.LFB14:
 966:.\Generated_Source\PSoC4/CyLib.c **** 
 967:.\Generated_Source\PSoC4/CyLib.c **** 
 968:.\Generated_Source\PSoC4/CyLib.c **** /*******************************************************************************
 969:.\Generated_Source\PSoC4/CyLib.c **** * Function Name: CyDisableInts
 970:.\Generated_Source\PSoC4/CyLib.c **** ********************************************************************************
 971:.\Generated_Source\PSoC4/CyLib.c **** *
 972:.\Generated_Source\PSoC4/CyLib.c **** * Summary:
 973:.\Generated_Source\PSoC4/CyLib.c **** *  Disables all interrupts.
 974:.\Generated_Source\PSoC4/CyLib.c **** *
 975:.\Generated_Source\PSoC4/CyLib.c **** * Parameters:
 976:.\Generated_Source\PSoC4/CyLib.c **** *  None
 977:.\Generated_Source\PSoC4/CyLib.c **** *
 978:.\Generated_Source\PSoC4/CyLib.c **** * Return:
 979:.\Generated_Source\PSoC4/CyLib.c **** *  32 bit mask of previously enabled interrupts.
 980:.\Generated_Source\PSoC4/CyLib.c **** *
 981:.\Generated_Source\PSoC4/CyLib.c **** *******************************************************************************/
 982:.\Generated_Source\PSoC4/CyLib.c **** uint32 CyDisableInts(void)
 983:.\Generated_Source\PSoC4/CyLib.c **** {
 349              		.loc 1 983 0
 350              		.cfi_startproc
 984:.\Generated_Source\PSoC4/CyLib.c ****     uint32 intState;
 985:.\Generated_Source\PSoC4/CyLib.c **** 
 986:.\Generated_Source\PSoC4/CyLib.c ****     /* Get current interrupt state. */
 987:.\Generated_Source\PSoC4/CyLib.c ****     intState = CY_INT_CLEAR_REG;
 351              		.loc 1 987 0
 352 0000 024B     		ldr	r3, .L34
 353 0002 1868     		ldr	r0, [r3]
 354              	.LVL12:
 988:.\Generated_Source\PSoC4/CyLib.c **** 
 989:.\Generated_Source\PSoC4/CyLib.c ****     /* Disable all interrupts. */
 990:.\Generated_Source\PSoC4/CyLib.c ****     CY_INT_CLEAR_REG = CY_INT_CLEAR_DISABLE_ALL;
 355              		.loc 1 990 0
 356 0004 0122     		mov	r2, #1
 357 0006 5242     		neg	r2, r2
 358 0008 1A60     		str	r2, [r3]
 991:.\Generated_Source\PSoC4/CyLib.c **** 
 992:.\Generated_Source\PSoC4/CyLib.c ****     return (intState);
 993:.\Generated_Source\PSoC4/CyLib.c **** }
 359              		.loc 1 993 0
 360              		@ sp needed
 361 000a 7047     		bx	lr
 362              	.L35:
ARM GAS  C:\Users\11401393\AppData\Local\Temp\cctINdqa.s 			page 25


 363              		.align	2
 364              	.L34:
 365 000c 80E100E0 		.word	-536813184
 366              		.cfi_endproc
 367              	.LFE14:
 368              		.size	CyDisableInts, .-CyDisableInts
 369              		.section	.text.CyEnableInts,"ax",%progbits
 370              		.align	2
 371              		.global	CyEnableInts
 372              		.code	16
 373              		.thumb_func
 374              		.type	CyEnableInts, %function
 375              	CyEnableInts:
 376              	.LFB15:
 994:.\Generated_Source\PSoC4/CyLib.c **** 
 995:.\Generated_Source\PSoC4/CyLib.c **** 
 996:.\Generated_Source\PSoC4/CyLib.c **** /*******************************************************************************
 997:.\Generated_Source\PSoC4/CyLib.c **** * Function Name: CyEnableInts
 998:.\Generated_Source\PSoC4/CyLib.c **** ********************************************************************************
 999:.\Generated_Source\PSoC4/CyLib.c **** *
1000:.\Generated_Source\PSoC4/CyLib.c **** * Summary:
1001:.\Generated_Source\PSoC4/CyLib.c **** *  Enables interrupts to a given state.
1002:.\Generated_Source\PSoC4/CyLib.c **** *
1003:.\Generated_Source\PSoC4/CyLib.c **** * Parameters:
1004:.\Generated_Source\PSoC4/CyLib.c **** *   mask, 32 bit mask of interrupts to enable.
1005:.\Generated_Source\PSoC4/CyLib.c **** *
1006:.\Generated_Source\PSoC4/CyLib.c **** * Return:
1007:.\Generated_Source\PSoC4/CyLib.c **** *  None
1008:.\Generated_Source\PSoC4/CyLib.c **** *
1009:.\Generated_Source\PSoC4/CyLib.c **** *******************************************************************************/
1010:.\Generated_Source\PSoC4/CyLib.c **** void CyEnableInts(uint32 mask)
1011:.\Generated_Source\PSoC4/CyLib.c **** {
 377              		.loc 1 1011 0
 378              		.cfi_startproc
 379              	.LVL13:
1012:.\Generated_Source\PSoC4/CyLib.c ****     CY_INT_ENABLE_REG = mask;
 380              		.loc 1 1012 0
 381 0000 014B     		ldr	r3, .L37
 382 0002 1860     		str	r0, [r3]
1013:.\Generated_Source\PSoC4/CyLib.c **** }
 383              		.loc 1 1013 0
 384              		@ sp needed
 385 0004 7047     		bx	lr
 386              	.L38:
 387 0006 C046     		.align	2
 388              	.L37:
 389 0008 00E100E0 		.word	-536813312
 390              		.cfi_endproc
 391              	.LFE15:
 392              		.size	CyEnableInts, .-CyEnableInts
 393              		.section	.text.CyIntEnable,"ax",%progbits
 394              		.align	2
 395              		.global	CyIntEnable
 396              		.code	16
 397              		.thumb_func
 398              		.type	CyIntEnable, %function
 399              	CyIntEnable:
ARM GAS  C:\Users\11401393\AppData\Local\Temp\cctINdqa.s 			page 26


 400              	.LFB22:
1014:.\Generated_Source\PSoC4/CyLib.c **** 
1015:.\Generated_Source\PSoC4/CyLib.c **** 
1016:.\Generated_Source\PSoC4/CyLib.c **** /*******************************************************************************
1017:.\Generated_Source\PSoC4/CyLib.c **** * Function Name: CyIntSetSysVector
1018:.\Generated_Source\PSoC4/CyLib.c **** ********************************************************************************
1019:.\Generated_Source\PSoC4/CyLib.c **** *
1020:.\Generated_Source\PSoC4/CyLib.c **** * Summary:
1021:.\Generated_Source\PSoC4/CyLib.c **** *  Sets the interrupt vector of the specified system interrupt number. These
1022:.\Generated_Source\PSoC4/CyLib.c **** *  interrupts are for SysTick, PendSV and others.
1023:.\Generated_Source\PSoC4/CyLib.c **** *
1024:.\Generated_Source\PSoC4/CyLib.c **** * Parameters:
1025:.\Generated_Source\PSoC4/CyLib.c **** *  number: System interrupt number:
1026:.\Generated_Source\PSoC4/CyLib.c **** *    CY_INT_NMI_IRQN        - Non Maskable Interrupt
1027:.\Generated_Source\PSoC4/CyLib.c **** *    CY_INT_HARD_FAULT_IRQN - Hard Fault Interrupt
1028:.\Generated_Source\PSoC4/CyLib.c **** *    CY_INT_SVCALL_IRQN     - SV Call Interrupt
1029:.\Generated_Source\PSoC4/CyLib.c **** *    CY_INT_PEND_SV_IRQN    - Pend SV Interrupt
1030:.\Generated_Source\PSoC4/CyLib.c **** *    CY_INT_SYSTICK_IRQN    - System Tick Interrupt
1031:.\Generated_Source\PSoC4/CyLib.c **** *
1032:.\Generated_Source\PSoC4/CyLib.c **** *  address: Pointer to an interrupt service routine.
1033:.\Generated_Source\PSoC4/CyLib.c **** *
1034:.\Generated_Source\PSoC4/CyLib.c **** * Return:
1035:.\Generated_Source\PSoC4/CyLib.c **** *  The old ISR vector at this location.
1036:.\Generated_Source\PSoC4/CyLib.c **** *
1037:.\Generated_Source\PSoC4/CyLib.c **** *******************************************************************************/
1038:.\Generated_Source\PSoC4/CyLib.c **** cyisraddress CyIntSetSysVector(uint8 number, cyisraddress address)
1039:.\Generated_Source\PSoC4/CyLib.c **** {
1040:.\Generated_Source\PSoC4/CyLib.c ****     cyisraddress oldIsr;
1041:.\Generated_Source\PSoC4/CyLib.c ****     cyisraddress *ramVectorTable = (cyisraddress *) CY_INT_VECT_TABLE;
1042:.\Generated_Source\PSoC4/CyLib.c **** 
1043:.\Generated_Source\PSoC4/CyLib.c ****     CYASSERT(number < CY_INT_IRQ_BASE);
1044:.\Generated_Source\PSoC4/CyLib.c **** 
1045:.\Generated_Source\PSoC4/CyLib.c ****     /* Save old Interrupt service routine. */
1046:.\Generated_Source\PSoC4/CyLib.c ****     oldIsr = ramVectorTable[number];
1047:.\Generated_Source\PSoC4/CyLib.c **** 
1048:.\Generated_Source\PSoC4/CyLib.c ****     /* Set new Interrupt service routine. */
1049:.\Generated_Source\PSoC4/CyLib.c ****     ramVectorTable[number] = address;
1050:.\Generated_Source\PSoC4/CyLib.c **** 
1051:.\Generated_Source\PSoC4/CyLib.c ****     return(oldIsr);
1052:.\Generated_Source\PSoC4/CyLib.c **** }
1053:.\Generated_Source\PSoC4/CyLib.c **** 
1054:.\Generated_Source\PSoC4/CyLib.c **** 
1055:.\Generated_Source\PSoC4/CyLib.c **** /*******************************************************************************
1056:.\Generated_Source\PSoC4/CyLib.c **** * Function Name: CyIntGetSysVector
1057:.\Generated_Source\PSoC4/CyLib.c **** ********************************************************************************
1058:.\Generated_Source\PSoC4/CyLib.c **** *
1059:.\Generated_Source\PSoC4/CyLib.c **** * Summary:
1060:.\Generated_Source\PSoC4/CyLib.c **** *   Gets the interrupt vector of the specified system interrupt number. These
1061:.\Generated_Source\PSoC4/CyLib.c **** *   interrupts are for SysTick, PendSV and others.
1062:.\Generated_Source\PSoC4/CyLib.c **** *
1063:.\Generated_Source\PSoC4/CyLib.c **** * Parameters:
1064:.\Generated_Source\PSoC4/CyLib.c **** *  number: System interrupt number:
1065:.\Generated_Source\PSoC4/CyLib.c **** *    CY_INT_NMI_IRQN        - Non Maskable Interrupt
1066:.\Generated_Source\PSoC4/CyLib.c **** *    CY_INT_HARD_FAULT_IRQN - Hard Fault Interrupt
1067:.\Generated_Source\PSoC4/CyLib.c **** *    CY_INT_SVCALL_IRQN     - SV Call Interrupt
1068:.\Generated_Source\PSoC4/CyLib.c **** *    CY_INT_PEND_SV_IRQN    - Pend SV Interrupt
1069:.\Generated_Source\PSoC4/CyLib.c **** *    CY_INT_SYSTICK_IRQN    - System Tick Interrupt
ARM GAS  C:\Users\11401393\AppData\Local\Temp\cctINdqa.s 			page 27


1070:.\Generated_Source\PSoC4/CyLib.c **** *
1071:.\Generated_Source\PSoC4/CyLib.c **** * Return:
1072:.\Generated_Source\PSoC4/CyLib.c **** *   Address of the ISR in the interrupt vector table.
1073:.\Generated_Source\PSoC4/CyLib.c **** *
1074:.\Generated_Source\PSoC4/CyLib.c **** *******************************************************************************/
1075:.\Generated_Source\PSoC4/CyLib.c **** cyisraddress CyIntGetSysVector(uint8 number)
1076:.\Generated_Source\PSoC4/CyLib.c **** {
1077:.\Generated_Source\PSoC4/CyLib.c ****     cyisraddress *ramVectorTable = (cyisraddress *) CY_INT_VECT_TABLE;
1078:.\Generated_Source\PSoC4/CyLib.c **** 
1079:.\Generated_Source\PSoC4/CyLib.c ****     CYASSERT(number < CY_INT_IRQ_BASE);
1080:.\Generated_Source\PSoC4/CyLib.c **** 
1081:.\Generated_Source\PSoC4/CyLib.c ****     return(ramVectorTable[number]);
1082:.\Generated_Source\PSoC4/CyLib.c **** }
1083:.\Generated_Source\PSoC4/CyLib.c **** 
1084:.\Generated_Source\PSoC4/CyLib.c **** 
1085:.\Generated_Source\PSoC4/CyLib.c **** /*******************************************************************************
1086:.\Generated_Source\PSoC4/CyLib.c **** * Function Name: CyIntSetVector
1087:.\Generated_Source\PSoC4/CyLib.c **** ********************************************************************************
1088:.\Generated_Source\PSoC4/CyLib.c **** *
1089:.\Generated_Source\PSoC4/CyLib.c **** * Summary:
1090:.\Generated_Source\PSoC4/CyLib.c **** *  Sets the interrupt vector of the specified interrupt number.
1091:.\Generated_Source\PSoC4/CyLib.c **** *
1092:.\Generated_Source\PSoC4/CyLib.c **** * Parameters:
1093:.\Generated_Source\PSoC4/CyLib.c **** *  number: Valid range [0-31].  Interrupt number
1094:.\Generated_Source\PSoC4/CyLib.c **** *  address: Pointer to an interrupt service routine
1095:.\Generated_Source\PSoC4/CyLib.c **** *
1096:.\Generated_Source\PSoC4/CyLib.c **** * Return:
1097:.\Generated_Source\PSoC4/CyLib.c **** *   Previous interrupt vector value.
1098:.\Generated_Source\PSoC4/CyLib.c **** *
1099:.\Generated_Source\PSoC4/CyLib.c **** *******************************************************************************/
1100:.\Generated_Source\PSoC4/CyLib.c **** cyisraddress CyIntSetVector(uint8 number, cyisraddress address)
1101:.\Generated_Source\PSoC4/CyLib.c **** {
1102:.\Generated_Source\PSoC4/CyLib.c ****     cyisraddress oldIsr;
1103:.\Generated_Source\PSoC4/CyLib.c ****     cyisraddress *ramVectorTable = (cyisraddress *) CY_INT_VECT_TABLE;
1104:.\Generated_Source\PSoC4/CyLib.c **** 
1105:.\Generated_Source\PSoC4/CyLib.c ****     CYASSERT(number < CY_NUM_INTERRUPTS);
1106:.\Generated_Source\PSoC4/CyLib.c **** 
1107:.\Generated_Source\PSoC4/CyLib.c ****     /* Save old Interrupt service routine. */
1108:.\Generated_Source\PSoC4/CyLib.c ****     oldIsr = ramVectorTable[CY_INT_IRQ_BASE + number];
1109:.\Generated_Source\PSoC4/CyLib.c **** 
1110:.\Generated_Source\PSoC4/CyLib.c ****     /* Set new Interrupt service routine. */
1111:.\Generated_Source\PSoC4/CyLib.c ****     ramVectorTable[CY_INT_IRQ_BASE + number] = address;
1112:.\Generated_Source\PSoC4/CyLib.c **** 
1113:.\Generated_Source\PSoC4/CyLib.c ****     return(oldIsr);
1114:.\Generated_Source\PSoC4/CyLib.c **** }
1115:.\Generated_Source\PSoC4/CyLib.c **** 
1116:.\Generated_Source\PSoC4/CyLib.c **** 
1117:.\Generated_Source\PSoC4/CyLib.c **** /*******************************************************************************
1118:.\Generated_Source\PSoC4/CyLib.c **** * Function Name: CyIntGetVector
1119:.\Generated_Source\PSoC4/CyLib.c **** ********************************************************************************
1120:.\Generated_Source\PSoC4/CyLib.c **** *
1121:.\Generated_Source\PSoC4/CyLib.c **** * Summary:
1122:.\Generated_Source\PSoC4/CyLib.c **** *  Gets the interrupt vector of the specified interrupt number.
1123:.\Generated_Source\PSoC4/CyLib.c **** *
1124:.\Generated_Source\PSoC4/CyLib.c **** * Parameters:
1125:.\Generated_Source\PSoC4/CyLib.c **** *  number: Valid range [0-31].  Interrupt number
1126:.\Generated_Source\PSoC4/CyLib.c **** *
ARM GAS  C:\Users\11401393\AppData\Local\Temp\cctINdqa.s 			page 28


1127:.\Generated_Source\PSoC4/CyLib.c **** * Return:
1128:.\Generated_Source\PSoC4/CyLib.c **** *  Address of the ISR in the interrupt vector table.
1129:.\Generated_Source\PSoC4/CyLib.c **** *
1130:.\Generated_Source\PSoC4/CyLib.c **** *******************************************************************************/
1131:.\Generated_Source\PSoC4/CyLib.c **** cyisraddress CyIntGetVector(uint8 number)
1132:.\Generated_Source\PSoC4/CyLib.c **** {
1133:.\Generated_Source\PSoC4/CyLib.c ****     cyisraddress *ramVectorTable = (cyisraddress *) CY_INT_VECT_TABLE;
1134:.\Generated_Source\PSoC4/CyLib.c **** 
1135:.\Generated_Source\PSoC4/CyLib.c ****     CYASSERT(number < CY_NUM_INTERRUPTS);
1136:.\Generated_Source\PSoC4/CyLib.c **** 
1137:.\Generated_Source\PSoC4/CyLib.c ****     return (ramVectorTable[CY_INT_IRQ_BASE + number]);
1138:.\Generated_Source\PSoC4/CyLib.c **** }
1139:.\Generated_Source\PSoC4/CyLib.c **** 
1140:.\Generated_Source\PSoC4/CyLib.c **** /*******************************************************************************
1141:.\Generated_Source\PSoC4/CyLib.c **** * Function Name: CyIntSetPriority
1142:.\Generated_Source\PSoC4/CyLib.c **** ********************************************************************************
1143:.\Generated_Source\PSoC4/CyLib.c **** *
1144:.\Generated_Source\PSoC4/CyLib.c **** * Summary:
1145:.\Generated_Source\PSoC4/CyLib.c **** *  Sets the priority of the interrupt.
1146:.\Generated_Source\PSoC4/CyLib.c **** *
1147:.\Generated_Source\PSoC4/CyLib.c **** * Parameters:
1148:.\Generated_Source\PSoC4/CyLib.c **** *  priority: Priority of the interrupt. 0 - 3, 0 being the highest.
1149:.\Generated_Source\PSoC4/CyLib.c **** *  number: The number of the interrupt, 0 - 31.
1150:.\Generated_Source\PSoC4/CyLib.c **** *
1151:.\Generated_Source\PSoC4/CyLib.c **** * Return:
1152:.\Generated_Source\PSoC4/CyLib.c **** *  None
1153:.\Generated_Source\PSoC4/CyLib.c **** *
1154:.\Generated_Source\PSoC4/CyLib.c **** *******************************************************************************/
1155:.\Generated_Source\PSoC4/CyLib.c **** void CyIntSetPriority(uint8 number, uint8 priority)
1156:.\Generated_Source\PSoC4/CyLib.c **** {
1157:.\Generated_Source\PSoC4/CyLib.c ****     uint8 interruptState;
1158:.\Generated_Source\PSoC4/CyLib.c ****     uint32 shift;
1159:.\Generated_Source\PSoC4/CyLib.c ****     uint32 value;
1160:.\Generated_Source\PSoC4/CyLib.c **** 
1161:.\Generated_Source\PSoC4/CyLib.c ****     CYASSERT(priority <= CY_MIN_PRIORITY);
1162:.\Generated_Source\PSoC4/CyLib.c ****     CYASSERT(number < CY_NUM_INTERRUPTS);
1163:.\Generated_Source\PSoC4/CyLib.c **** 
1164:.\Generated_Source\PSoC4/CyLib.c ****     shift = CY_INT_PRIORITY_SHIFT(number);
1165:.\Generated_Source\PSoC4/CyLib.c **** 
1166:.\Generated_Source\PSoC4/CyLib.c ****     interruptState = CyEnterCriticalSection();
1167:.\Generated_Source\PSoC4/CyLib.c **** 
1168:.\Generated_Source\PSoC4/CyLib.c ****     value = CY_INT_PRIORITY_REG(number);
1169:.\Generated_Source\PSoC4/CyLib.c ****     value &= (uint32)(~((uint32)(CY_INT_PRIORITY_MASK << shift)));
1170:.\Generated_Source\PSoC4/CyLib.c ****     value |= ((uint32)priority << shift);
1171:.\Generated_Source\PSoC4/CyLib.c ****     CY_INT_PRIORITY_REG(number) = value;
1172:.\Generated_Source\PSoC4/CyLib.c **** 
1173:.\Generated_Source\PSoC4/CyLib.c ****     CyExitCriticalSection(interruptState);
1174:.\Generated_Source\PSoC4/CyLib.c **** }
1175:.\Generated_Source\PSoC4/CyLib.c **** 
1176:.\Generated_Source\PSoC4/CyLib.c **** 
1177:.\Generated_Source\PSoC4/CyLib.c **** /*******************************************************************************
1178:.\Generated_Source\PSoC4/CyLib.c **** * Function Name: CyIntGetPriority
1179:.\Generated_Source\PSoC4/CyLib.c **** ********************************************************************************
1180:.\Generated_Source\PSoC4/CyLib.c **** *
1181:.\Generated_Source\PSoC4/CyLib.c **** * Summary:
1182:.\Generated_Source\PSoC4/CyLib.c **** *  Gets the priority of the interrupt.
1183:.\Generated_Source\PSoC4/CyLib.c **** *
ARM GAS  C:\Users\11401393\AppData\Local\Temp\cctINdqa.s 			page 29


1184:.\Generated_Source\PSoC4/CyLib.c **** * Parameters:
1185:.\Generated_Source\PSoC4/CyLib.c **** *  number: The number of the interrupt, 0 - 31.
1186:.\Generated_Source\PSoC4/CyLib.c **** *
1187:.\Generated_Source\PSoC4/CyLib.c **** * Return:
1188:.\Generated_Source\PSoC4/CyLib.c **** *  Priority of the interrupt. 0 - 3, 0 being the highest.
1189:.\Generated_Source\PSoC4/CyLib.c **** *
1190:.\Generated_Source\PSoC4/CyLib.c **** *******************************************************************************/
1191:.\Generated_Source\PSoC4/CyLib.c **** uint8 CyIntGetPriority(uint8 number)
1192:.\Generated_Source\PSoC4/CyLib.c **** {
1193:.\Generated_Source\PSoC4/CyLib.c ****     uint8 priority;
1194:.\Generated_Source\PSoC4/CyLib.c **** 
1195:.\Generated_Source\PSoC4/CyLib.c ****     CYASSERT(number < CY_NUM_INTERRUPTS);
1196:.\Generated_Source\PSoC4/CyLib.c **** 
1197:.\Generated_Source\PSoC4/CyLib.c ****     priority = (uint8) (CY_INT_PRIORITY_REG(number) >> CY_INT_PRIORITY_SHIFT(number));
1198:.\Generated_Source\PSoC4/CyLib.c **** 
1199:.\Generated_Source\PSoC4/CyLib.c ****     return (priority & (uint8) CY_INT_PRIORITY_MASK);
1200:.\Generated_Source\PSoC4/CyLib.c **** }
1201:.\Generated_Source\PSoC4/CyLib.c **** 
1202:.\Generated_Source\PSoC4/CyLib.c **** 
1203:.\Generated_Source\PSoC4/CyLib.c **** /*******************************************************************************
1204:.\Generated_Source\PSoC4/CyLib.c **** * Function Name: CyIntEnable
1205:.\Generated_Source\PSoC4/CyLib.c **** ********************************************************************************
1206:.\Generated_Source\PSoC4/CyLib.c **** *
1207:.\Generated_Source\PSoC4/CyLib.c **** * Summary:
1208:.\Generated_Source\PSoC4/CyLib.c **** *  Enables the specified interrupt number.
1209:.\Generated_Source\PSoC4/CyLib.c **** *
1210:.\Generated_Source\PSoC4/CyLib.c **** * Parameters:
1211:.\Generated_Source\PSoC4/CyLib.c **** *  number: Valid range [0-31].  Interrupt number
1212:.\Generated_Source\PSoC4/CyLib.c **** *
1213:.\Generated_Source\PSoC4/CyLib.c **** * Return:
1214:.\Generated_Source\PSoC4/CyLib.c **** *  None
1215:.\Generated_Source\PSoC4/CyLib.c **** *
1216:.\Generated_Source\PSoC4/CyLib.c **** *******************************************************************************/
1217:.\Generated_Source\PSoC4/CyLib.c **** void CyIntEnable(uint8 number)
1218:.\Generated_Source\PSoC4/CyLib.c **** {
 401              		.loc 1 1218 0
 402              		.cfi_startproc
 403              	.LVL14:
1219:.\Generated_Source\PSoC4/CyLib.c ****     CY_INT_ENABLE_REG = ((uint32) 0x01u << (CY_INT_ENABLE_RANGE_MASK & number));
 404              		.loc 1 1219 0
 405 0000 1F23     		mov	r3, #31
 406 0002 1840     		and	r0, r3
 407              	.LVL15:
 408 0004 0123     		mov	r3, #1
 409 0006 8340     		lsl	r3, r3, r0
 410 0008 181C     		mov	r0, r3
 411 000a 014B     		ldr	r3, .L40
 412 000c 1860     		str	r0, [r3]
1220:.\Generated_Source\PSoC4/CyLib.c **** }
 413              		.loc 1 1220 0
 414              		@ sp needed
 415 000e 7047     		bx	lr
 416              	.L41:
 417              		.align	2
 418              	.L40:
 419 0010 00E100E0 		.word	-536813312
 420              		.cfi_endproc
ARM GAS  C:\Users\11401393\AppData\Local\Temp\cctINdqa.s 			page 30


 421              	.LFE22:
 422              		.size	CyIntEnable, .-CyIntEnable
 423              		.section	.text.CyIntGetState,"ax",%progbits
 424              		.align	2
 425              		.global	CyIntGetState
 426              		.code	16
 427              		.thumb_func
 428              		.type	CyIntGetState, %function
 429              	CyIntGetState:
 430              	.LFB23:
1221:.\Generated_Source\PSoC4/CyLib.c **** 
1222:.\Generated_Source\PSoC4/CyLib.c **** 
1223:.\Generated_Source\PSoC4/CyLib.c **** /*******************************************************************************
1224:.\Generated_Source\PSoC4/CyLib.c **** * Function Name: CyIntGetState
1225:.\Generated_Source\PSoC4/CyLib.c **** ********************************************************************************
1226:.\Generated_Source\PSoC4/CyLib.c **** *
1227:.\Generated_Source\PSoC4/CyLib.c **** * Summary:
1228:.\Generated_Source\PSoC4/CyLib.c **** *  Gets the enable state of the specified interrupt number.
1229:.\Generated_Source\PSoC4/CyLib.c **** *
1230:.\Generated_Source\PSoC4/CyLib.c **** * Parameters:
1231:.\Generated_Source\PSoC4/CyLib.c **** *  number: Valid range [0-31].  Interrupt number.
1232:.\Generated_Source\PSoC4/CyLib.c **** *
1233:.\Generated_Source\PSoC4/CyLib.c **** * Return:
1234:.\Generated_Source\PSoC4/CyLib.c **** *  Enable status: 1 if enabled, 0 if disabled
1235:.\Generated_Source\PSoC4/CyLib.c **** *
1236:.\Generated_Source\PSoC4/CyLib.c **** *******************************************************************************/
1237:.\Generated_Source\PSoC4/CyLib.c **** uint8 CyIntGetState(uint8 number)
1238:.\Generated_Source\PSoC4/CyLib.c **** {
 431              		.loc 1 1238 0
 432              		.cfi_startproc
 433              	.LVL16:
1239:.\Generated_Source\PSoC4/CyLib.c ****     /* Get state of interrupt. */
1240:.\Generated_Source\PSoC4/CyLib.c ****     return ((0u != (CY_INT_ENABLE_REG & ((uint32) 0x01u << (CY_INT_ENABLE_RANGE_MASK & number)))) ?
 434              		.loc 1 1240 0
 435 0000 044B     		ldr	r3, .L43
 436 0002 1B68     		ldr	r3, [r3]
 437 0004 1F22     		mov	r2, #31
 438 0006 1040     		and	r0, r2
 439              	.LVL17:
 440 0008 C340     		lsr	r3, r3, r0
 441 000a 181C     		mov	r0, r3
 442 000c 0123     		mov	r3, #1
 443 000e 1840     		and	r0, r3
1241:.\Generated_Source\PSoC4/CyLib.c **** }
 444              		.loc 1 1241 0
 445              		@ sp needed
 446 0010 7047     		bx	lr
 447              	.L44:
 448 0012 C046     		.align	2
 449              	.L43:
 450 0014 00E100E0 		.word	-536813312
 451              		.cfi_endproc
 452              	.LFE23:
 453              		.size	CyIntGetState, .-CyIntGetState
 454              		.section	.text.CyIntDisable,"ax",%progbits
 455              		.align	2
 456              		.global	CyIntDisable
ARM GAS  C:\Users\11401393\AppData\Local\Temp\cctINdqa.s 			page 31


 457              		.code	16
 458              		.thumb_func
 459              		.type	CyIntDisable, %function
 460              	CyIntDisable:
 461              	.LFB24:
1242:.\Generated_Source\PSoC4/CyLib.c **** 
1243:.\Generated_Source\PSoC4/CyLib.c **** 
1244:.\Generated_Source\PSoC4/CyLib.c **** /*******************************************************************************
1245:.\Generated_Source\PSoC4/CyLib.c **** * Function Name: CyIntDisable
1246:.\Generated_Source\PSoC4/CyLib.c **** ********************************************************************************
1247:.\Generated_Source\PSoC4/CyLib.c **** *
1248:.\Generated_Source\PSoC4/CyLib.c **** * Summary:
1249:.\Generated_Source\PSoC4/CyLib.c **** *   Disables the specified interrupt number.
1250:.\Generated_Source\PSoC4/CyLib.c **** *
1251:.\Generated_Source\PSoC4/CyLib.c **** * Parameters:
1252:.\Generated_Source\PSoC4/CyLib.c **** *   number: Valid range [0-31].  Interrupt number.
1253:.\Generated_Source\PSoC4/CyLib.c **** *
1254:.\Generated_Source\PSoC4/CyLib.c **** * Return:
1255:.\Generated_Source\PSoC4/CyLib.c **** *  None
1256:.\Generated_Source\PSoC4/CyLib.c **** *
1257:.\Generated_Source\PSoC4/CyLib.c **** *******************************************************************************/
1258:.\Generated_Source\PSoC4/CyLib.c **** void CyIntDisable(uint8 number)
1259:.\Generated_Source\PSoC4/CyLib.c **** {
 462              		.loc 1 1259 0
 463              		.cfi_startproc
 464              	.LVL18:
1260:.\Generated_Source\PSoC4/CyLib.c ****     CY_INT_CLEAR_REG = ((uint32) 0x01u << (CY_INT_ENABLE_RANGE_MASK & number));
 465              		.loc 1 1260 0
 466 0000 1F23     		mov	r3, #31
 467 0002 1840     		and	r0, r3
 468              	.LVL19:
 469 0004 0123     		mov	r3, #1
 470 0006 8340     		lsl	r3, r3, r0
 471 0008 181C     		mov	r0, r3
 472 000a 014B     		ldr	r3, .L46
 473 000c 1860     		str	r0, [r3]
1261:.\Generated_Source\PSoC4/CyLib.c **** }
 474              		.loc 1 1261 0
 475              		@ sp needed
 476 000e 7047     		bx	lr
 477              	.L47:
 478              		.align	2
 479              	.L46:
 480 0010 80E100E0 		.word	-536813184
 481              		.cfi_endproc
 482              	.LFE24:
 483              		.size	CyIntDisable, .-CyIntDisable
 484              		.section	.text.CyIntSetPending,"ax",%progbits
 485              		.align	2
 486              		.global	CyIntSetPending
 487              		.code	16
 488              		.thumb_func
 489              		.type	CyIntSetPending, %function
 490              	CyIntSetPending:
 491              	.LFB25:
1262:.\Generated_Source\PSoC4/CyLib.c **** 
1263:.\Generated_Source\PSoC4/CyLib.c **** /*******************************************************************************
ARM GAS  C:\Users\11401393\AppData\Local\Temp\cctINdqa.s 			page 32


1264:.\Generated_Source\PSoC4/CyLib.c **** * Function Name: CyIntSetPending
1265:.\Generated_Source\PSoC4/CyLib.c **** ********************************************************************************
1266:.\Generated_Source\PSoC4/CyLib.c **** *
1267:.\Generated_Source\PSoC4/CyLib.c **** * Summary:
1268:.\Generated_Source\PSoC4/CyLib.c **** *  Forces the specified interrupt number to be pending.
1269:.\Generated_Source\PSoC4/CyLib.c **** *
1270:.\Generated_Source\PSoC4/CyLib.c **** * Parameters:
1271:.\Generated_Source\PSoC4/CyLib.c **** *  number: Valid range [0-31].  Interrupt number.
1272:.\Generated_Source\PSoC4/CyLib.c **** *
1273:.\Generated_Source\PSoC4/CyLib.c **** * Return:
1274:.\Generated_Source\PSoC4/CyLib.c **** *  None
1275:.\Generated_Source\PSoC4/CyLib.c **** *
1276:.\Generated_Source\PSoC4/CyLib.c **** *******************************************************************************/
1277:.\Generated_Source\PSoC4/CyLib.c **** void CyIntSetPending(uint8 number)
1278:.\Generated_Source\PSoC4/CyLib.c **** {
 492              		.loc 1 1278 0
 493              		.cfi_startproc
 494              	.LVL20:
1279:.\Generated_Source\PSoC4/CyLib.c ****     CY_INT_SET_PEND_REG = ((uint32) 0x01u << (CY_INT_ENABLE_RANGE_MASK & number));
 495              		.loc 1 1279 0
 496 0000 1F23     		mov	r3, #31
 497 0002 1840     		and	r0, r3
 498              	.LVL21:
 499 0004 0123     		mov	r3, #1
 500 0006 8340     		lsl	r3, r3, r0
 501 0008 181C     		mov	r0, r3
 502 000a 014B     		ldr	r3, .L49
 503 000c 1860     		str	r0, [r3]
1280:.\Generated_Source\PSoC4/CyLib.c **** }
 504              		.loc 1 1280 0
 505              		@ sp needed
 506 000e 7047     		bx	lr
 507              	.L50:
 508              		.align	2
 509              	.L49:
 510 0010 00E200E0 		.word	-536813056
 511              		.cfi_endproc
 512              	.LFE25:
 513              		.size	CyIntSetPending, .-CyIntSetPending
 514              		.section	.text.CyIntClearPending,"ax",%progbits
 515              		.align	2
 516              		.global	CyIntClearPending
 517              		.code	16
 518              		.thumb_func
 519              		.type	CyIntClearPending, %function
 520              	CyIntClearPending:
 521              	.LFB26:
1281:.\Generated_Source\PSoC4/CyLib.c **** 
1282:.\Generated_Source\PSoC4/CyLib.c **** 
1283:.\Generated_Source\PSoC4/CyLib.c **** /*******************************************************************************
1284:.\Generated_Source\PSoC4/CyLib.c **** * Function Name: CyIntClearPending
1285:.\Generated_Source\PSoC4/CyLib.c **** ********************************************************************************
1286:.\Generated_Source\PSoC4/CyLib.c **** *
1287:.\Generated_Source\PSoC4/CyLib.c **** * Summary:
1288:.\Generated_Source\PSoC4/CyLib.c **** *  Clears any pending interrupt for the specified interrupt number.
1289:.\Generated_Source\PSoC4/CyLib.c **** *
1290:.\Generated_Source\PSoC4/CyLib.c **** * Parameters:
ARM GAS  C:\Users\11401393\AppData\Local\Temp\cctINdqa.s 			page 33


1291:.\Generated_Source\PSoC4/CyLib.c **** *  number: Valid range [0-31].  Interrupt number.
1292:.\Generated_Source\PSoC4/CyLib.c **** *
1293:.\Generated_Source\PSoC4/CyLib.c **** * Return:
1294:.\Generated_Source\PSoC4/CyLib.c **** *  None
1295:.\Generated_Source\PSoC4/CyLib.c **** *
1296:.\Generated_Source\PSoC4/CyLib.c **** *******************************************************************************/
1297:.\Generated_Source\PSoC4/CyLib.c **** void CyIntClearPending(uint8 number)
1298:.\Generated_Source\PSoC4/CyLib.c **** {
 522              		.loc 1 1298 0
 523              		.cfi_startproc
 524              	.LVL22:
1299:.\Generated_Source\PSoC4/CyLib.c ****     CY_INT_CLR_PEND_REG = ((uint32) 0x01u << (CY_INT_ENABLE_RANGE_MASK & number));
 525              		.loc 1 1299 0
 526 0000 1F23     		mov	r3, #31
 527 0002 1840     		and	r0, r3
 528              	.LVL23:
 529 0004 0123     		mov	r3, #1
 530 0006 8340     		lsl	r3, r3, r0
 531 0008 181C     		mov	r0, r3
 532 000a 014B     		ldr	r3, .L52
 533 000c 1860     		str	r0, [r3]
1300:.\Generated_Source\PSoC4/CyLib.c **** }
 534              		.loc 1 1300 0
 535              		@ sp needed
 536 000e 7047     		bx	lr
 537              	.L53:
 538              		.align	2
 539              	.L52:
 540 0010 80E200E0 		.word	-536812928
 541              		.cfi_endproc
 542              	.LFE26:
 543              		.size	CyIntClearPending, .-CyIntClearPending
 544              		.section	.text.CyHalt,"ax",%progbits
 545              		.align	2
 546              		.global	CyHalt
 547              		.code	16
 548              		.thumb_func
 549              		.type	CyHalt, %function
 550              	CyHalt:
 551              	.LFB27:
1301:.\Generated_Source\PSoC4/CyLib.c **** 
1302:.\Generated_Source\PSoC4/CyLib.c **** 
1303:.\Generated_Source\PSoC4/CyLib.c **** /*******************************************************************************
1304:.\Generated_Source\PSoC4/CyLib.c **** * Function Name: CyHalt
1305:.\Generated_Source\PSoC4/CyLib.c **** ********************************************************************************
1306:.\Generated_Source\PSoC4/CyLib.c **** *
1307:.\Generated_Source\PSoC4/CyLib.c **** * Summary:
1308:.\Generated_Source\PSoC4/CyLib.c **** *  Halts the CPU.
1309:.\Generated_Source\PSoC4/CyLib.c **** *
1310:.\Generated_Source\PSoC4/CyLib.c **** * Parameters:
1311:.\Generated_Source\PSoC4/CyLib.c **** *  reason: Value to be used during debugging.
1312:.\Generated_Source\PSoC4/CyLib.c **** *
1313:.\Generated_Source\PSoC4/CyLib.c **** * Return:
1314:.\Generated_Source\PSoC4/CyLib.c **** *  None
1315:.\Generated_Source\PSoC4/CyLib.c **** *
1316:.\Generated_Source\PSoC4/CyLib.c **** *******************************************************************************/
1317:.\Generated_Source\PSoC4/CyLib.c **** void CyHalt(uint8 reason)
ARM GAS  C:\Users\11401393\AppData\Local\Temp\cctINdqa.s 			page 34


1318:.\Generated_Source\PSoC4/CyLib.c **** {
 552              		.loc 1 1318 0
 553              		.cfi_startproc
 554              	.LVL24:
1319:.\Generated_Source\PSoC4/CyLib.c ****     if(0u != reason)
1320:.\Generated_Source\PSoC4/CyLib.c ****     {
1321:.\Generated_Source\PSoC4/CyLib.c ****         /* To remove unreferenced local variable warning */
1322:.\Generated_Source\PSoC4/CyLib.c ****     }
1323:.\Generated_Source\PSoC4/CyLib.c **** 
1324:.\Generated_Source\PSoC4/CyLib.c ****     #if defined (__ARMCC_VERSION)
1325:.\Generated_Source\PSoC4/CyLib.c ****         __breakpoint(0x0);
1326:.\Generated_Source\PSoC4/CyLib.c ****     #elif defined(__GNUC__) || defined (__ICCARM__)
1327:.\Generated_Source\PSoC4/CyLib.c ****         __asm("    bkpt    1");
 555              		.loc 1 1327 0
 556              	@ 1327 ".\Generated_Source\PSoC4\CyLib.c" 1
 557 0000 01BE     		    bkpt    1
 558              	@ 0 "" 2
1328:.\Generated_Source\PSoC4/CyLib.c ****     #elif defined(__C51__)
1329:.\Generated_Source\PSoC4/CyLib.c ****         CYDEV_HALT_CPU;
1330:.\Generated_Source\PSoC4/CyLib.c ****     #endif  /* (__ARMCC_VERSION) */
1331:.\Generated_Source\PSoC4/CyLib.c **** }
 559              		.loc 1 1331 0
 560              		.code	16
 561              		@ sp needed
 562 0002 7047     		bx	lr
 563              		.cfi_endproc
 564              	.LFE27:
 565              		.size	CyHalt, .-CyHalt
 566              		.section	.text.CyIntSetSysVector,"ax",%progbits
 567              		.align	2
 568              		.global	CyIntSetSysVector
 569              		.code	16
 570              		.thumb_func
 571              		.type	CyIntSetSysVector, %function
 572              	CyIntSetSysVector:
 573              	.LFB16:
1039:.\Generated_Source\PSoC4/CyLib.c **** {
 574              		.loc 1 1039 0
 575              		.cfi_startproc
 576              	.LVL25:
 577 0000 38B5     		push	{r3, r4, r5, lr}
 578              		.cfi_def_cfa_offset 16
 579              		.cfi_offset 3, -16
 580              		.cfi_offset 4, -12
 581              		.cfi_offset 5, -8
 582              		.cfi_offset 14, -4
 583 0002 041C     		mov	r4, r0
 584 0004 0D1C     		mov	r5, r1
 585              	.LVL26:
1043:.\Generated_Source\PSoC4/CyLib.c ****     CYASSERT(number < CY_INT_IRQ_BASE);
 586              		.loc 1 1043 0
 587 0006 0F28     		cmp	r0, #15
 588 0008 02D9     		bls	.L56
1043:.\Generated_Source\PSoC4/CyLib.c ****     CYASSERT(number < CY_INT_IRQ_BASE);
 589              		.loc 1 1043 0 is_stmt 0 discriminator 1
 590 000a 0020     		mov	r0, #0
 591              	.LVL27:
ARM GAS  C:\Users\11401393\AppData\Local\Temp\cctINdqa.s 			page 35


 592 000c FFF7FEFF 		bl	CyHalt
 593              	.LVL28:
 594              	.L56:
1046:.\Generated_Source\PSoC4/CyLib.c ****     oldIsr = ramVectorTable[number];
 595              		.loc 1 1046 0 is_stmt 1
 596 0010 A400     		lsl	r4, r4, #2
 597 0012 8023     		mov	r3, #128
 598 0014 9B05     		lsl	r3, r3, #22
 599 0016 E418     		add	r4, r4, r3
 600 0018 2068     		ldr	r0, [r4]
 601              	.LVL29:
1049:.\Generated_Source\PSoC4/CyLib.c ****     ramVectorTable[number] = address;
 602              		.loc 1 1049 0
 603 001a 2560     		str	r5, [r4]
1052:.\Generated_Source\PSoC4/CyLib.c **** }
 604              		.loc 1 1052 0
 605              		@ sp needed
 606              	.LVL30:
 607 001c 38BD     		pop	{r3, r4, r5, pc}
 608              		.cfi_endproc
 609              	.LFE16:
 610              		.size	CyIntSetSysVector, .-CyIntSetSysVector
 611 001e C046     		.section	.text.CyIntGetSysVector,"ax",%progbits
 612              		.align	2
 613              		.global	CyIntGetSysVector
 614              		.code	16
 615              		.thumb_func
 616              		.type	CyIntGetSysVector, %function
 617              	CyIntGetSysVector:
 618              	.LFB17:
1076:.\Generated_Source\PSoC4/CyLib.c **** {
 619              		.loc 1 1076 0
 620              		.cfi_startproc
 621              	.LVL31:
 622 0000 10B5     		push	{r4, lr}
 623              		.cfi_def_cfa_offset 8
 624              		.cfi_offset 4, -8
 625              		.cfi_offset 14, -4
 626 0002 041E     		sub	r4, r0, #0
 627              	.LVL32:
1079:.\Generated_Source\PSoC4/CyLib.c ****     CYASSERT(number < CY_INT_IRQ_BASE);
 628              		.loc 1 1079 0
 629 0004 0F2C     		cmp	r4, #15
 630 0006 02D9     		bls	.L58
1079:.\Generated_Source\PSoC4/CyLib.c ****     CYASSERT(number < CY_INT_IRQ_BASE);
 631              		.loc 1 1079 0 is_stmt 0 discriminator 1
 632 0008 0020     		mov	r0, #0
 633              	.LVL33:
 634 000a FFF7FEFF 		bl	CyHalt
 635              	.LVL34:
 636              	.L58:
1081:.\Generated_Source\PSoC4/CyLib.c ****     return(ramVectorTable[number]);
 637              		.loc 1 1081 0 is_stmt 1
 638 000e A400     		lsl	r4, r4, #2
 639 0010 8023     		mov	r3, #128
 640 0012 9B05     		lsl	r3, r3, #22
 641 0014 E418     		add	r4, r4, r3
ARM GAS  C:\Users\11401393\AppData\Local\Temp\cctINdqa.s 			page 36


 642 0016 2068     		ldr	r0, [r4]
1082:.\Generated_Source\PSoC4/CyLib.c **** }
 643              		.loc 1 1082 0
 644              		@ sp needed
 645 0018 10BD     		pop	{r4, pc}
 646              		.cfi_endproc
 647              	.LFE17:
 648              		.size	CyIntGetSysVector, .-CyIntGetSysVector
 649 001a C046     		.section	.text.CyIntSetVector,"ax",%progbits
 650              		.align	2
 651              		.global	CyIntSetVector
 652              		.code	16
 653              		.thumb_func
 654              		.type	CyIntSetVector, %function
 655              	CyIntSetVector:
 656              	.LFB18:
1101:.\Generated_Source\PSoC4/CyLib.c **** {
 657              		.loc 1 1101 0
 658              		.cfi_startproc
 659              	.LVL35:
 660 0000 38B5     		push	{r3, r4, r5, lr}
 661              		.cfi_def_cfa_offset 16
 662              		.cfi_offset 3, -16
 663              		.cfi_offset 4, -12
 664              		.cfi_offset 5, -8
 665              		.cfi_offset 14, -4
 666 0002 041C     		mov	r4, r0
 667 0004 0D1C     		mov	r5, r1
 668              	.LVL36:
1105:.\Generated_Source\PSoC4/CyLib.c ****     CYASSERT(number < CY_NUM_INTERRUPTS);
 669              		.loc 1 1105 0
 670 0006 1F28     		cmp	r0, #31
 671 0008 02D9     		bls	.L60
1105:.\Generated_Source\PSoC4/CyLib.c ****     CYASSERT(number < CY_NUM_INTERRUPTS);
 672              		.loc 1 1105 0 is_stmt 0 discriminator 1
 673 000a 0020     		mov	r0, #0
 674              	.LVL37:
 675 000c FFF7FEFF 		bl	CyHalt
 676              	.LVL38:
 677              	.L60:
1108:.\Generated_Source\PSoC4/CyLib.c ****     oldIsr = ramVectorTable[CY_INT_IRQ_BASE + number];
 678              		.loc 1 1108 0 is_stmt 1
 679 0010 A400     		lsl	r4, r4, #2
 680 0012 024B     		ldr	r3, .L61
 681 0014 E418     		add	r4, r4, r3
 682 0016 2068     		ldr	r0, [r4]
 683              	.LVL39:
1111:.\Generated_Source\PSoC4/CyLib.c ****     ramVectorTable[CY_INT_IRQ_BASE + number] = address;
 684              		.loc 1 1111 0
 685 0018 2560     		str	r5, [r4]
1114:.\Generated_Source\PSoC4/CyLib.c **** }
 686              		.loc 1 1114 0
 687              		@ sp needed
 688              	.LVL40:
 689 001a 38BD     		pop	{r3, r4, r5, pc}
 690              	.L62:
 691              		.align	2
ARM GAS  C:\Users\11401393\AppData\Local\Temp\cctINdqa.s 			page 37


 692              	.L61:
 693 001c 40000020 		.word	536870976
 694              		.cfi_endproc
 695              	.LFE18:
 696              		.size	CyIntSetVector, .-CyIntSetVector
 697              		.section	.text.CyIntGetVector,"ax",%progbits
 698              		.align	2
 699              		.global	CyIntGetVector
 700              		.code	16
 701              		.thumb_func
 702              		.type	CyIntGetVector, %function
 703              	CyIntGetVector:
 704              	.LFB19:
1132:.\Generated_Source\PSoC4/CyLib.c **** {
 705              		.loc 1 1132 0
 706              		.cfi_startproc
 707              	.LVL41:
 708 0000 10B5     		push	{r4, lr}
 709              		.cfi_def_cfa_offset 8
 710              		.cfi_offset 4, -8
 711              		.cfi_offset 14, -4
 712 0002 041E     		sub	r4, r0, #0
 713              	.LVL42:
1135:.\Generated_Source\PSoC4/CyLib.c ****     CYASSERT(number < CY_NUM_INTERRUPTS);
 714              		.loc 1 1135 0
 715 0004 1F2C     		cmp	r4, #31
 716 0006 02D9     		bls	.L64
1135:.\Generated_Source\PSoC4/CyLib.c ****     CYASSERT(number < CY_NUM_INTERRUPTS);
 717              		.loc 1 1135 0 is_stmt 0 discriminator 1
 718 0008 0020     		mov	r0, #0
 719              	.LVL43:
 720 000a FFF7FEFF 		bl	CyHalt
 721              	.LVL44:
 722              	.L64:
1137:.\Generated_Source\PSoC4/CyLib.c ****     return (ramVectorTable[CY_INT_IRQ_BASE + number]);
 723              		.loc 1 1137 0 is_stmt 1
 724 000e A400     		lsl	r4, r4, #2
 725 0010 014B     		ldr	r3, .L65
 726 0012 E418     		add	r4, r4, r3
 727 0014 2068     		ldr	r0, [r4]
1138:.\Generated_Source\PSoC4/CyLib.c **** }
 728              		.loc 1 1138 0
 729              		@ sp needed
 730 0016 10BD     		pop	{r4, pc}
 731              	.L66:
 732              		.align	2
 733              	.L65:
 734 0018 40000020 		.word	536870976
 735              		.cfi_endproc
 736              	.LFE19:
 737              		.size	CyIntGetVector, .-CyIntGetVector
 738              		.section	.text.CyIntSetPriority,"ax",%progbits
 739              		.align	2
 740              		.global	CyIntSetPriority
 741              		.code	16
 742              		.thumb_func
 743              		.type	CyIntSetPriority, %function
ARM GAS  C:\Users\11401393\AppData\Local\Temp\cctINdqa.s 			page 38


 744              	CyIntSetPriority:
 745              	.LFB20:
1156:.\Generated_Source\PSoC4/CyLib.c **** {
 746              		.loc 1 1156 0
 747              		.cfi_startproc
 748              	.LVL45:
 749 0000 70B5     		push	{r4, r5, r6, lr}
 750              		.cfi_def_cfa_offset 16
 751              		.cfi_offset 4, -16
 752              		.cfi_offset 5, -12
 753              		.cfi_offset 6, -8
 754              		.cfi_offset 14, -4
 755 0002 041C     		mov	r4, r0
 756 0004 0E1E     		sub	r6, r1, #0
1161:.\Generated_Source\PSoC4/CyLib.c ****     CYASSERT(priority <= CY_MIN_PRIORITY);
 757              		.loc 1 1161 0
 758 0006 032E     		cmp	r6, #3
 759 0008 02D9     		bls	.L68
1161:.\Generated_Source\PSoC4/CyLib.c ****     CYASSERT(priority <= CY_MIN_PRIORITY);
 760              		.loc 1 1161 0 is_stmt 0 discriminator 1
 761 000a 0020     		mov	r0, #0
 762              	.LVL46:
 763 000c FFF7FEFF 		bl	CyHalt
 764              	.LVL47:
 765              	.L68:
1162:.\Generated_Source\PSoC4/CyLib.c ****     CYASSERT(number < CY_NUM_INTERRUPTS);
 766              		.loc 1 1162 0 is_stmt 1
 767 0010 1F2C     		cmp	r4, #31
 768 0012 02D9     		bls	.L69
1162:.\Generated_Source\PSoC4/CyLib.c ****     CYASSERT(number < CY_NUM_INTERRUPTS);
 769              		.loc 1 1162 0 is_stmt 0 discriminator 1
 770 0014 0020     		mov	r0, #0
 771 0016 FFF7FEFF 		bl	CyHalt
 772              	.LVL48:
 773              	.L69:
1164:.\Generated_Source\PSoC4/CyLib.c ****     shift = CY_INT_PRIORITY_SHIFT(number);
 774              		.loc 1 1164 0 is_stmt 1
 775 001a 0325     		mov	r5, #3
 776 001c 2540     		and	r5, r4
 777 001e ED00     		lsl	r5, r5, #3
 778 0020 0635     		add	r5, r5, #6
 779              	.LVL49:
1166:.\Generated_Source\PSoC4/CyLib.c ****     interruptState = CyEnterCriticalSection();
 780              		.loc 1 1166 0
 781 0022 FFF7FEFF 		bl	CyEnterCriticalSection
 782              	.LVL50:
1168:.\Generated_Source\PSoC4/CyLib.c ****     value = CY_INT_PRIORITY_REG(number);
 783              		.loc 1 1168 0
 784 0026 A408     		lsr	r4, r4, #2
 785 0028 A400     		lsl	r4, r4, #2
 786 002a 064B     		ldr	r3, .L70
 787 002c E418     		add	r4, r4, r3
 788 002e 2368     		ldr	r3, [r4]
 789              	.LVL51:
1169:.\Generated_Source\PSoC4/CyLib.c ****     value &= (uint32)(~((uint32)(CY_INT_PRIORITY_MASK << shift)));
 790              		.loc 1 1169 0
 791 0030 0322     		mov	r2, #3
ARM GAS  C:\Users\11401393\AppData\Local\Temp\cctINdqa.s 			page 39


 792 0032 AA40     		lsl	r2, r2, r5
 793 0034 9343     		bic	r3, r2
 794              	.LVL52:
1170:.\Generated_Source\PSoC4/CyLib.c ****     value |= ((uint32)priority << shift);
 795              		.loc 1 1170 0
 796 0036 AE40     		lsl	r6, r6, r5
 797 0038 351C     		mov	r5, r6
 798              	.LVL53:
 799 003a 1D43     		orr	r5, r3
 800              	.LVL54:
1171:.\Generated_Source\PSoC4/CyLib.c ****     CY_INT_PRIORITY_REG(number) = value;
 801              		.loc 1 1171 0
 802 003c 2560     		str	r5, [r4]
1173:.\Generated_Source\PSoC4/CyLib.c ****     CyExitCriticalSection(interruptState);
 803              		.loc 1 1173 0
 804 003e FFF7FEFF 		bl	CyExitCriticalSection
 805              	.LVL55:
1174:.\Generated_Source\PSoC4/CyLib.c **** }
 806              		.loc 1 1174 0
 807              		@ sp needed
 808              	.LVL56:
 809 0042 70BD     		pop	{r4, r5, r6, pc}
 810              	.L71:
 811              		.align	2
 812              	.L70:
 813 0044 00E400E0 		.word	-536812544
 814              		.cfi_endproc
 815              	.LFE20:
 816              		.size	CyIntSetPriority, .-CyIntSetPriority
 817              		.section	.text.CyIntGetPriority,"ax",%progbits
 818              		.align	2
 819              		.global	CyIntGetPriority
 820              		.code	16
 821              		.thumb_func
 822              		.type	CyIntGetPriority, %function
 823              	CyIntGetPriority:
 824              	.LFB21:
1192:.\Generated_Source\PSoC4/CyLib.c **** {
 825              		.loc 1 1192 0
 826              		.cfi_startproc
 827              	.LVL57:
 828 0000 10B5     		push	{r4, lr}
 829              		.cfi_def_cfa_offset 8
 830              		.cfi_offset 4, -8
 831              		.cfi_offset 14, -4
 832 0002 041E     		sub	r4, r0, #0
1195:.\Generated_Source\PSoC4/CyLib.c ****     CYASSERT(number < CY_NUM_INTERRUPTS);
 833              		.loc 1 1195 0
 834 0004 1F2C     		cmp	r4, #31
 835 0006 02D9     		bls	.L73
1195:.\Generated_Source\PSoC4/CyLib.c ****     CYASSERT(number < CY_NUM_INTERRUPTS);
 836              		.loc 1 1195 0 is_stmt 0 discriminator 1
 837 0008 0020     		mov	r0, #0
 838              	.LVL58:
 839 000a FFF7FEFF 		bl	CyHalt
 840              	.LVL59:
 841              	.L73:
ARM GAS  C:\Users\11401393\AppData\Local\Temp\cctINdqa.s 			page 40


1197:.\Generated_Source\PSoC4/CyLib.c ****     priority = (uint8) (CY_INT_PRIORITY_REG(number) >> CY_INT_PRIORITY_SHIFT(number));
 842              		.loc 1 1197 0 is_stmt 1
 843 000e A308     		lsr	r3, r4, #2
 844 0010 9B00     		lsl	r3, r3, #2
 845 0012 054A     		ldr	r2, .L74
 846 0014 9B18     		add	r3, r3, r2
 847 0016 1868     		ldr	r0, [r3]
 848 0018 0323     		mov	r3, #3
 849 001a 1C40     		and	r4, r3
 850 001c E400     		lsl	r4, r4, #3
 851 001e 0634     		add	r4, r4, #6
 852 0020 E040     		lsr	r0, r0, r4
 853              	.LVL60:
1199:.\Generated_Source\PSoC4/CyLib.c ****     return (priority & (uint8) CY_INT_PRIORITY_MASK);
 854              		.loc 1 1199 0
 855 0022 1840     		and	r0, r3
 856              	.LVL61:
1200:.\Generated_Source\PSoC4/CyLib.c **** }
 857              		.loc 1 1200 0
 858              		@ sp needed
 859 0024 10BD     		pop	{r4, pc}
 860              	.L75:
 861 0026 C046     		.align	2
 862              	.L74:
 863 0028 00E400E0 		.word	-536812544
 864              		.cfi_endproc
 865              	.LFE21:
 866              		.size	CyIntGetPriority, .-CyIntGetPriority
 867              		.section	.text.CySoftwareReset,"ax",%progbits
 868              		.align	2
 869              		.global	CySoftwareReset
 870              		.code	16
 871              		.thumb_func
 872              		.type	CySoftwareReset, %function
 873              	CySoftwareReset:
 874              	.LFB28:
1332:.\Generated_Source\PSoC4/CyLib.c **** 
1333:.\Generated_Source\PSoC4/CyLib.c **** 
1334:.\Generated_Source\PSoC4/CyLib.c **** /*******************************************************************************
1335:.\Generated_Source\PSoC4/CyLib.c **** * Function Name: CySoftwareReset
1336:.\Generated_Source\PSoC4/CyLib.c **** ********************************************************************************
1337:.\Generated_Source\PSoC4/CyLib.c **** *
1338:.\Generated_Source\PSoC4/CyLib.c **** * Summary:
1339:.\Generated_Source\PSoC4/CyLib.c **** *  Forces a software reset of the device.
1340:.\Generated_Source\PSoC4/CyLib.c **** *
1341:.\Generated_Source\PSoC4/CyLib.c **** * Parameters:
1342:.\Generated_Source\PSoC4/CyLib.c **** *  None
1343:.\Generated_Source\PSoC4/CyLib.c **** *
1344:.\Generated_Source\PSoC4/CyLib.c **** * Return:
1345:.\Generated_Source\PSoC4/CyLib.c **** *  None
1346:.\Generated_Source\PSoC4/CyLib.c **** *
1347:.\Generated_Source\PSoC4/CyLib.c **** *******************************************************************************/
1348:.\Generated_Source\PSoC4/CyLib.c **** void CySoftwareReset(void)
1349:.\Generated_Source\PSoC4/CyLib.c **** {
 875              		.loc 1 1349 0
 876              		.cfi_startproc
1350:.\Generated_Source\PSoC4/CyLib.c ****     /***************************************************************************
ARM GAS  C:\Users\11401393\AppData\Local\Temp\cctINdqa.s 			page 41


1351:.\Generated_Source\PSoC4/CyLib.c ****     * Setting the system reset request bit. The vector key value must be written
1352:.\Generated_Source\PSoC4/CyLib.c ****     * to the register, otherwise the register write is unpredictable.
1353:.\Generated_Source\PSoC4/CyLib.c ****     ***************************************************************************/
1354:.\Generated_Source\PSoC4/CyLib.c ****     CY_SYS_CM0_AIRCR_REG = (CY_SYS_CM0_AIRCR_REG & (uint32)(~CY_SYS_CM0_AIRCR_VECTKEY_MASK)) |
 877              		.loc 1 1354 0
 878 0000 034B     		ldr	r3, .L77
 879 0002 1A68     		ldr	r2, [r3]
 880 0004 1204     		lsl	r2, r2, #16
 881 0006 120C     		lsr	r2, r2, #16
1355:.\Generated_Source\PSoC4/CyLib.c ****                             CY_SYS_CM0_AIRCR_VECTKEY | CY_SYS_CM0_AIRCR_SYSRESETREQ;
 882              		.loc 1 1355 0
 883 0008 0249     		ldr	r1, .L77+4
 884 000a 0A43     		orr	r2, r1
1354:.\Generated_Source\PSoC4/CyLib.c ****     CY_SYS_CM0_AIRCR_REG = (CY_SYS_CM0_AIRCR_REG & (uint32)(~CY_SYS_CM0_AIRCR_VECTKEY_MASK)) |
 885              		.loc 1 1354 0
 886 000c 1A60     		str	r2, [r3]
1356:.\Generated_Source\PSoC4/CyLib.c **** }
 887              		.loc 1 1356 0
 888              		@ sp needed
 889 000e 7047     		bx	lr
 890              	.L78:
 891              		.align	2
 892              	.L77:
 893 0010 0CED00E0 		.word	-536810228
 894 0014 0400FA05 		.word	100270084
 895              		.cfi_endproc
 896              	.LFE28:
 897              		.size	CySoftwareReset, .-CySoftwareReset
 898              		.section	.text.CyDelay,"ax",%progbits
 899              		.align	2
 900              		.global	CyDelay
 901              		.code	16
 902              		.thumb_func
 903              		.type	CyDelay, %function
 904              	CyDelay:
 905              	.LFB29:
1357:.\Generated_Source\PSoC4/CyLib.c **** 
1358:.\Generated_Source\PSoC4/CyLib.c **** 
1359:.\Generated_Source\PSoC4/CyLib.c **** /*******************************************************************************
1360:.\Generated_Source\PSoC4/CyLib.c **** * Function Name: CyDelay
1361:.\Generated_Source\PSoC4/CyLib.c **** ********************************************************************************
1362:.\Generated_Source\PSoC4/CyLib.c **** *
1363:.\Generated_Source\PSoC4/CyLib.c **** * Summary:
1364:.\Generated_Source\PSoC4/CyLib.c **** *  Blocks for milliseconds.
1365:.\Generated_Source\PSoC4/CyLib.c **** *
1366:.\Generated_Source\PSoC4/CyLib.c **** * Parameters:
1367:.\Generated_Source\PSoC4/CyLib.c **** *  milliseconds: number of milliseconds to delay.
1368:.\Generated_Source\PSoC4/CyLib.c **** *
1369:.\Generated_Source\PSoC4/CyLib.c **** * Return:
1370:.\Generated_Source\PSoC4/CyLib.c **** *  None
1371:.\Generated_Source\PSoC4/CyLib.c **** *
1372:.\Generated_Source\PSoC4/CyLib.c **** *******************************************************************************/
1373:.\Generated_Source\PSoC4/CyLib.c **** void CyDelay(uint32 milliseconds)
1374:.\Generated_Source\PSoC4/CyLib.c **** {
 906              		.loc 1 1374 0
 907              		.cfi_startproc
 908              	.LVL62:
ARM GAS  C:\Users\11401393\AppData\Local\Temp\cctINdqa.s 			page 42


 909 0000 70B5     		push	{r4, r5, r6, lr}
 910              		.cfi_def_cfa_offset 16
 911              		.cfi_offset 4, -16
 912              		.cfi_offset 5, -12
 913              		.cfi_offset 6, -8
 914              		.cfi_offset 14, -4
 915 0002 041C     		mov	r4, r0
1375:.\Generated_Source\PSoC4/CyLib.c ****     while (milliseconds > CY_DELAY_MS_OVERFLOW)
 916              		.loc 1 1375 0
 917 0004 8025     		mov	r5, #128
 918 0006 2D02     		lsl	r5, r5, #8
1376:.\Generated_Source\PSoC4/CyLib.c ****     {
1377:.\Generated_Source\PSoC4/CyLib.c ****         /* This loop prevents overflow.
1378:.\Generated_Source\PSoC4/CyLib.c ****          * At 100MHz, milliseconds * cydelayFreqKhz overflows at about 42 seconds
1379:.\Generated_Source\PSoC4/CyLib.c ****          */
1380:.\Generated_Source\PSoC4/CyLib.c ****         CyDelayCycles(cydelay32kMs);
 919              		.loc 1 1380 0
 920 0008 074E     		ldr	r6, .L82
1375:.\Generated_Source\PSoC4/CyLib.c ****     while (milliseconds > CY_DELAY_MS_OVERFLOW)
 921              		.loc 1 1375 0
 922 000a 04E0     		b	.L80
 923              	.LVL63:
 924              	.L81:
 925              		.loc 1 1380 0
 926 000c 3068     		ldr	r0, [r6]
 927 000e FFF7FEFF 		bl	CyDelayCycles
 928              	.LVL64:
1381:.\Generated_Source\PSoC4/CyLib.c ****         milliseconds -= CY_DELAY_MS_OVERFLOW;
 929              		.loc 1 1381 0
 930 0012 064B     		ldr	r3, .L82+4
 931 0014 E418     		add	r4, r4, r3
 932              	.LVL65:
 933              	.L80:
1375:.\Generated_Source\PSoC4/CyLib.c ****     while (milliseconds > CY_DELAY_MS_OVERFLOW)
 934              		.loc 1 1375 0 discriminator 1
 935 0016 AC42     		cmp	r4, r5
 936 0018 F8D8     		bhi	.L81
1382:.\Generated_Source\PSoC4/CyLib.c ****     }
1383:.\Generated_Source\PSoC4/CyLib.c **** 
1384:.\Generated_Source\PSoC4/CyLib.c ****     CyDelayCycles(milliseconds * cydelayFreqKhz);
 937              		.loc 1 1384 0
 938 001a 034B     		ldr	r3, .L82
 939 001c 5868     		ldr	r0, [r3, #4]
 940 001e 6043     		mul	r0, r4
 941 0020 FFF7FEFF 		bl	CyDelayCycles
 942              	.LVL66:
1385:.\Generated_Source\PSoC4/CyLib.c **** }
 943              		.loc 1 1385 0
 944              		@ sp needed
 945              	.LVL67:
 946 0024 70BD     		pop	{r4, r5, r6, pc}
 947              	.L83:
 948 0026 C046     		.align	2
 949              	.L82:
 950 0028 00000000 		.word	.LANCHOR0
 951 002c 0080FFFF 		.word	-32768
 952              		.cfi_endproc
ARM GAS  C:\Users\11401393\AppData\Local\Temp\cctINdqa.s 			page 43


 953              	.LFE29:
 954              		.size	CyDelay, .-CyDelay
 955              		.section	.text.CySysClkImoEnableWcoLock,"ax",%progbits
 956              		.align	2
 957              		.global	CySysClkImoEnableWcoLock
 958              		.code	16
 959              		.thumb_func
 960              		.type	CySysClkImoEnableWcoLock, %function
 961              	CySysClkImoEnableWcoLock:
 962              	.LFB3:
 150:.\Generated_Source\PSoC4/CyLib.c ****     {
 963              		.loc 1 150 0
 964              		.cfi_startproc
 965 0000 F0B5     		push	{r4, r5, r6, r7, lr}
 966              		.cfi_def_cfa_offset 20
 967              		.cfi_offset 4, -20
 968              		.cfi_offset 5, -16
 969              		.cfi_offset 6, -12
 970              		.cfi_offset 7, -8
 971              		.cfi_offset 14, -4
 972 0002 83B0     		sub	sp, sp, #12
 973              		.cfi_def_cfa_offset 32
 974              	.LVL68:
 157:.\Generated_Source\PSoC4/CyLib.c ****         if (0u != CySysClkWcoEnabled())
 975              		.loc 1 157 0
 976 0004 FFF7FEFF 		bl	CySysClkWcoEnabled
 977              	.LVL69:
 978 0008 0028     		cmp	r0, #0
 979 000a 44D0     		beq	.L84
 159:.\Generated_Source\PSoC4/CyLib.c ****             interruptState = CyEnterCriticalSection();
 980              		.loc 1 159 0
 981 000c FFF7FEFF 		bl	CyEnterCriticalSection
 982              	.LVL70:
 983 0010 071C     		mov	r7, r0
 984              	.LVL71:
 162:.\Generated_Source\PSoC4/CyLib.c ****             for(i = 0u; i < CY_SYS_CLK_IMO_FREQ_TABLE_SIZE; i++)
 985              		.loc 1 162 0
 986 0012 0023     		mov	r3, #0
 164:.\Generated_Source\PSoC4/CyLib.c ****                 if ((uint8) (CY_SYS_CLK_IMO_TRIM2_REG & CY_SYS_CLK_IMO_FREQ_BITS_MASK) == cyImoFreq
 987              		.loc 1 164 0
 988 0014 214E     		ldr	r6, .L91
 989 0016 3F25     		mov	r5, #63
 990 0018 214C     		ldr	r4, .L91+4
 162:.\Generated_Source\PSoC4/CyLib.c ****             for(i = 0u; i < CY_SYS_CLK_IMO_FREQ_TABLE_SIZE; i++)
 991              		.loc 1 162 0
 992 001a 07E0     		b	.L86
 993              	.LVL72:
 994              	.L89:
 164:.\Generated_Source\PSoC4/CyLib.c ****                 if ((uint8) (CY_SYS_CLK_IMO_TRIM2_REG & CY_SYS_CLK_IMO_FREQ_BITS_MASK) == cyImoFreq
 995              		.loc 1 164 0
 996 001c 3168     		ldr	r1, [r6]
 997 001e 2940     		and	r1, r5
 998 0020 E25C     		ldrb	r2, [r4, r3]
 999 0022 9142     		cmp	r1, r2
 1000 0024 01D1     		bne	.L87
 166:.\Generated_Source\PSoC4/CyLib.c ****                     freq = i + CY_SYS_CLK_IMO_FREQ_TABLE_OFFSET;
 1001              		.loc 1 166 0
ARM GAS  C:\Users\11401393\AppData\Local\Temp\cctINdqa.s 			page 44


 1002 0026 D91C     		add	r1, r3, #3
 1003              	.LVL73:
 167:.\Generated_Source\PSoC4/CyLib.c ****                     break;
 1004              		.loc 1 167 0
 1005 0028 03E0     		b	.L88
 1006              	.LVL74:
 1007              	.L87:
 162:.\Generated_Source\PSoC4/CyLib.c ****             for(i = 0u; i < CY_SYS_CLK_IMO_FREQ_TABLE_SIZE; i++)
 1008              		.loc 1 162 0
 1009 002a 0133     		add	r3, r3, #1
 1010              	.LVL75:
 1011              	.L86:
 162:.\Generated_Source\PSoC4/CyLib.c ****             for(i = 0u; i < CY_SYS_CLK_IMO_FREQ_TABLE_SIZE; i++)
 1012              		.loc 1 162 0 is_stmt 0 discriminator 1
 1013 002c 2D2B     		cmp	r3, #45
 1014 002e F5D9     		bls	.L89
 152:.\Generated_Source\PSoC4/CyLib.c ****         uint32 freq = CY_SYS_CLK_IMO_MIN_FREQ_MHZ;
 1015              		.loc 1 152 0 is_stmt 1
 1016 0030 0321     		mov	r1, #3
 1017              	.LVL76:
 1018              	.L88:
 171:.\Generated_Source\PSoC4/CyLib.c ****             if ((CY_SYS_CLK_IMO_TRIM4_REG & CY_SYS_CLK_IMO_TRIM4_GAIN_MASK) == 0u)
 1019              		.loc 1 171 0
 1020 0032 1C4B     		ldr	r3, .L91+8
 1021              	.LVL77:
 1022 0034 1B68     		ldr	r3, [r3]
 1023 0036 D806     		lsl	r0, r3, #27
 1024 0038 06D1     		bne	.L90
 1025              	.LVL78:
 173:.\Generated_Source\PSoC4/CyLib.c **** 			    CY_SYS_CLK_IMO_TRIM4_REG = (CY_SYS_CLK_IMO_TRIM4_REG & (uint32) ~CY_SYS_CLK_IMO_TRIM4_GAIN_M
 1026              		.loc 1 173 0
 1027 003a 1A4B     		ldr	r3, .L91+8
 1028 003c 1A68     		ldr	r2, [r3]
 1029 003e 1F20     		mov	r0, #31
 1030 0040 8243     		bic	r2, r0
 1031 0042 0C20     		mov	r0, #12
 1032 0044 0243     		orr	r2, r0
 1033 0046 1A60     		str	r2, [r3]
 1034              	.L90:
 177:.\Generated_Source\PSoC4/CyLib.c ****             regTmp  = CY_SYS_CLK_WCO_DPLL_REG & ~(CY_SYS_CLK_WCO_DPLL_MULT_MASK |
 1035              		.loc 1 177 0
 1036 0048 174A     		ldr	r2, .L91+12
 1037 004a 1068     		ldr	r0, [r2]
 1038 004c 174B     		ldr	r3, .L91+16
 1039 004e 0340     		and	r3, r0
 1040              	.LVL79:
 182:.\Generated_Source\PSoC4/CyLib.c ****             regTmp |= (CY_SYS_CLK_WCO_DPLL_MULT_VALUE(freq) & CY_SYS_CLK_WCO_DPLL_MULT_MASK);
 1041              		.loc 1 182 0
 1042 0050 1748     		ldr	r0, .L91+20
 1043 0052 4143     		mul	r1, r0
 1044              	.LVL80:
 1045 0054 8020     		mov	r0, #128
 1046 0056 C001     		lsl	r0, r0, #7
 1047 0058 0918     		add	r1, r1, r0
 1048 005a C90B     		lsr	r1, r1, #15
 1049 005c 0139     		sub	r1, r1, #1
 1050 005e 4905     		lsl	r1, r1, #21
ARM GAS  C:\Users\11401393\AppData\Local\Temp\cctINdqa.s 			page 45


 1051 0060 490D     		lsr	r1, r1, #21
 1052 0062 0B43     		orr	r3, r1
 1053              	.LVL81:
 185:.\Generated_Source\PSoC4/CyLib.c ****             regTmp |= (CY_SYS_CLK_WCO_CONFIG_DPLL_LF_IGAIN | CY_SYS_CLK_WCO_CONFIG_DPLL_LF_PGAIN);
 1054              		.loc 1 185 0
 1055 0064 A021     		mov	r1, #160
 1056 0066 4903     		lsl	r1, r1, #13
 1057 0068 0B43     		orr	r3, r1
 1058              	.LVL82:
 187:.\Generated_Source\PSoC4/CyLib.c ****             CY_SYS_CLK_WCO_DPLL_REG = regTmp;
 1059              		.loc 1 187 0
 1060 006a 1360     		str	r3, [r2]
 189:.\Generated_Source\PSoC4/CyLib.c ****             flashCtlReg = CY_FLASH_CTL_REG;
 1061              		.loc 1 189 0
 1062 006c 114C     		ldr	r4, .L91+24
 1063 006e 2368     		ldr	r3, [r4]
 1064              	.LVL83:
 1065 0070 0193     		str	r3, [sp, #4]
 1066              	.LVL84:
 190:.\Generated_Source\PSoC4/CyLib.c ****             CySysFlashSetWaitCycles(CY_SYS_CLK_IMO_MAX_FREQ_MHZ);
 1067              		.loc 1 190 0
 1068 0072 3020     		mov	r0, #48
 1069 0074 FFF7FEFF 		bl	CySysFlashSetWaitCycles
 1070              	.LVL85:
 191:.\Generated_Source\PSoC4/CyLib.c ****             CY_SYS_CLK_WCO_CONFIG_REG |= CY_SYS_CLK_WCO_CONFIG_DPLL_ENABLE;
 1071              		.loc 1 191 0
 1072 0078 0F4B     		ldr	r3, .L91+28
 1073 007a 1968     		ldr	r1, [r3]
 1074 007c 8022     		mov	r2, #128
 1075 007e D205     		lsl	r2, r2, #23
 1076 0080 0A43     		orr	r2, r1
 1077 0082 1A60     		str	r2, [r3]
 192:.\Generated_Source\PSoC4/CyLib.c ****             CyDelay(320u);
 1078              		.loc 1 192 0
 1079 0084 A020     		mov	r0, #160
 1080 0086 4000     		lsl	r0, r0, #1
 1081 0088 FFF7FEFF 		bl	CyDelay
 1082              	.LVL86:
 193:.\Generated_Source\PSoC4/CyLib.c ****             CY_FLASH_CTL_REG = flashCtlReg;
 1083              		.loc 1 193 0
 1084 008c 019B     		ldr	r3, [sp, #4]
 1085 008e 2360     		str	r3, [r4]
 195:.\Generated_Source\PSoC4/CyLib.c ****             CyExitCriticalSection(interruptState);
 1086              		.loc 1 195 0
 1087 0090 381C     		mov	r0, r7
 1088 0092 FFF7FEFF 		bl	CyExitCriticalSection
 1089              	.LVL87:
 1090              	.L84:
 197:.\Generated_Source\PSoC4/CyLib.c ****     }
 1091              		.loc 1 197 0
 1092 0096 03B0     		add	sp, sp, #12
 1093              		@ sp needed
 1094 0098 F0BD     		pop	{r4, r5, r6, r7, pc}
 1095              	.L92:
 1096 009a C046     		.align	2
 1097              	.L91:
 1098 009c 2CFF0B40 		.word	1074528044
ARM GAS  C:\Users\11401393\AppData\Local\Temp\cctINdqa.s 			page 46


 1099 00a0 00000000 		.word	.LANCHOR1
 1100 00a4 34FF0B40 		.word	1074528052
 1101 00a8 08002240 		.word	1075970056
 1102 00ac 00F8C0FF 		.word	-4130816
 1103 00b0 40420F00 		.word	1000000
 1104 00b4 30001040 		.word	1074790448
 1105 00b8 00002240 		.word	1075970048
 1106              		.cfi_endproc
 1107              	.LFE3:
 1108              		.size	CySysClkImoEnableWcoLock, .-CySysClkImoEnableWcoLock
 1109              		.section	.text.CySysClkWriteImoFreq,"ax",%progbits
 1110              		.align	2
 1111              		.global	CySysClkWriteImoFreq
 1112              		.code	16
 1113              		.thumb_func
 1114              		.type	CySysClkWriteImoFreq, %function
 1115              	CySysClkWriteImoFreq:
 1116              	.LFB8:
 391:.\Generated_Source\PSoC4/CyLib.c ****     {
 1117              		.loc 1 391 0
 1118              		.cfi_startproc
 1119              	.LVL88:
 1120 0000 30B5     		push	{r4, r5, lr}
 1121              		.cfi_def_cfa_offset 12
 1122              		.cfi_offset 4, -12
 1123              		.cfi_offset 5, -8
 1124              		.cfi_offset 14, -4
 1125 0002 87B0     		sub	sp, sp, #28
 1126              		.cfi_def_cfa_offset 40
 1127 0004 051C     		mov	r5, r0
 1128              	.LVL89:
 409:.\Generated_Source\PSoC4/CyLib.c ****         interruptState = CyEnterCriticalSection();
 1129              		.loc 1 409 0
 1130 0006 FFF7FEFF 		bl	CyEnterCriticalSection
 1131              	.LVL90:
 1132 000a 041C     		mov	r4, r0
 1133              	.LVL91:
 412:.\Generated_Source\PSoC4/CyLib.c ****             if(0u != CySysClkImoGetWcoLock())
 1134              		.loc 1 412 0
 1135 000c FFF7FEFF 		bl	CySysClkImoGetWcoLock
 1136              	.LVL92:
 1137 0010 0028     		cmp	r0, #0
 1138 0012 03D0     		beq	.L96
 1139              	.LVL93:
 415:.\Generated_Source\PSoC4/CyLib.c ****                 CySysClkImoDisableWcoLock();
 1140              		.loc 1 415 0
 1141 0014 FFF7FEFF 		bl	CySysClkImoDisableWcoLock
 1142              	.LVL94:
 414:.\Generated_Source\PSoC4/CyLib.c ****                 wcoLock = 1u;
 1143              		.loc 1 414 0
 1144 0018 0121     		mov	r1, #1
 1145 001a 00E0     		b	.L94
 1146              	.LVL95:
 1147              	.L96:
 403:.\Generated_Source\PSoC4/CyLib.c ****             uint32 wcoLock = 0u;
 1148              		.loc 1 403 0
 1149 001c 0021     		mov	r1, #0
ARM GAS  C:\Users\11401393\AppData\Local\Temp\cctINdqa.s 			page 47


 1150              	.LVL96:
 1151              	.L94:
 422:.\Generated_Source\PSoC4/CyLib.c ****             regValues[0u] = CY_SYS_CLK_IMO_CONFIG_REG;
 1152              		.loc 1 422 0
 1153 001e 104B     		ldr	r3, .L97
 1154 0020 1B68     		ldr	r3, [r3]
 1155 0022 0093     		str	r3, [sp]
 423:.\Generated_Source\PSoC4/CyLib.c ****             regValues[1u] = CY_SYS_CLK_SELECT_REG;
 1156              		.loc 1 423 0
 1157 0024 0F4B     		ldr	r3, .L97+4
 1158 0026 1B68     		ldr	r3, [r3]
 1159 0028 0193     		str	r3, [sp, #4]
 424:.\Generated_Source\PSoC4/CyLib.c ****             regValues[2u] = cyImoFreqMhz2Reg[freq - CY_SYS_CLK_IMO_FREQ_TABLE_OFFSET];
 1160              		.loc 1 424 0
 1161 002a 033D     		sub	r5, r5, #3
 1162              	.LVL97:
 1163 002c 0E4B     		ldr	r3, .L97+8
 1164 002e 5B5D     		ldrb	r3, [r3, r5]
 1165 0030 0293     		str	r3, [sp, #8]
 425:.\Generated_Source\PSoC4/CyLib.c ****             regValues[3u] = CY_FLASH_CTL_REG;
 1166              		.loc 1 425 0
 1167 0032 0E4B     		ldr	r3, .L97+12
 1168 0034 1B68     		ldr	r3, [r3]
 1169 0036 0393     		str	r3, [sp, #12]
 427:.\Generated_Source\PSoC4/CyLib.c ****             parameters[0u] =
 1170              		.loc 1 427 0
 1171 0038 04AA     		add	r2, sp, #16
 1172 003a 0D4B     		ldr	r3, .L97+16
 1173 003c 0493     		str	r3, [sp, #16]
 430:.\Generated_Source\PSoC4/CyLib.c ****             parameters[1u] = (uint32) &regValues[0u];
 1174              		.loc 1 430 0
 1175 003e 00AB     		add	r3, sp, #0
 1176 0040 0593     		str	r3, [sp, #20]
 432:.\Generated_Source\PSoC4/CyLib.c ****             CY_FLASH_CPUSS_SYSARG_REG = (uint32) &parameters[0u];
 1177              		.loc 1 432 0
 1178 0042 0C4B     		ldr	r3, .L97+20
 1179 0044 1A60     		str	r2, [r3]
 433:.\Generated_Source\PSoC4/CyLib.c ****             CY_FLASH_CPUSS_SYSREQ_REG = CY_FLASH_CPUSS_REQ_START | CY_FLASH_API_OPCODE_CLK_RESTORE;
 1180              		.loc 1 433 0
 1181 0046 0C48     		ldr	r0, .L97+24
 1182 0048 0C4A     		ldr	r2, .L97+28
 1183 004a 1060     		str	r0, [r2]
 434:.\Generated_Source\PSoC4/CyLib.c ****             (void) CY_FLASH_CPUSS_SYSARG_REG;
 1184              		.loc 1 434 0
 1185 004c 1B68     		ldr	r3, [r3]
 532:.\Generated_Source\PSoC4/CyLib.c ****             if (1u == wcoLock)
 1186              		.loc 1 532 0
 1187 004e 0129     		cmp	r1, #1
 1188 0050 01D1     		bne	.L95
 534:.\Generated_Source\PSoC4/CyLib.c ****                 CySysClkImoEnableWcoLock();
 1189              		.loc 1 534 0
 1190 0052 FFF7FEFF 		bl	CySysClkImoEnableWcoLock
 1191              	.LVL98:
 1192              	.L95:
 538:.\Generated_Source\PSoC4/CyLib.c ****         CyExitCriticalSection(interruptState);
 1193              		.loc 1 538 0
 1194 0056 201C     		mov	r0, r4
ARM GAS  C:\Users\11401393\AppData\Local\Temp\cctINdqa.s 			page 48


 1195 0058 FFF7FEFF 		bl	CyExitCriticalSection
 1196              	.LVL99:
 539:.\Generated_Source\PSoC4/CyLib.c ****     }
 1197              		.loc 1 539 0
 1198 005c 07B0     		add	sp, sp, #28
 1199              		@ sp needed
 1200              	.LVL100:
 1201              	.LVL101:
 1202 005e 30BD     		pop	{r4, r5, pc}
 1203              	.L98:
 1204              		.align	2
 1205              	.L97:
 1206 0060 08010B40 		.word	1074462984
 1207 0064 00010B40 		.word	1074462976
 1208 0068 00000000 		.word	.LANCHOR1
 1209 006c 30001040 		.word	1074790448
 1210 0070 B6EA0000 		.word	60086
 1211 0074 08001040 		.word	1074790408
 1212 0078 17000080 		.word	-2147483625
 1213 007c 04001040 		.word	1074790404
 1214              		.cfi_endproc
 1215              	.LFE8:
 1216              		.size	CySysClkWriteImoFreq, .-CySysClkWriteImoFreq
 1217              		.section	.text.CyDelayUs,"ax",%progbits
 1218              		.align	2
 1219              		.global	CyDelayUs
 1220              		.code	16
 1221              		.thumb_func
 1222              		.type	CyDelayUs, %function
 1223              	CyDelayUs:
 1224              	.LFB30:
1386:.\Generated_Source\PSoC4/CyLib.c **** 
1387:.\Generated_Source\PSoC4/CyLib.c **** 
1388:.\Generated_Source\PSoC4/CyLib.c **** /*******************************************************************************
1389:.\Generated_Source\PSoC4/CyLib.c **** * Function Name: CyDelayUs
1390:.\Generated_Source\PSoC4/CyLib.c **** ********************************************************************************
1391:.\Generated_Source\PSoC4/CyLib.c **** * Summary:
1392:.\Generated_Source\PSoC4/CyLib.c **** *  Blocks for microseconds.
1393:.\Generated_Source\PSoC4/CyLib.c **** *
1394:.\Generated_Source\PSoC4/CyLib.c **** * Parameters:
1395:.\Generated_Source\PSoC4/CyLib.c **** *  microseconds: number of microseconds to delay.
1396:.\Generated_Source\PSoC4/CyLib.c **** *
1397:.\Generated_Source\PSoC4/CyLib.c **** * Return:
1398:.\Generated_Source\PSoC4/CyLib.c **** *  None
1399:.\Generated_Source\PSoC4/CyLib.c **** *
1400:.\Generated_Source\PSoC4/CyLib.c **** *******************************************************************************/
1401:.\Generated_Source\PSoC4/CyLib.c **** void CyDelayUs(uint16 microseconds)
1402:.\Generated_Source\PSoC4/CyLib.c **** {
 1225              		.loc 1 1402 0
 1226              		.cfi_startproc
 1227              	.LVL102:
 1228 0000 08B5     		push	{r3, lr}
 1229              		.cfi_def_cfa_offset 8
 1230              		.cfi_offset 3, -8
 1231              		.cfi_offset 14, -4
1403:.\Generated_Source\PSoC4/CyLib.c ****     CyDelayCycles((uint32)microseconds * cydelayFreqMhz);
 1232              		.loc 1 1403 0
ARM GAS  C:\Users\11401393\AppData\Local\Temp\cctINdqa.s 			page 49


 1233 0002 034B     		ldr	r3, .L100
 1234 0004 1B7A     		ldrb	r3, [r3, #8]
 1235 0006 5843     		mul	r0, r3
 1236              	.LVL103:
 1237 0008 FFF7FEFF 		bl	CyDelayCycles
 1238              	.LVL104:
1404:.\Generated_Source\PSoC4/CyLib.c **** }
 1239              		.loc 1 1404 0
 1240              		@ sp needed
 1241 000c 08BD     		pop	{r3, pc}
 1242              	.L101:
 1243 000e C046     		.align	2
 1244              	.L100:
 1245 0010 00000000 		.word	.LANCHOR0
 1246              		.cfi_endproc
 1247              	.LFE30:
 1248              		.size	CyDelayUs, .-CyDelayUs
 1249              		.section	.text.CySysLvdEnable,"ax",%progbits
 1250              		.align	2
 1251              		.global	CySysLvdEnable
 1252              		.code	16
 1253              		.thumb_func
 1254              		.type	CySysLvdEnable, %function
 1255              	CySysLvdEnable:
 1256              	.LFB9:
 849:.\Generated_Source\PSoC4/CyLib.c ****     {
 1257              		.loc 1 849 0
 1258              		.cfi_startproc
 1259              	.LVL105:
 1260 0000 38B5     		push	{r3, r4, r5, lr}
 1261              		.cfi_def_cfa_offset 16
 1262              		.cfi_offset 3, -16
 1263              		.cfi_offset 4, -12
 1264              		.cfi_offset 5, -8
 1265              		.cfi_offset 14, -4
 851:.\Generated_Source\PSoC4/CyLib.c ****         CY_LVD_PWR_INTR_MASK_REG   &= (uint32) ~CY_LVD_PROPAGATE_INT_TO_CPU;
 1266              		.loc 1 851 0
 1267 0002 0D4C     		ldr	r4, .L103
 1268 0004 2368     		ldr	r3, [r4]
 1269 0006 0225     		mov	r5, #2
 1270 0008 AB43     		bic	r3, r5
 1271 000a 2360     		str	r3, [r4]
 854:.\Generated_Source\PSoC4/CyLib.c ****         CY_LVD_PWR_VMON_CONFIG_REG = (CY_LVD_PWR_VMON_CONFIG_REG & ~CY_LVD_PWR_VMON_CONFIG_LVD_SEL_
 1272              		.loc 1 854 0
 1273 000c 0B4B     		ldr	r3, .L103+4
 1274 000e 1968     		ldr	r1, [r3]
 1275 0010 1E22     		mov	r2, #30
 1276 0012 9143     		bic	r1, r2
 855:.\Generated_Source\PSoC4/CyLib.c ****                 ((threshold << CY_LVD_PWR_VMON_CONFIG_LVD_SEL_SHIFT) & CY_LVD_PWR_VMON_CONFIG_LVD_S
 1277              		.loc 1 855 0
 1278 0014 4000     		lsl	r0, r0, #1
 1279              	.LVL106:
 1280 0016 0240     		and	r2, r0
 854:.\Generated_Source\PSoC4/CyLib.c ****         CY_LVD_PWR_VMON_CONFIG_REG = (CY_LVD_PWR_VMON_CONFIG_REG & ~CY_LVD_PWR_VMON_CONFIG_LVD_SEL_
 1281              		.loc 1 854 0
 1282 0018 0A43     		orr	r2, r1
 1283 001a 1A60     		str	r2, [r3]
ARM GAS  C:\Users\11401393\AppData\Local\Temp\cctINdqa.s 			page 50


 858:.\Generated_Source\PSoC4/CyLib.c ****         CY_LVD_PWR_VMON_CONFIG_REG |= CY_LVD_PWR_VMON_CONFIG_LVD_EN;
 1284              		.loc 1 858 0
 1285 001c 1968     		ldr	r1, [r3]
 1286 001e 0122     		mov	r2, #1
 1287 0020 0A43     		orr	r2, r1
 1288 0022 1A60     		str	r2, [r3]
 861:.\Generated_Source\PSoC4/CyLib.c ****         CyDelayUs(CY_LVD_STABILIZE_TIMEOUT_US);
 1289              		.loc 1 861 0
 1290 0024 FA20     		mov	r0, #250
 1291 0026 8000     		lsl	r0, r0, #2
 1292 0028 FFF7FEFF 		bl	CyDelayUs
 1293              	.LVL107:
 864:.\Generated_Source\PSoC4/CyLib.c ****         CySysLvdClearInterrupt();
 1294              		.loc 1 864 0
 1295 002c FFF7FEFF 		bl	CySysLvdClearInterrupt
 1296              	.LVL108:
 867:.\Generated_Source\PSoC4/CyLib.c ****         CY_LVD_PWR_INTR_MASK_REG   |= CY_LVD_PROPAGATE_INT_TO_CPU;
 1297              		.loc 1 867 0
 1298 0030 2368     		ldr	r3, [r4]
 1299 0032 1D43     		orr	r5, r3
 1300 0034 2560     		str	r5, [r4]
 868:.\Generated_Source\PSoC4/CyLib.c ****     }
 1301              		.loc 1 868 0
 1302              		@ sp needed
 1303 0036 38BD     		pop	{r3, r4, r5, pc}
 1304              	.L104:
 1305              		.align	2
 1306              	.L103:
 1307 0038 08000B40 		.word	1074462728
 1308 003c 18000B40 		.word	1074462744
 1309              		.cfi_endproc
 1310              	.LFE9:
 1311              		.size	CySysLvdEnable, .-CySysLvdEnable
 1312              		.global	__aeabi_uidiv
 1313              		.section	.text.CyDelayFreq,"ax",%progbits
 1314              		.align	2
 1315              		.global	CyDelayFreq
 1316              		.code	16
 1317              		.thumb_func
 1318              		.type	CyDelayFreq, %function
 1319              	CyDelayFreq:
 1320              	.LFB31:
1405:.\Generated_Source\PSoC4/CyLib.c **** 
1406:.\Generated_Source\PSoC4/CyLib.c **** 
1407:.\Generated_Source\PSoC4/CyLib.c **** /*******************************************************************************
1408:.\Generated_Source\PSoC4/CyLib.c **** * Function Name: CyDelayFreq
1409:.\Generated_Source\PSoC4/CyLib.c **** ********************************************************************************
1410:.\Generated_Source\PSoC4/CyLib.c **** * Summary:
1411:.\Generated_Source\PSoC4/CyLib.c **** *  Sets clock frequency for CyDelay.
1412:.\Generated_Source\PSoC4/CyLib.c **** *
1413:.\Generated_Source\PSoC4/CyLib.c **** * Parameters:
1414:.\Generated_Source\PSoC4/CyLib.c **** *  freq: Frequency of bus clock in Hertz.
1415:.\Generated_Source\PSoC4/CyLib.c **** *
1416:.\Generated_Source\PSoC4/CyLib.c **** * Return:
1417:.\Generated_Source\PSoC4/CyLib.c **** *  None
1418:.\Generated_Source\PSoC4/CyLib.c **** *
1419:.\Generated_Source\PSoC4/CyLib.c **** *******************************************************************************/
ARM GAS  C:\Users\11401393\AppData\Local\Temp\cctINdqa.s 			page 51


1420:.\Generated_Source\PSoC4/CyLib.c **** void CyDelayFreq(uint32 freq)
1421:.\Generated_Source\PSoC4/CyLib.c **** {
 1321              		.loc 1 1421 0
 1322              		.cfi_startproc
 1323              	.LVL109:
 1324 0000 38B5     		push	{r3, r4, r5, lr}
 1325              		.cfi_def_cfa_offset 16
 1326              		.cfi_offset 3, -16
 1327              		.cfi_offset 4, -12
 1328              		.cfi_offset 5, -8
 1329              		.cfi_offset 14, -4
1422:.\Generated_Source\PSoC4/CyLib.c ****     if (freq != 0u)
 1330              		.loc 1 1422 0
 1331 0002 0028     		cmp	r0, #0
 1332 0004 02D0     		beq	.L106
1423:.\Generated_Source\PSoC4/CyLib.c ****     {
1424:.\Generated_Source\PSoC4/CyLib.c ****         cydelayFreqHz = freq;
 1333              		.loc 1 1424 0
 1334 0006 0C4B     		ldr	r3, .L108
 1335 0008 D860     		str	r0, [r3, #12]
 1336 000a 02E0     		b	.L107
 1337              	.L106:
1425:.\Generated_Source\PSoC4/CyLib.c ****     }
1426:.\Generated_Source\PSoC4/CyLib.c ****     else
1427:.\Generated_Source\PSoC4/CyLib.c ****     {
1428:.\Generated_Source\PSoC4/CyLib.c ****         cydelayFreqHz = CYDEV_BCLK__SYSCLK__HZ;
 1338              		.loc 1 1428 0
 1339 000c 0B4A     		ldr	r2, .L108+4
 1340 000e 0A4B     		ldr	r3, .L108
 1341 0010 DA60     		str	r2, [r3, #12]
 1342              	.L107:
1429:.\Generated_Source\PSoC4/CyLib.c ****     }
1430:.\Generated_Source\PSoC4/CyLib.c **** 
1431:.\Generated_Source\PSoC4/CyLib.c ****     cydelayFreqMhz = (uint8)((cydelayFreqHz + CY_DELAY_1M_MINUS_1_THRESHOLD) / CY_DELAY_1M_THRESHOL
 1343              		.loc 1 1431 0
 1344 0012 094C     		ldr	r4, .L108
 1345 0014 E568     		ldr	r5, [r4, #12]
 1346 0016 0A4B     		ldr	r3, .L108+8
 1347 0018 E818     		add	r0, r5, r3
 1348              	.LVL110:
 1349 001a 0A49     		ldr	r1, .L108+12
 1350 001c FFF7FEFF 		bl	__aeabi_uidiv
 1351              	.LVL111:
 1352 0020 2072     		strb	r0, [r4, #8]
1432:.\Generated_Source\PSoC4/CyLib.c ****     cydelayFreqKhz = (cydelayFreqHz + CY_DELAY_1K_MINUS_1_THRESHOLD) / CY_DELAY_1K_THRESHOLD;
 1353              		.loc 1 1432 0
 1354 0022 094B     		ldr	r3, .L108+16
 1355 0024 E818     		add	r0, r5, r3
 1356 0026 FA21     		mov	r1, #250
 1357 0028 8900     		lsl	r1, r1, #2
 1358 002a FFF7FEFF 		bl	__aeabi_uidiv
 1359              	.LVL112:
 1360 002e 6060     		str	r0, [r4, #4]
1433:.\Generated_Source\PSoC4/CyLib.c ****     cydelay32kMs   = CY_DELAY_MS_OVERFLOW * cydelayFreqKhz;
 1361              		.loc 1 1433 0
 1362 0030 C003     		lsl	r0, r0, #15
 1363 0032 2060     		str	r0, [r4]
ARM GAS  C:\Users\11401393\AppData\Local\Temp\cctINdqa.s 			page 52


1434:.\Generated_Source\PSoC4/CyLib.c **** }
 1364              		.loc 1 1434 0
 1365              		@ sp needed
 1366 0034 38BD     		pop	{r3, r4, r5, pc}
 1367              	.L109:
 1368 0036 C046     		.align	2
 1369              	.L108:
 1370 0038 00000000 		.word	.LANCHOR0
 1371 003c 006CDC02 		.word	48000000
 1372 0040 3F420F00 		.word	999999
 1373 0044 40420F00 		.word	1000000
 1374 0048 E7030000 		.word	999
 1375              		.cfi_endproc
 1376              	.LFE31:
 1377              		.size	CyDelayFreq, .-CyDelayFreq
 1378              		.section	.text.CySysTickStop,"ax",%progbits
 1379              		.align	2
 1380              		.global	CySysTickStop
 1381              		.code	16
 1382              		.thumb_func
 1383              		.type	CySysTickStop, %function
 1384              	CySysTickStop:
 1385              	.LFB35:
1435:.\Generated_Source\PSoC4/CyLib.c **** 
1436:.\Generated_Source\PSoC4/CyLib.c **** 
1437:.\Generated_Source\PSoC4/CyLib.c **** /*******************************************************************************
1438:.\Generated_Source\PSoC4/CyLib.c **** * Function Name: CySysTick_Start
1439:.\Generated_Source\PSoC4/CyLib.c **** ********************************************************************************
1440:.\Generated_Source\PSoC4/CyLib.c **** *
1441:.\Generated_Source\PSoC4/CyLib.c **** * Summary:
1442:.\Generated_Source\PSoC4/CyLib.c **** *  Starts the system timer (SysTick): configures SysTick to generate interrupt
1443:.\Generated_Source\PSoC4/CyLib.c **** *  every 1 ms and enables the interrupt.
1444:.\Generated_Source\PSoC4/CyLib.c **** *
1445:.\Generated_Source\PSoC4/CyLib.c **** * Parameters:
1446:.\Generated_Source\PSoC4/CyLib.c **** *  None
1447:.\Generated_Source\PSoC4/CyLib.c **** *
1448:.\Generated_Source\PSoC4/CyLib.c **** * Return:
1449:.\Generated_Source\PSoC4/CyLib.c **** *  None
1450:.\Generated_Source\PSoC4/CyLib.c **** *
1451:.\Generated_Source\PSoC4/CyLib.c **** * Side Effects:
1452:.\Generated_Source\PSoC4/CyLib.c **** *  Clears SysTick count flag if it was set.
1453:.\Generated_Source\PSoC4/CyLib.c **** *
1454:.\Generated_Source\PSoC4/CyLib.c **** *******************************************************************************/
1455:.\Generated_Source\PSoC4/CyLib.c **** void CySysTickStart(void)
1456:.\Generated_Source\PSoC4/CyLib.c **** {
1457:.\Generated_Source\PSoC4/CyLib.c ****     if (0u == CySysTickInitVar)
1458:.\Generated_Source\PSoC4/CyLib.c ****     {
1459:.\Generated_Source\PSoC4/CyLib.c ****         CySysTickInit();
1460:.\Generated_Source\PSoC4/CyLib.c ****         CySysTickInitVar = 1u;
1461:.\Generated_Source\PSoC4/CyLib.c ****     }
1462:.\Generated_Source\PSoC4/CyLib.c **** 
1463:.\Generated_Source\PSoC4/CyLib.c ****     CySysTickEnable();
1464:.\Generated_Source\PSoC4/CyLib.c **** }
1465:.\Generated_Source\PSoC4/CyLib.c **** 
1466:.\Generated_Source\PSoC4/CyLib.c **** 
1467:.\Generated_Source\PSoC4/CyLib.c **** /*******************************************************************************
1468:.\Generated_Source\PSoC4/CyLib.c **** * Function Name: CySysTickInit
ARM GAS  C:\Users\11401393\AppData\Local\Temp\cctINdqa.s 			page 53


1469:.\Generated_Source\PSoC4/CyLib.c **** ********************************************************************************
1470:.\Generated_Source\PSoC4/CyLib.c **** *
1471:.\Generated_Source\PSoC4/CyLib.c **** * Summary:
1472:.\Generated_Source\PSoC4/CyLib.c **** *  Sets CySysTickServiceCallbacks() as an ISR for the SysTick exception.
1473:.\Generated_Source\PSoC4/CyLib.c **** *  The clock source for the SysTick counter is set to the System Clock.
1474:.\Generated_Source\PSoC4/CyLib.c **** *  The SysTick reload value is configured for the timer to generate interrupt
1475:.\Generated_Source\PSoC4/CyLib.c **** *  every 1 ms. The System clock value is on the global variables cydelayFreqHz.
1476:.\Generated_Source\PSoC4/CyLib.c **** *  User is responsible for calling CyDelayFreq() function.
1477:.\Generated_Source\PSoC4/CyLib.c **** *  Initializes CySysTickCallbacks array.
1478:.\Generated_Source\PSoC4/CyLib.c **** *
1479:.\Generated_Source\PSoC4/CyLib.c **** * Parameters:
1480:.\Generated_Source\PSoC4/CyLib.c **** *  None
1481:.\Generated_Source\PSoC4/CyLib.c **** *
1482:.\Generated_Source\PSoC4/CyLib.c **** * Return:
1483:.\Generated_Source\PSoC4/CyLib.c **** *  None
1484:.\Generated_Source\PSoC4/CyLib.c **** *
1485:.\Generated_Source\PSoC4/CyLib.c **** * Side Effects:
1486:.\Generated_Source\PSoC4/CyLib.c **** *  Clears SysTick count flag if it was set
1487:.\Generated_Source\PSoC4/CyLib.c **** *
1488:.\Generated_Source\PSoC4/CyLib.c **** *******************************************************************************/
1489:.\Generated_Source\PSoC4/CyLib.c **** void CySysTickInit(void)
1490:.\Generated_Source\PSoC4/CyLib.c **** {
1491:.\Generated_Source\PSoC4/CyLib.c ****     uint32 i;
1492:.\Generated_Source\PSoC4/CyLib.c **** 
1493:.\Generated_Source\PSoC4/CyLib.c ****     for (i = 0u; i<CY_SYS_SYST_NUM_OF_CALLBACKS; i++)
1494:.\Generated_Source\PSoC4/CyLib.c ****     {
1495:.\Generated_Source\PSoC4/CyLib.c ****         CySysTickCallbacks[i] = (void *) 0;
1496:.\Generated_Source\PSoC4/CyLib.c ****     }
1497:.\Generated_Source\PSoC4/CyLib.c **** 
1498:.\Generated_Source\PSoC4/CyLib.c ****     (void) CyIntSetSysVector(CY_INT_SYSTICK_IRQN, &CySysTickServiceCallbacks);
1499:.\Generated_Source\PSoC4/CyLib.c **** 
1500:.\Generated_Source\PSoC4/CyLib.c ****     #if(!CY_PSOC3 && !CY_PSOC4_4000 && !CY_PSOC4_4100 && !CY_PSOC4_4200)
1501:.\Generated_Source\PSoC4/CyLib.c ****         CySysTickSetClockSource(CY_SYS_SYST_CSR_CLK_SRC_SYSCLK);
1502:.\Generated_Source\PSoC4/CyLib.c ****     #endif /* (!CY_PSOC3 && !CY_PSOC4_4000 && !CY_PSOC4_4100 && !CY_PSOC4_4200) */
1503:.\Generated_Source\PSoC4/CyLib.c **** 
1504:.\Generated_Source\PSoC4/CyLib.c ****     CySysTickSetReload(cydelayFreqHz/1000u);
1505:.\Generated_Source\PSoC4/CyLib.c ****     CySysTickClear();
1506:.\Generated_Source\PSoC4/CyLib.c ****     CyIntEnable(CY_INT_SYSTICK_IRQN);
1507:.\Generated_Source\PSoC4/CyLib.c **** }
1508:.\Generated_Source\PSoC4/CyLib.c **** 
1509:.\Generated_Source\PSoC4/CyLib.c **** 
1510:.\Generated_Source\PSoC4/CyLib.c **** /*******************************************************************************
1511:.\Generated_Source\PSoC4/CyLib.c **** * Function Name: CySysTickEnable
1512:.\Generated_Source\PSoC4/CyLib.c **** ********************************************************************************
1513:.\Generated_Source\PSoC4/CyLib.c **** *
1514:.\Generated_Source\PSoC4/CyLib.c **** * Summary:
1515:.\Generated_Source\PSoC4/CyLib.c **** *  Enables the SysTick timer and its interrupt.
1516:.\Generated_Source\PSoC4/CyLib.c **** *
1517:.\Generated_Source\PSoC4/CyLib.c **** * Parameters:
1518:.\Generated_Source\PSoC4/CyLib.c **** *  None
1519:.\Generated_Source\PSoC4/CyLib.c **** *
1520:.\Generated_Source\PSoC4/CyLib.c **** * Return:
1521:.\Generated_Source\PSoC4/CyLib.c **** *  None
1522:.\Generated_Source\PSoC4/CyLib.c **** *
1523:.\Generated_Source\PSoC4/CyLib.c **** * Side Effects:
1524:.\Generated_Source\PSoC4/CyLib.c **** *  Clears SysTick count flag if it was set
1525:.\Generated_Source\PSoC4/CyLib.c **** *
ARM GAS  C:\Users\11401393\AppData\Local\Temp\cctINdqa.s 			page 54


1526:.\Generated_Source\PSoC4/CyLib.c **** *******************************************************************************/
1527:.\Generated_Source\PSoC4/CyLib.c **** void CySysTickEnable(void)
1528:.\Generated_Source\PSoC4/CyLib.c **** {
1529:.\Generated_Source\PSoC4/CyLib.c ****     CySysTickEnableInterrupt();
1530:.\Generated_Source\PSoC4/CyLib.c ****     CY_SYS_SYST_CSR_REG |= CY_SYS_SYST_CSR_ENABLE;
1531:.\Generated_Source\PSoC4/CyLib.c **** }
1532:.\Generated_Source\PSoC4/CyLib.c **** 
1533:.\Generated_Source\PSoC4/CyLib.c **** 
1534:.\Generated_Source\PSoC4/CyLib.c **** /*******************************************************************************
1535:.\Generated_Source\PSoC4/CyLib.c **** * Function Name: CySysTickStop
1536:.\Generated_Source\PSoC4/CyLib.c **** ********************************************************************************
1537:.\Generated_Source\PSoC4/CyLib.c **** *
1538:.\Generated_Source\PSoC4/CyLib.c **** * Summary:
1539:.\Generated_Source\PSoC4/CyLib.c **** *  Stops the system timer (SysTick).
1540:.\Generated_Source\PSoC4/CyLib.c **** *
1541:.\Generated_Source\PSoC4/CyLib.c **** * Parameters:
1542:.\Generated_Source\PSoC4/CyLib.c **** *  None
1543:.\Generated_Source\PSoC4/CyLib.c **** *
1544:.\Generated_Source\PSoC4/CyLib.c **** * Return:
1545:.\Generated_Source\PSoC4/CyLib.c **** *  None
1546:.\Generated_Source\PSoC4/CyLib.c **** *
1547:.\Generated_Source\PSoC4/CyLib.c **** * Side Effects:
1548:.\Generated_Source\PSoC4/CyLib.c **** *  Clears SysTick count flag if it was set
1549:.\Generated_Source\PSoC4/CyLib.c **** *
1550:.\Generated_Source\PSoC4/CyLib.c **** *******************************************************************************/
1551:.\Generated_Source\PSoC4/CyLib.c **** void CySysTickStop(void)
1552:.\Generated_Source\PSoC4/CyLib.c **** {
 1386              		.loc 1 1552 0
 1387              		.cfi_startproc
1553:.\Generated_Source\PSoC4/CyLib.c ****     CY_SYS_SYST_CSR_REG &= ((uint32) ~(CY_SYS_SYST_CSR_ENABLE));
 1388              		.loc 1 1553 0
 1389 0000 024B     		ldr	r3, .L111
 1390 0002 1A68     		ldr	r2, [r3]
 1391 0004 0121     		mov	r1, #1
 1392 0006 8A43     		bic	r2, r1
 1393 0008 1A60     		str	r2, [r3]
1554:.\Generated_Source\PSoC4/CyLib.c **** }
 1394              		.loc 1 1554 0
 1395              		@ sp needed
 1396 000a 7047     		bx	lr
 1397              	.L112:
 1398              		.align	2
 1399              	.L111:
 1400 000c 10E000E0 		.word	-536813552
 1401              		.cfi_endproc
 1402              	.LFE35:
 1403              		.size	CySysTickStop, .-CySysTickStop
 1404              		.section	.text.CySysTickEnableInterrupt,"ax",%progbits
 1405              		.align	2
 1406              		.global	CySysTickEnableInterrupt
 1407              		.code	16
 1408              		.thumb_func
 1409              		.type	CySysTickEnableInterrupt, %function
 1410              	CySysTickEnableInterrupt:
 1411              	.LFB36:
1555:.\Generated_Source\PSoC4/CyLib.c **** 
1556:.\Generated_Source\PSoC4/CyLib.c **** 
ARM GAS  C:\Users\11401393\AppData\Local\Temp\cctINdqa.s 			page 55


1557:.\Generated_Source\PSoC4/CyLib.c **** /*******************************************************************************
1558:.\Generated_Source\PSoC4/CyLib.c **** * Function Name: CySysTickEnableInterrupt
1559:.\Generated_Source\PSoC4/CyLib.c **** ********************************************************************************
1560:.\Generated_Source\PSoC4/CyLib.c **** *
1561:.\Generated_Source\PSoC4/CyLib.c **** * Summary:
1562:.\Generated_Source\PSoC4/CyLib.c **** *  Enables the SysTick interrupt.
1563:.\Generated_Source\PSoC4/CyLib.c **** *
1564:.\Generated_Source\PSoC4/CyLib.c **** * Parameters:
1565:.\Generated_Source\PSoC4/CyLib.c **** *  None
1566:.\Generated_Source\PSoC4/CyLib.c **** *
1567:.\Generated_Source\PSoC4/CyLib.c **** * Return:
1568:.\Generated_Source\PSoC4/CyLib.c **** *  None
1569:.\Generated_Source\PSoC4/CyLib.c **** *
1570:.\Generated_Source\PSoC4/CyLib.c **** * Side Effects:
1571:.\Generated_Source\PSoC4/CyLib.c **** *  Clears SysTick count flag if it was set
1572:.\Generated_Source\PSoC4/CyLib.c **** *
1573:.\Generated_Source\PSoC4/CyLib.c **** *******************************************************************************/
1574:.\Generated_Source\PSoC4/CyLib.c **** void CySysTickEnableInterrupt(void)
1575:.\Generated_Source\PSoC4/CyLib.c **** {
 1412              		.loc 1 1575 0
 1413              		.cfi_startproc
1576:.\Generated_Source\PSoC4/CyLib.c ****     CY_SYS_SYST_CSR_REG |= CY_SYS_SYST_CSR_ENABLE_INT;
 1414              		.loc 1 1576 0
 1415 0000 024B     		ldr	r3, .L114
 1416 0002 1968     		ldr	r1, [r3]
 1417 0004 0222     		mov	r2, #2
 1418 0006 0A43     		orr	r2, r1
 1419 0008 1A60     		str	r2, [r3]
1577:.\Generated_Source\PSoC4/CyLib.c **** }
 1420              		.loc 1 1577 0
 1421              		@ sp needed
 1422 000a 7047     		bx	lr
 1423              	.L115:
 1424              		.align	2
 1425              	.L114:
 1426 000c 10E000E0 		.word	-536813552
 1427              		.cfi_endproc
 1428              	.LFE36:
 1429              		.size	CySysTickEnableInterrupt, .-CySysTickEnableInterrupt
 1430              		.section	.text.CySysTickEnable,"ax",%progbits
 1431              		.align	2
 1432              		.global	CySysTickEnable
 1433              		.code	16
 1434              		.thumb_func
 1435              		.type	CySysTickEnable, %function
 1436              	CySysTickEnable:
 1437              	.LFB34:
1528:.\Generated_Source\PSoC4/CyLib.c **** {
 1438              		.loc 1 1528 0
 1439              		.cfi_startproc
 1440 0000 08B5     		push	{r3, lr}
 1441              		.cfi_def_cfa_offset 8
 1442              		.cfi_offset 3, -8
 1443              		.cfi_offset 14, -4
1529:.\Generated_Source\PSoC4/CyLib.c ****     CySysTickEnableInterrupt();
 1444              		.loc 1 1529 0
 1445 0002 FFF7FEFF 		bl	CySysTickEnableInterrupt
ARM GAS  C:\Users\11401393\AppData\Local\Temp\cctINdqa.s 			page 56


 1446              	.LVL113:
1530:.\Generated_Source\PSoC4/CyLib.c ****     CY_SYS_SYST_CSR_REG |= CY_SYS_SYST_CSR_ENABLE;
 1447              		.loc 1 1530 0
 1448 0006 034B     		ldr	r3, .L117
 1449 0008 1968     		ldr	r1, [r3]
 1450 000a 0122     		mov	r2, #1
 1451 000c 0A43     		orr	r2, r1
 1452 000e 1A60     		str	r2, [r3]
1531:.\Generated_Source\PSoC4/CyLib.c **** }
 1453              		.loc 1 1531 0
 1454              		@ sp needed
 1455 0010 08BD     		pop	{r3, pc}
 1456              	.L118:
 1457 0012 C046     		.align	2
 1458              	.L117:
 1459 0014 10E000E0 		.word	-536813552
 1460              		.cfi_endproc
 1461              	.LFE34:
 1462              		.size	CySysTickEnable, .-CySysTickEnable
 1463              		.section	.text.CySysTickDisableInterrupt,"ax",%progbits
 1464              		.align	2
 1465              		.global	CySysTickDisableInterrupt
 1466              		.code	16
 1467              		.thumb_func
 1468              		.type	CySysTickDisableInterrupt, %function
 1469              	CySysTickDisableInterrupt:
 1470              	.LFB37:
1578:.\Generated_Source\PSoC4/CyLib.c **** 
1579:.\Generated_Source\PSoC4/CyLib.c **** 
1580:.\Generated_Source\PSoC4/CyLib.c **** /*******************************************************************************
1581:.\Generated_Source\PSoC4/CyLib.c **** * Function Name: CySysTickDisableInterrupt
1582:.\Generated_Source\PSoC4/CyLib.c **** ********************************************************************************
1583:.\Generated_Source\PSoC4/CyLib.c **** *
1584:.\Generated_Source\PSoC4/CyLib.c **** * Summary:
1585:.\Generated_Source\PSoC4/CyLib.c **** *  Disables the SysTick interrupt.
1586:.\Generated_Source\PSoC4/CyLib.c **** *
1587:.\Generated_Source\PSoC4/CyLib.c **** * Parameters:
1588:.\Generated_Source\PSoC4/CyLib.c **** *  None
1589:.\Generated_Source\PSoC4/CyLib.c **** *
1590:.\Generated_Source\PSoC4/CyLib.c **** * Return:
1591:.\Generated_Source\PSoC4/CyLib.c **** *  None
1592:.\Generated_Source\PSoC4/CyLib.c **** *
1593:.\Generated_Source\PSoC4/CyLib.c **** * Side Effects:
1594:.\Generated_Source\PSoC4/CyLib.c **** *  Clears SysTick count flag if it was set
1595:.\Generated_Source\PSoC4/CyLib.c **** *
1596:.\Generated_Source\PSoC4/CyLib.c **** *******************************************************************************/
1597:.\Generated_Source\PSoC4/CyLib.c **** void CySysTickDisableInterrupt(void)
1598:.\Generated_Source\PSoC4/CyLib.c **** {
 1471              		.loc 1 1598 0
 1472              		.cfi_startproc
1599:.\Generated_Source\PSoC4/CyLib.c ****     CY_SYS_SYST_CSR_REG &= ((uint32) ~(CY_SYS_SYST_CSR_ENABLE_INT));
 1473              		.loc 1 1599 0
 1474 0000 024B     		ldr	r3, .L120
 1475 0002 1A68     		ldr	r2, [r3]
 1476 0004 0221     		mov	r1, #2
 1477 0006 8A43     		bic	r2, r1
 1478 0008 1A60     		str	r2, [r3]
ARM GAS  C:\Users\11401393\AppData\Local\Temp\cctINdqa.s 			page 57


1600:.\Generated_Source\PSoC4/CyLib.c **** }
 1479              		.loc 1 1600 0
 1480              		@ sp needed
 1481 000a 7047     		bx	lr
 1482              	.L121:
 1483              		.align	2
 1484              	.L120:
 1485 000c 10E000E0 		.word	-536813552
 1486              		.cfi_endproc
 1487              	.LFE37:
 1488              		.size	CySysTickDisableInterrupt, .-CySysTickDisableInterrupt
 1489              		.section	.text.CySysTickSetReload,"ax",%progbits
 1490              		.align	2
 1491              		.global	CySysTickSetReload
 1492              		.code	16
 1493              		.thumb_func
 1494              		.type	CySysTickSetReload, %function
 1495              	CySysTickSetReload:
 1496              	.LFB38:
1601:.\Generated_Source\PSoC4/CyLib.c **** 
1602:.\Generated_Source\PSoC4/CyLib.c **** 
1603:.\Generated_Source\PSoC4/CyLib.c **** /*******************************************************************************
1604:.\Generated_Source\PSoC4/CyLib.c **** * Function Name: CySysTickSetReload
1605:.\Generated_Source\PSoC4/CyLib.c **** ********************************************************************************
1606:.\Generated_Source\PSoC4/CyLib.c **** *
1607:.\Generated_Source\PSoC4/CyLib.c **** * Summary:
1608:.\Generated_Source\PSoC4/CyLib.c **** *  Sets value the counter is set to on startup and after it reaches zero. This
1609:.\Generated_Source\PSoC4/CyLib.c **** *  function do not change or reset current sysTick counter value, so it should
1610:.\Generated_Source\PSoC4/CyLib.c **** *  be cleared using CySysTickClear() API.
1611:.\Generated_Source\PSoC4/CyLib.c **** *
1612:.\Generated_Source\PSoC4/CyLib.c **** * Parameters:
1613:.\Generated_Source\PSoC4/CyLib.c **** *  value: Valid range [0x0-0x00FFFFFF]. Counter reset value
1614:.\Generated_Source\PSoC4/CyLib.c **** *
1615:.\Generated_Source\PSoC4/CyLib.c **** * Return:
1616:.\Generated_Source\PSoC4/CyLib.c **** *  None
1617:.\Generated_Source\PSoC4/CyLib.c **** *
1618:.\Generated_Source\PSoC4/CyLib.c **** *******************************************************************************/
1619:.\Generated_Source\PSoC4/CyLib.c **** void CySysTickSetReload(uint32 value)
1620:.\Generated_Source\PSoC4/CyLib.c **** {
 1497              		.loc 1 1620 0
 1498              		.cfi_startproc
 1499              	.LVL114:
1621:.\Generated_Source\PSoC4/CyLib.c ****     CY_SYS_SYST_RVR_REG = (value & CY_SYS_SYST_RVR_CNT_MASK);
 1500              		.loc 1 1621 0
 1501 0000 0002     		lsl	r0, r0, #8
 1502              	.LVL115:
 1503 0002 000A     		lsr	r0, r0, #8
 1504 0004 014B     		ldr	r3, .L123
 1505 0006 1860     		str	r0, [r3]
1622:.\Generated_Source\PSoC4/CyLib.c **** }
 1506              		.loc 1 1622 0
 1507              		@ sp needed
 1508 0008 7047     		bx	lr
 1509              	.L124:
 1510 000a C046     		.align	2
 1511              	.L123:
 1512 000c 14E000E0 		.word	-536813548
ARM GAS  C:\Users\11401393\AppData\Local\Temp\cctINdqa.s 			page 58


 1513              		.cfi_endproc
 1514              	.LFE38:
 1515              		.size	CySysTickSetReload, .-CySysTickSetReload
 1516              		.section	.text.CySysTickGetReload,"ax",%progbits
 1517              		.align	2
 1518              		.global	CySysTickGetReload
 1519              		.code	16
 1520              		.thumb_func
 1521              		.type	CySysTickGetReload, %function
 1522              	CySysTickGetReload:
 1523              	.LFB39:
1623:.\Generated_Source\PSoC4/CyLib.c **** 
1624:.\Generated_Source\PSoC4/CyLib.c **** 
1625:.\Generated_Source\PSoC4/CyLib.c **** /*******************************************************************************
1626:.\Generated_Source\PSoC4/CyLib.c **** * Function Name: CySysTickGetReload
1627:.\Generated_Source\PSoC4/CyLib.c **** ********************************************************************************
1628:.\Generated_Source\PSoC4/CyLib.c **** *
1629:.\Generated_Source\PSoC4/CyLib.c **** * Summary:
1630:.\Generated_Source\PSoC4/CyLib.c **** *  Sets value the counter is set to on startup and after it reaches zero.
1631:.\Generated_Source\PSoC4/CyLib.c **** *
1632:.\Generated_Source\PSoC4/CyLib.c **** * Parameters:
1633:.\Generated_Source\PSoC4/CyLib.c **** *  None
1634:.\Generated_Source\PSoC4/CyLib.c **** *
1635:.\Generated_Source\PSoC4/CyLib.c **** * Return:
1636:.\Generated_Source\PSoC4/CyLib.c **** *  Counter reset value.
1637:.\Generated_Source\PSoC4/CyLib.c **** *
1638:.\Generated_Source\PSoC4/CyLib.c **** *******************************************************************************/
1639:.\Generated_Source\PSoC4/CyLib.c **** uint32 CySysTickGetReload(void)
1640:.\Generated_Source\PSoC4/CyLib.c **** {
 1524              		.loc 1 1640 0
 1525              		.cfi_startproc
1641:.\Generated_Source\PSoC4/CyLib.c ****     return(CY_SYS_SYST_RVR_REG & CY_SYS_SYST_RVR_CNT_MASK);
 1526              		.loc 1 1641 0
 1527 0000 024B     		ldr	r3, .L126
 1528 0002 1868     		ldr	r0, [r3]
 1529 0004 0002     		lsl	r0, r0, #8
 1530 0006 000A     		lsr	r0, r0, #8
1642:.\Generated_Source\PSoC4/CyLib.c **** }
 1531              		.loc 1 1642 0
 1532              		@ sp needed
 1533 0008 7047     		bx	lr
 1534              	.L127:
 1535 000a C046     		.align	2
 1536              	.L126:
 1537 000c 14E000E0 		.word	-536813548
 1538              		.cfi_endproc
 1539              	.LFE39:
 1540              		.size	CySysTickGetReload, .-CySysTickGetReload
 1541              		.section	.text.CySysTickGetValue,"ax",%progbits
 1542              		.align	2
 1543              		.global	CySysTickGetValue
 1544              		.code	16
 1545              		.thumb_func
 1546              		.type	CySysTickGetValue, %function
 1547              	CySysTickGetValue:
 1548              	.LFB40:
1643:.\Generated_Source\PSoC4/CyLib.c **** 
ARM GAS  C:\Users\11401393\AppData\Local\Temp\cctINdqa.s 			page 59


1644:.\Generated_Source\PSoC4/CyLib.c **** 
1645:.\Generated_Source\PSoC4/CyLib.c **** /*******************************************************************************
1646:.\Generated_Source\PSoC4/CyLib.c **** * Function Name: CySysTickGetValue
1647:.\Generated_Source\PSoC4/CyLib.c **** ********************************************************************************
1648:.\Generated_Source\PSoC4/CyLib.c **** *
1649:.\Generated_Source\PSoC4/CyLib.c **** * Summary:
1650:.\Generated_Source\PSoC4/CyLib.c **** *  Gets current SysTick counter value.
1651:.\Generated_Source\PSoC4/CyLib.c **** *
1652:.\Generated_Source\PSoC4/CyLib.c **** * Parameters:
1653:.\Generated_Source\PSoC4/CyLib.c **** *  None
1654:.\Generated_Source\PSoC4/CyLib.c **** *
1655:.\Generated_Source\PSoC4/CyLib.c **** * Return:
1656:.\Generated_Source\PSoC4/CyLib.c **** *  Current SysTick counter value
1657:.\Generated_Source\PSoC4/CyLib.c **** *
1658:.\Generated_Source\PSoC4/CyLib.c **** *******************************************************************************/
1659:.\Generated_Source\PSoC4/CyLib.c **** uint32 CySysTickGetValue(void)
1660:.\Generated_Source\PSoC4/CyLib.c **** {
 1549              		.loc 1 1660 0
 1550              		.cfi_startproc
1661:.\Generated_Source\PSoC4/CyLib.c ****     return(CY_SYS_SYST_CVR_REG & CY_SYS_SYST_CVR_CNT_MASK);
 1551              		.loc 1 1661 0
 1552 0000 024B     		ldr	r3, .L129
 1553 0002 1868     		ldr	r0, [r3]
 1554 0004 0002     		lsl	r0, r0, #8
 1555 0006 000A     		lsr	r0, r0, #8
1662:.\Generated_Source\PSoC4/CyLib.c **** }
 1556              		.loc 1 1662 0
 1557              		@ sp needed
 1558 0008 7047     		bx	lr
 1559              	.L130:
 1560 000a C046     		.align	2
 1561              	.L129:
 1562 000c 18E000E0 		.word	-536813544
 1563              		.cfi_endproc
 1564              	.LFE40:
 1565              		.size	CySysTickGetValue, .-CySysTickGetValue
 1566              		.section	.text.CySysTickSetClockSource,"ax",%progbits
 1567              		.align	2
 1568              		.global	CySysTickSetClockSource
 1569              		.code	16
 1570              		.thumb_func
 1571              		.type	CySysTickSetClockSource, %function
 1572              	CySysTickSetClockSource:
 1573              	.LFB41:
1663:.\Generated_Source\PSoC4/CyLib.c **** 
1664:.\Generated_Source\PSoC4/CyLib.c **** 
1665:.\Generated_Source\PSoC4/CyLib.c **** #if(!CY_PSOC3 && !CY_PSOC4_4000 && !CY_PSOC4_4100 && !CY_PSOC4_4200)
1666:.\Generated_Source\PSoC4/CyLib.c ****     /*******************************************************************************
1667:.\Generated_Source\PSoC4/CyLib.c ****     * Function Name: CySysTickSetClockSource
1668:.\Generated_Source\PSoC4/CyLib.c ****     ********************************************************************************
1669:.\Generated_Source\PSoC4/CyLib.c ****     *
1670:.\Generated_Source\PSoC4/CyLib.c ****     * Summary:
1671:.\Generated_Source\PSoC4/CyLib.c ****     *  Sets the clock source for the SysTick counter.
1672:.\Generated_Source\PSoC4/CyLib.c ****     *
1673:.\Generated_Source\PSoC4/CyLib.c ****     * Parameters:
1674:.\Generated_Source\PSoC4/CyLib.c ****     *  clockSource: Clock source for SysTick counter
1675:.\Generated_Source\PSoC4/CyLib.c ****     *         Define                     Clock Source
ARM GAS  C:\Users\11401393\AppData\Local\Temp\cctINdqa.s 			page 60


1676:.\Generated_Source\PSoC4/CyLib.c ****     *   CY_SYS_SYST_CSR_CLK_SRC_SYSCLK     SysTick is clocked by CPU clock.
1677:.\Generated_Source\PSoC4/CyLib.c ****     *   CY_SYS_SYST_CSR_CLK_SRC_LFCLK      SysTick is clocked by the low frequency
1678:.\Generated_Source\PSoC4/CyLib.c ****     *                                      clock. (ILO 100 KHz for PSoC 5LP, and
1679:.\Generated_Source\PSoC4/CyLib.c ****     *                                      LFCLK for PSoC 4).
1680:.\Generated_Source\PSoC4/CyLib.c ****     *
1681:.\Generated_Source\PSoC4/CyLib.c ****     * Return:
1682:.\Generated_Source\PSoC4/CyLib.c ****     *  None
1683:.\Generated_Source\PSoC4/CyLib.c ****     *
1684:.\Generated_Source\PSoC4/CyLib.c ****     * Side Effects:
1685:.\Generated_Source\PSoC4/CyLib.c ****     *  Clears SysTick count flag if it was set. If clock source is not ready this
1686:.\Generated_Source\PSoC4/CyLib.c ****     *  function call will have no effect. After changing clock source to the low
1687:.\Generated_Source\PSoC4/CyLib.c ****     *  frequency clock the counter and reload register values will remain unchanged
1688:.\Generated_Source\PSoC4/CyLib.c ****     *  so time to the interrupt will be significantly bigger and vice versa.
1689:.\Generated_Source\PSoC4/CyLib.c ****     *
1690:.\Generated_Source\PSoC4/CyLib.c ****     *******************************************************************************/
1691:.\Generated_Source\PSoC4/CyLib.c ****     void CySysTickSetClockSource(uint32 clockSource)
1692:.\Generated_Source\PSoC4/CyLib.c ****     {
 1574              		.loc 1 1692 0
 1575              		.cfi_startproc
 1576              	.LVL116:
1693:.\Generated_Source\PSoC4/CyLib.c ****         if (clockSource == CY_SYS_SYST_CSR_CLK_SRC_SYSCLK)
 1577              		.loc 1 1693 0
 1578 0000 0128     		cmp	r0, #1
 1579 0002 05D1     		bne	.L132
1694:.\Generated_Source\PSoC4/CyLib.c ****         {
1695:.\Generated_Source\PSoC4/CyLib.c ****             CY_SYS_SYST_CSR_REG |= (uint32)(CY_SYS_SYST_CSR_CLK_SRC_SYSCLK << CY_SYS_SYST_CSR_CLK_S
 1580              		.loc 1 1695 0
 1581 0004 054B     		ldr	r3, .L134
 1582 0006 1968     		ldr	r1, [r3]
 1583 0008 0422     		mov	r2, #4
 1584 000a 0A43     		orr	r2, r1
 1585 000c 1A60     		str	r2, [r3]
 1586 000e 04E0     		b	.L131
 1587              	.L132:
1696:.\Generated_Source\PSoC4/CyLib.c ****         }
1697:.\Generated_Source\PSoC4/CyLib.c ****         else
1698:.\Generated_Source\PSoC4/CyLib.c ****         {
1699:.\Generated_Source\PSoC4/CyLib.c ****             CY_SYS_SYST_CSR_REG &= ((uint32) ~((uint32)(CY_SYS_SYST_CSR_CLK_SRC_SYSCLK << CY_SYS_SY
 1588              		.loc 1 1699 0
 1589 0010 024B     		ldr	r3, .L134
 1590 0012 1A68     		ldr	r2, [r3]
 1591 0014 0421     		mov	r1, #4
 1592 0016 8A43     		bic	r2, r1
 1593 0018 1A60     		str	r2, [r3]
 1594              	.L131:
1700:.\Generated_Source\PSoC4/CyLib.c ****         }
1701:.\Generated_Source\PSoC4/CyLib.c ****     }
 1595              		.loc 1 1701 0
 1596              		@ sp needed
 1597 001a 7047     		bx	lr
 1598              	.L135:
 1599              		.align	2
 1600              	.L134:
 1601 001c 10E000E0 		.word	-536813552
 1602              		.cfi_endproc
 1603              	.LFE41:
 1604              		.size	CySysTickSetClockSource, .-CySysTickSetClockSource
ARM GAS  C:\Users\11401393\AppData\Local\Temp\cctINdqa.s 			page 61


 1605              		.section	.text.CySysTickGetCountFlag,"ax",%progbits
 1606              		.align	2
 1607              		.global	CySysTickGetCountFlag
 1608              		.code	16
 1609              		.thumb_func
 1610              		.type	CySysTickGetCountFlag, %function
 1611              	CySysTickGetCountFlag:
 1612              	.LFB42:
1702:.\Generated_Source\PSoC4/CyLib.c **** #endif /* (!CY_PSOC3 && !CY_PSOC4_4000 && !CY_PSOC4_4100 && !CY_PSOC4_4200) */
1703:.\Generated_Source\PSoC4/CyLib.c **** 
1704:.\Generated_Source\PSoC4/CyLib.c **** 
1705:.\Generated_Source\PSoC4/CyLib.c **** /*******************************************************************************
1706:.\Generated_Source\PSoC4/CyLib.c **** * Function Name: CySysTickGetCountFlag
1707:.\Generated_Source\PSoC4/CyLib.c **** ********************************************************************************
1708:.\Generated_Source\PSoC4/CyLib.c **** *
1709:.\Generated_Source\PSoC4/CyLib.c **** * Summary:
1710:.\Generated_Source\PSoC4/CyLib.c **** *  The count flag is set once SysTick counter reaches zero.
1711:.\Generated_Source\PSoC4/CyLib.c **** *   The flag cleared on read.
1712:.\Generated_Source\PSoC4/CyLib.c **** *
1713:.\Generated_Source\PSoC4/CyLib.c **** * Parameters:
1714:.\Generated_Source\PSoC4/CyLib.c **** *  None
1715:.\Generated_Source\PSoC4/CyLib.c **** *
1716:.\Generated_Source\PSoC4/CyLib.c **** * Return:
1717:.\Generated_Source\PSoC4/CyLib.c ****     *  Returns non-zero value if flag is set, otherwise zero is returned.
1718:.\Generated_Source\PSoC4/CyLib.c **** *
1719:.\Generated_Source\PSoC4/CyLib.c **** *
1720:.\Generated_Source\PSoC4/CyLib.c **** * Side Effects:
1721:.\Generated_Source\PSoC4/CyLib.c **** *  Clears SysTick count flag if it was set.
1722:.\Generated_Source\PSoC4/CyLib.c **** *
1723:.\Generated_Source\PSoC4/CyLib.c **** *******************************************************************************/
1724:.\Generated_Source\PSoC4/CyLib.c **** uint32 CySysTickGetCountFlag(void)
1725:.\Generated_Source\PSoC4/CyLib.c **** {
 1613              		.loc 1 1725 0
 1614              		.cfi_startproc
1726:.\Generated_Source\PSoC4/CyLib.c ****     return ((CY_SYS_SYST_CSR_REG>>CY_SYS_SYST_CSR_COUNTFLAG_SHIFT) & 0x01u);
 1615              		.loc 1 1726 0
 1616 0000 024B     		ldr	r3, .L137
 1617 0002 1868     		ldr	r0, [r3]
 1618 0004 C003     		lsl	r0, r0, #15
 1619 0006 C00F     		lsr	r0, r0, #31
1727:.\Generated_Source\PSoC4/CyLib.c **** }
 1620              		.loc 1 1727 0
 1621              		@ sp needed
 1622 0008 7047     		bx	lr
 1623              	.L138:
 1624 000a C046     		.align	2
 1625              	.L137:
 1626 000c 10E000E0 		.word	-536813552
 1627              		.cfi_endproc
 1628              	.LFE42:
 1629              		.size	CySysTickGetCountFlag, .-CySysTickGetCountFlag
 1630              		.section	.text.CySysTickServiceCallbacks,"ax",%progbits
 1631              		.align	2
 1632              		.code	16
 1633              		.thumb_func
 1634              		.type	CySysTickServiceCallbacks, %function
 1635              	CySysTickServiceCallbacks:
ARM GAS  C:\Users\11401393\AppData\Local\Temp\cctINdqa.s 			page 62


 1636              	.LFB46:
1728:.\Generated_Source\PSoC4/CyLib.c **** 
1729:.\Generated_Source\PSoC4/CyLib.c **** 
1730:.\Generated_Source\PSoC4/CyLib.c **** /*******************************************************************************
1731:.\Generated_Source\PSoC4/CyLib.c **** * Function Name: CySysTickClear
1732:.\Generated_Source\PSoC4/CyLib.c **** ********************************************************************************
1733:.\Generated_Source\PSoC4/CyLib.c **** *
1734:.\Generated_Source\PSoC4/CyLib.c **** * Summary:
1735:.\Generated_Source\PSoC4/CyLib.c **** *  Clears the SysTick counter for well-defined startup.
1736:.\Generated_Source\PSoC4/CyLib.c **** *
1737:.\Generated_Source\PSoC4/CyLib.c **** * Parameters:
1738:.\Generated_Source\PSoC4/CyLib.c **** *  None
1739:.\Generated_Source\PSoC4/CyLib.c **** *
1740:.\Generated_Source\PSoC4/CyLib.c **** * Return:
1741:.\Generated_Source\PSoC4/CyLib.c **** *  None
1742:.\Generated_Source\PSoC4/CyLib.c **** *
1743:.\Generated_Source\PSoC4/CyLib.c **** *******************************************************************************/
1744:.\Generated_Source\PSoC4/CyLib.c **** void CySysTickClear(void)
1745:.\Generated_Source\PSoC4/CyLib.c **** {
1746:.\Generated_Source\PSoC4/CyLib.c ****     CY_SYS_SYST_CVR_REG = 0u;
1747:.\Generated_Source\PSoC4/CyLib.c **** }
1748:.\Generated_Source\PSoC4/CyLib.c **** 
1749:.\Generated_Source\PSoC4/CyLib.c **** 
1750:.\Generated_Source\PSoC4/CyLib.c **** /*******************************************************************************
1751:.\Generated_Source\PSoC4/CyLib.c **** * Function Name: CySysTickSetCallback
1752:.\Generated_Source\PSoC4/CyLib.c **** ********************************************************************************
1753:.\Generated_Source\PSoC4/CyLib.c **** *
1754:.\Generated_Source\PSoC4/CyLib.c **** * Summary:
1755:.\Generated_Source\PSoC4/CyLib.c **** *  This function allows up to five user-defined interrupt service routine
1756:.\Generated_Source\PSoC4/CyLib.c **** *  functions to be associated with the SysTick interrupt. These are specified
1757:.\Generated_Source\PSoC4/CyLib.c **** *  through the use of pointers to the function.
1758:.\Generated_Source\PSoC4/CyLib.c **** *
1759:.\Generated_Source\PSoC4/CyLib.c **** *  To set a custom callback function without the overhead of the system provided
1760:.\Generated_Source\PSoC4/CyLib.c **** *  one, use CyIntSetSysVector(CY_INT_SYSTICK_IRQN, cyisraddress <address>),
1761:.\Generated_Source\PSoC4/CyLib.c **** *  where <address> is address of the custom defined interrupt service routine.
1762:.\Generated_Source\PSoC4/CyLib.c **** *  Note: a custom callback function overrides the system defined callback
1763:.\Generated_Source\PSoC4/CyLib.c **** *  functions.
1764:.\Generated_Source\PSoC4/CyLib.c **** *
1765:.\Generated_Source\PSoC4/CyLib.c **** * Parameters:
1766:.\Generated_Source\PSoC4/CyLib.c **** *  number: The number of the callback function addresses to be set. The valid
1767:.\Generated_Source\PSoC4/CyLib.c **** *          range is from 0 to 4.
1768:.\Generated_Source\PSoC4/CyLib.c **** *
1769:.\Generated_Source\PSoC4/CyLib.c **** *  void(*CallbackFunction(void): A pointer to the function that will be
1770:.\Generated_Source\PSoC4/CyLib.c **** *                                associated with the SysTick ISR for the
1771:.\Generated_Source\PSoC4/CyLib.c **** *                                specified number.
1772:.\Generated_Source\PSoC4/CyLib.c **** *
1773:.\Generated_Source\PSoC4/CyLib.c **** * Return:
1774:.\Generated_Source\PSoC4/CyLib.c **** *  Returns the address of the previous callback function.
1775:.\Generated_Source\PSoC4/CyLib.c **** *  The NULL is returned if the specified address in not set.
1776:.\Generated_Source\PSoC4/CyLib.c **** *
1777:.\Generated_Source\PSoC4/CyLib.c **** * Side Effects:
1778:.\Generated_Source\PSoC4/CyLib.c **** *  The registered callback functions will be executed in the interrupt.
1779:.\Generated_Source\PSoC4/CyLib.c **** *
1780:.\Generated_Source\PSoC4/CyLib.c **** *******************************************************************************/
1781:.\Generated_Source\PSoC4/CyLib.c **** cySysTickCallback CySysTickSetCallback(uint32 number, cySysTickCallback function)
1782:.\Generated_Source\PSoC4/CyLib.c **** {
1783:.\Generated_Source\PSoC4/CyLib.c ****     cySysTickCallback retVal;
ARM GAS  C:\Users\11401393\AppData\Local\Temp\cctINdqa.s 			page 63


1784:.\Generated_Source\PSoC4/CyLib.c **** 
1785:.\Generated_Source\PSoC4/CyLib.c ****     retVal = CySysTickCallbacks[number];
1786:.\Generated_Source\PSoC4/CyLib.c ****     CySysTickCallbacks[number] = function;
1787:.\Generated_Source\PSoC4/CyLib.c ****     return (retVal);
1788:.\Generated_Source\PSoC4/CyLib.c **** }
1789:.\Generated_Source\PSoC4/CyLib.c **** 
1790:.\Generated_Source\PSoC4/CyLib.c **** 
1791:.\Generated_Source\PSoC4/CyLib.c **** /*******************************************************************************
1792:.\Generated_Source\PSoC4/CyLib.c **** * Function Name: CySysTickGetCallback
1793:.\Generated_Source\PSoC4/CyLib.c **** ********************************************************************************
1794:.\Generated_Source\PSoC4/CyLib.c **** *
1795:.\Generated_Source\PSoC4/CyLib.c **** * Summary:
1796:.\Generated_Source\PSoC4/CyLib.c **** *  The function get the specified callback pointer.
1797:.\Generated_Source\PSoC4/CyLib.c **** *
1798:.\Generated_Source\PSoC4/CyLib.c **** * Parameters:
1799:.\Generated_Source\PSoC4/CyLib.c **** *  number: The number of callback function address to get. The valid
1800:.\Generated_Source\PSoC4/CyLib.c **** *          range is from 0 to 4.
1801:.\Generated_Source\PSoC4/CyLib.c **** *
1802:.\Generated_Source\PSoC4/CyLib.c **** * Return:
1803:.\Generated_Source\PSoC4/CyLib.c **** *  Returns the address of the specified callback function.
1804:.\Generated_Source\PSoC4/CyLib.c **** *  The NULL is returned if the specified address in not initialized.
1805:.\Generated_Source\PSoC4/CyLib.c **** *
1806:.\Generated_Source\PSoC4/CyLib.c **** *******************************************************************************/
1807:.\Generated_Source\PSoC4/CyLib.c **** cySysTickCallback CySysTickGetCallback(uint32 number)
1808:.\Generated_Source\PSoC4/CyLib.c **** {
1809:.\Generated_Source\PSoC4/CyLib.c ****     return ((cySysTickCallback) CySysTickCallbacks[number]);
1810:.\Generated_Source\PSoC4/CyLib.c **** }
1811:.\Generated_Source\PSoC4/CyLib.c **** 
1812:.\Generated_Source\PSoC4/CyLib.c **** 
1813:.\Generated_Source\PSoC4/CyLib.c **** /*******************************************************************************
1814:.\Generated_Source\PSoC4/CyLib.c **** * Function Name: CySysTickServiceCallbacks
1815:.\Generated_Source\PSoC4/CyLib.c **** ********************************************************************************
1816:.\Generated_Source\PSoC4/CyLib.c **** *
1817:.\Generated_Source\PSoC4/CyLib.c **** * Summary:
1818:.\Generated_Source\PSoC4/CyLib.c **** *  System Tick timer interrupt routine
1819:.\Generated_Source\PSoC4/CyLib.c **** *
1820:.\Generated_Source\PSoC4/CyLib.c **** * Parameters:
1821:.\Generated_Source\PSoC4/CyLib.c **** *  None
1822:.\Generated_Source\PSoC4/CyLib.c **** *
1823:.\Generated_Source\PSoC4/CyLib.c **** * Return:
1824:.\Generated_Source\PSoC4/CyLib.c **** *  None
1825:.\Generated_Source\PSoC4/CyLib.c **** *
1826:.\Generated_Source\PSoC4/CyLib.c **** *******************************************************************************/
1827:.\Generated_Source\PSoC4/CyLib.c **** static void CySysTickServiceCallbacks(void)
1828:.\Generated_Source\PSoC4/CyLib.c **** {
 1637              		.loc 1 1828 0
 1638              		.cfi_startproc
 1639 0000 38B5     		push	{r3, r4, r5, lr}
 1640              		.cfi_def_cfa_offset 16
 1641              		.cfi_offset 3, -16
 1642              		.cfi_offset 4, -12
 1643              		.cfi_offset 5, -8
 1644              		.cfi_offset 14, -4
1829:.\Generated_Source\PSoC4/CyLib.c ****     uint32 i;
1830:.\Generated_Source\PSoC4/CyLib.c **** 
1831:.\Generated_Source\PSoC4/CyLib.c ****     /* Verify that tick timer flag was set */
1832:.\Generated_Source\PSoC4/CyLib.c ****     if (1u == CySysTickGetCountFlag())
ARM GAS  C:\Users\11401393\AppData\Local\Temp\cctINdqa.s 			page 64


 1645              		.loc 1 1832 0
 1646 0002 FFF7FEFF 		bl	CySysTickGetCountFlag
 1647              	.LVL117:
 1648 0006 0128     		cmp	r0, #1
 1649 0008 0BD1     		bne	.L139
 1650 000a 06E0     		b	.L144
 1651              	.LVL118:
 1652              	.L143:
1833:.\Generated_Source\PSoC4/CyLib.c ****     {
1834:.\Generated_Source\PSoC4/CyLib.c ****         for (i=0u; i < CY_SYS_SYST_NUM_OF_CALLBACKS; i++)
1835:.\Generated_Source\PSoC4/CyLib.c ****         {
1836:.\Generated_Source\PSoC4/CyLib.c ****             if (CySysTickCallbacks[i] != (void *) 0)
 1653              		.loc 1 1836 0
 1654 000c A300     		lsl	r3, r4, #2
 1655 000e 5B59     		ldr	r3, [r3, r5]
 1656 0010 002B     		cmp	r3, #0
 1657 0012 00D0     		beq	.L142
1837:.\Generated_Source\PSoC4/CyLib.c ****             {
1838:.\Generated_Source\PSoC4/CyLib.c ****                 (void)(CySysTickCallbacks[i])();
 1658              		.loc 1 1838 0
 1659 0014 9847     		blx	r3
 1660              	.LVL119:
 1661              	.L142:
1834:.\Generated_Source\PSoC4/CyLib.c ****         for (i=0u; i < CY_SYS_SYST_NUM_OF_CALLBACKS; i++)
 1662              		.loc 1 1834 0
 1663 0016 0134     		add	r4, r4, #1
 1664              	.LVL120:
 1665 0018 01E0     		b	.L140
 1666              	.LVL121:
 1667              	.L144:
 1668 001a 0024     		mov	r4, #0
1836:.\Generated_Source\PSoC4/CyLib.c ****             if (CySysTickCallbacks[i] != (void *) 0)
 1669              		.loc 1 1836 0
 1670 001c 014D     		ldr	r5, .L145
 1671              	.L140:
 1672              	.LVL122:
1834:.\Generated_Source\PSoC4/CyLib.c ****         for (i=0u; i < CY_SYS_SYST_NUM_OF_CALLBACKS; i++)
 1673              		.loc 1 1834 0 discriminator 1
 1674 001e 042C     		cmp	r4, #4
 1675 0020 F4D9     		bls	.L143
 1676              	.LVL123:
 1677              	.L139:
1839:.\Generated_Source\PSoC4/CyLib.c ****             }
1840:.\Generated_Source\PSoC4/CyLib.c ****         }
1841:.\Generated_Source\PSoC4/CyLib.c ****     }
1842:.\Generated_Source\PSoC4/CyLib.c **** }
 1678              		.loc 1 1842 0
 1679              		@ sp needed
 1680 0022 38BD     		pop	{r3, r4, r5, pc}
 1681              	.L146:
 1682              		.align	2
 1683              	.L145:
 1684 0024 00000000 		.word	.LANCHOR2
 1685              		.cfi_endproc
 1686              	.LFE46:
 1687              		.size	CySysTickServiceCallbacks, .-CySysTickServiceCallbacks
 1688              		.section	.text.CySysTickClear,"ax",%progbits
ARM GAS  C:\Users\11401393\AppData\Local\Temp\cctINdqa.s 			page 65


 1689              		.align	2
 1690              		.global	CySysTickClear
 1691              		.code	16
 1692              		.thumb_func
 1693              		.type	CySysTickClear, %function
 1694              	CySysTickClear:
 1695              	.LFB43:
1745:.\Generated_Source\PSoC4/CyLib.c **** {
 1696              		.loc 1 1745 0
 1697              		.cfi_startproc
1746:.\Generated_Source\PSoC4/CyLib.c ****     CY_SYS_SYST_CVR_REG = 0u;
 1698              		.loc 1 1746 0
 1699 0000 0022     		mov	r2, #0
 1700 0002 014B     		ldr	r3, .L148
 1701 0004 1A60     		str	r2, [r3]
1747:.\Generated_Source\PSoC4/CyLib.c **** }
 1702              		.loc 1 1747 0
 1703              		@ sp needed
 1704 0006 7047     		bx	lr
 1705              	.L149:
 1706              		.align	2
 1707              	.L148:
 1708 0008 18E000E0 		.word	-536813544
 1709              		.cfi_endproc
 1710              	.LFE43:
 1711              		.size	CySysTickClear, .-CySysTickClear
 1712              		.section	.text.CySysTickInit,"ax",%progbits
 1713              		.align	2
 1714              		.global	CySysTickInit
 1715              		.code	16
 1716              		.thumb_func
 1717              		.type	CySysTickInit, %function
 1718              	CySysTickInit:
 1719              	.LFB33:
1490:.\Generated_Source\PSoC4/CyLib.c **** {
 1720              		.loc 1 1490 0
 1721              		.cfi_startproc
 1722 0000 08B5     		push	{r3, lr}
 1723              		.cfi_def_cfa_offset 8
 1724              		.cfi_offset 3, -8
 1725              		.cfi_offset 14, -4
 1726              	.LVL124:
1493:.\Generated_Source\PSoC4/CyLib.c ****     for (i = 0u; i<CY_SYS_SYST_NUM_OF_CALLBACKS; i++)
 1727              		.loc 1 1493 0
 1728 0002 0023     		mov	r3, #0
1495:.\Generated_Source\PSoC4/CyLib.c ****         CySysTickCallbacks[i] = (void *) 0;
 1729              		.loc 1 1495 0
 1730 0004 0E48     		ldr	r0, .L153
 1731 0006 0021     		mov	r1, #0
1493:.\Generated_Source\PSoC4/CyLib.c ****     for (i = 0u; i<CY_SYS_SYST_NUM_OF_CALLBACKS; i++)
 1732              		.loc 1 1493 0
 1733 0008 02E0     		b	.L151
 1734              	.LVL125:
 1735              	.L152:
1495:.\Generated_Source\PSoC4/CyLib.c ****         CySysTickCallbacks[i] = (void *) 0;
 1736              		.loc 1 1495 0 discriminator 2
 1737 000a 9A00     		lsl	r2, r3, #2
ARM GAS  C:\Users\11401393\AppData\Local\Temp\cctINdqa.s 			page 66


 1738 000c 1150     		str	r1, [r2, r0]
1493:.\Generated_Source\PSoC4/CyLib.c ****     for (i = 0u; i<CY_SYS_SYST_NUM_OF_CALLBACKS; i++)
 1739              		.loc 1 1493 0 discriminator 2
 1740 000e 0133     		add	r3, r3, #1
 1741              	.LVL126:
 1742              	.L151:
1493:.\Generated_Source\PSoC4/CyLib.c ****     for (i = 0u; i<CY_SYS_SYST_NUM_OF_CALLBACKS; i++)
 1743              		.loc 1 1493 0 is_stmt 0 discriminator 1
 1744 0010 042B     		cmp	r3, #4
 1745 0012 FAD9     		bls	.L152
1498:.\Generated_Source\PSoC4/CyLib.c ****     (void) CyIntSetSysVector(CY_INT_SYSTICK_IRQN, &CySysTickServiceCallbacks);
 1746              		.loc 1 1498 0 is_stmt 1
 1747 0014 0F20     		mov	r0, #15
 1748 0016 0B49     		ldr	r1, .L153+4
 1749 0018 FFF7FEFF 		bl	CyIntSetSysVector
 1750              	.LVL127:
1501:.\Generated_Source\PSoC4/CyLib.c ****         CySysTickSetClockSource(CY_SYS_SYST_CSR_CLK_SRC_SYSCLK);
 1751              		.loc 1 1501 0
 1752 001c 0120     		mov	r0, #1
 1753 001e FFF7FEFF 		bl	CySysTickSetClockSource
 1754              	.LVL128:
1504:.\Generated_Source\PSoC4/CyLib.c ****     CySysTickSetReload(cydelayFreqHz/1000u);
 1755              		.loc 1 1504 0
 1756 0022 094B     		ldr	r3, .L153+8
 1757 0024 D868     		ldr	r0, [r3, #12]
 1758 0026 FA21     		mov	r1, #250
 1759 0028 8900     		lsl	r1, r1, #2
 1760 002a FFF7FEFF 		bl	__aeabi_uidiv
 1761              	.LVL129:
 1762 002e FFF7FEFF 		bl	CySysTickSetReload
 1763              	.LVL130:
1505:.\Generated_Source\PSoC4/CyLib.c ****     CySysTickClear();
 1764              		.loc 1 1505 0
 1765 0032 FFF7FEFF 		bl	CySysTickClear
 1766              	.LVL131:
1506:.\Generated_Source\PSoC4/CyLib.c ****     CyIntEnable(CY_INT_SYSTICK_IRQN);
 1767              		.loc 1 1506 0
 1768 0036 0F20     		mov	r0, #15
 1769 0038 FFF7FEFF 		bl	CyIntEnable
 1770              	.LVL132:
1507:.\Generated_Source\PSoC4/CyLib.c **** }
 1771              		.loc 1 1507 0
 1772              		@ sp needed
 1773 003c 08BD     		pop	{r3, pc}
 1774              	.L154:
 1775 003e C046     		.align	2
 1776              	.L153:
 1777 0040 00000000 		.word	.LANCHOR2
 1778 0044 00000000 		.word	CySysTickServiceCallbacks
 1779 0048 00000000 		.word	.LANCHOR0
 1780              		.cfi_endproc
 1781              	.LFE33:
 1782              		.size	CySysTickInit, .-CySysTickInit
 1783              		.section	.text.CySysTickStart,"ax",%progbits
 1784              		.align	2
 1785              		.global	CySysTickStart
 1786              		.code	16
ARM GAS  C:\Users\11401393\AppData\Local\Temp\cctINdqa.s 			page 67


 1787              		.thumb_func
 1788              		.type	CySysTickStart, %function
 1789              	CySysTickStart:
 1790              	.LFB32:
1456:.\Generated_Source\PSoC4/CyLib.c **** {
 1791              		.loc 1 1456 0
 1792              		.cfi_startproc
 1793 0000 08B5     		push	{r3, lr}
 1794              		.cfi_def_cfa_offset 8
 1795              		.cfi_offset 3, -8
 1796              		.cfi_offset 14, -4
1457:.\Generated_Source\PSoC4/CyLib.c ****     if (0u == CySysTickInitVar)
 1797              		.loc 1 1457 0
 1798 0002 064B     		ldr	r3, .L157
 1799 0004 5B69     		ldr	r3, [r3, #20]
 1800 0006 002B     		cmp	r3, #0
 1801 0008 04D1     		bne	.L156
1459:.\Generated_Source\PSoC4/CyLib.c ****         CySysTickInit();
 1802              		.loc 1 1459 0
 1803 000a FFF7FEFF 		bl	CySysTickInit
 1804              	.LVL133:
1460:.\Generated_Source\PSoC4/CyLib.c ****         CySysTickInitVar = 1u;
 1805              		.loc 1 1460 0
 1806 000e 0122     		mov	r2, #1
 1807 0010 024B     		ldr	r3, .L157
 1808 0012 5A61     		str	r2, [r3, #20]
 1809              	.L156:
1463:.\Generated_Source\PSoC4/CyLib.c ****     CySysTickEnable();
 1810              		.loc 1 1463 0
 1811 0014 FFF7FEFF 		bl	CySysTickEnable
 1812              	.LVL134:
1464:.\Generated_Source\PSoC4/CyLib.c **** }
 1813              		.loc 1 1464 0
 1814              		@ sp needed
 1815 0018 08BD     		pop	{r3, pc}
 1816              	.L158:
 1817 001a C046     		.align	2
 1818              	.L157:
 1819 001c 00000000 		.word	.LANCHOR2
 1820              		.cfi_endproc
 1821              	.LFE32:
 1822              		.size	CySysTickStart, .-CySysTickStart
 1823              		.section	.text.CySysTickSetCallback,"ax",%progbits
 1824              		.align	2
 1825              		.global	CySysTickSetCallback
 1826              		.code	16
 1827              		.thumb_func
 1828              		.type	CySysTickSetCallback, %function
 1829              	CySysTickSetCallback:
 1830              	.LFB44:
1782:.\Generated_Source\PSoC4/CyLib.c **** {
 1831              		.loc 1 1782 0
 1832              		.cfi_startproc
 1833              	.LVL135:
1785:.\Generated_Source\PSoC4/CyLib.c ****     retVal = CySysTickCallbacks[number];
 1834              		.loc 1 1785 0
 1835 0000 024B     		ldr	r3, .L160
ARM GAS  C:\Users\11401393\AppData\Local\Temp\cctINdqa.s 			page 68


 1836 0002 8200     		lsl	r2, r0, #2
 1837 0004 D058     		ldr	r0, [r2, r3]
 1838              	.LVL136:
1786:.\Generated_Source\PSoC4/CyLib.c ****     CySysTickCallbacks[number] = function;
 1839              		.loc 1 1786 0
 1840 0006 D150     		str	r1, [r2, r3]
1788:.\Generated_Source\PSoC4/CyLib.c **** }
 1841              		.loc 1 1788 0
 1842              		@ sp needed
 1843 0008 7047     		bx	lr
 1844              	.L161:
 1845 000a C046     		.align	2
 1846              	.L160:
 1847 000c 00000000 		.word	.LANCHOR2
 1848              		.cfi_endproc
 1849              	.LFE44:
 1850              		.size	CySysTickSetCallback, .-CySysTickSetCallback
 1851              		.section	.text.CySysTickGetCallback,"ax",%progbits
 1852              		.align	2
 1853              		.global	CySysTickGetCallback
 1854              		.code	16
 1855              		.thumb_func
 1856              		.type	CySysTickGetCallback, %function
 1857              	CySysTickGetCallback:
 1858              	.LFB45:
1808:.\Generated_Source\PSoC4/CyLib.c **** {
 1859              		.loc 1 1808 0
 1860              		.cfi_startproc
 1861              	.LVL137:
1809:.\Generated_Source\PSoC4/CyLib.c ****     return ((cySysTickCallback) CySysTickCallbacks[number]);
 1862              		.loc 1 1809 0
 1863 0000 8000     		lsl	r0, r0, #2
 1864              	.LVL138:
 1865 0002 014B     		ldr	r3, .L163
 1866 0004 C058     		ldr	r0, [r0, r3]
1810:.\Generated_Source\PSoC4/CyLib.c **** }
 1867              		.loc 1 1810 0
 1868              		@ sp needed
 1869 0006 7047     		bx	lr
 1870              	.L164:
 1871              		.align	2
 1872              	.L163:
 1873 0008 00000000 		.word	.LANCHOR2
 1874              		.cfi_endproc
 1875              	.LFE45:
 1876              		.size	CySysTickGetCallback, .-CySysTickGetCallback
 1877              		.section	.text.CyGetUniqueId,"ax",%progbits
 1878              		.align	2
 1879              		.global	CyGetUniqueId
 1880              		.code	16
 1881              		.thumb_func
 1882              		.type	CyGetUniqueId, %function
 1883              	CyGetUniqueId:
 1884              	.LFB47:
1843:.\Generated_Source\PSoC4/CyLib.c **** 
1844:.\Generated_Source\PSoC4/CyLib.c **** 
1845:.\Generated_Source\PSoC4/CyLib.c **** /*******************************************************************************
ARM GAS  C:\Users\11401393\AppData\Local\Temp\cctINdqa.s 			page 69


1846:.\Generated_Source\PSoC4/CyLib.c **** * Function Name: CyGetUniqueId
1847:.\Generated_Source\PSoC4/CyLib.c **** ********************************************************************************
1848:.\Generated_Source\PSoC4/CyLib.c **** *
1849:.\Generated_Source\PSoC4/CyLib.c **** * Summary:
1850:.\Generated_Source\PSoC4/CyLib.c **** *  Returns the 64-bit unique ID of the device. The uniqueness of the number is
1851:.\Generated_Source\PSoC4/CyLib.c **** *  guaranteed for 10 years due to the die lot number having a cycle life of 10
1852:.\Generated_Source\PSoC4/CyLib.c **** *  years and even after 10 years, the probability of getting two identical
1853:.\Generated_Source\PSoC4/CyLib.c **** *  numbers is very small.
1854:.\Generated_Source\PSoC4/CyLib.c **** *
1855:.\Generated_Source\PSoC4/CyLib.c **** * Parameters:
1856:.\Generated_Source\PSoC4/CyLib.c **** *  uniqueId: The pointer to a two element 32-bit unsigned integer array. Returns
1857:.\Generated_Source\PSoC4/CyLib.c **** *  the 64-bit unique ID of the device by loading them into the integer array
1858:.\Generated_Source\PSoC4/CyLib.c **** *  pointed to by uniqueId.
1859:.\Generated_Source\PSoC4/CyLib.c **** *
1860:.\Generated_Source\PSoC4/CyLib.c **** * Return:
1861:.\Generated_Source\PSoC4/CyLib.c **** *  None
1862:.\Generated_Source\PSoC4/CyLib.c **** *
1863:.\Generated_Source\PSoC4/CyLib.c **** *******************************************************************************/
1864:.\Generated_Source\PSoC4/CyLib.c **** void CyGetUniqueId(uint32* uniqueId)
1865:.\Generated_Source\PSoC4/CyLib.c **** {
 1885              		.loc 1 1865 0
 1886              		.cfi_startproc
 1887              	.LVL139:
1866:.\Generated_Source\PSoC4/CyLib.c **** #if(CY_PSOC4)
1867:.\Generated_Source\PSoC4/CyLib.c ****     uniqueId[0u]  =  (uint32)(* (reg8 *) CYREG_SFLASH_DIE_LOT0  );
 1888              		.loc 1 1867 0
 1889 0000 134B     		ldr	r3, .L166
 1890 0002 1A78     		ldrb	r2, [r3]
 1891 0004 D2B2     		uxtb	r2, r2
 1892 0006 0260     		str	r2, [r0]
1868:.\Generated_Source\PSoC4/CyLib.c ****     uniqueId[0u] |= ((uint32)(* (reg8 *) CYREG_SFLASH_DIE_LOT1  ) <<  8u);
 1893              		.loc 1 1868 0
 1894 0008 124B     		ldr	r3, .L166+4
 1895 000a 1B78     		ldrb	r3, [r3]
 1896 000c 1B02     		lsl	r3, r3, #8
 1897 000e 1343     		orr	r3, r2
 1898 0010 0360     		str	r3, [r0]
1869:.\Generated_Source\PSoC4/CyLib.c ****     uniqueId[0u] |= ((uint32)(* (reg8 *) CYREG_SFLASH_DIE_LOT2  ) << 16u);
 1899              		.loc 1 1869 0
 1900 0012 114A     		ldr	r2, .L166+8
 1901 0014 1278     		ldrb	r2, [r2]
 1902 0016 1204     		lsl	r2, r2, #16
 1903 0018 1343     		orr	r3, r2
 1904 001a 0360     		str	r3, [r0]
1870:.\Generated_Source\PSoC4/CyLib.c ****     uniqueId[0u] |= ((uint32)(* (reg8 *) CYREG_SFLASH_DIE_WAFER ) << 24u);
 1905              		.loc 1 1870 0
 1906 001c 0F4A     		ldr	r2, .L166+12
 1907 001e 1278     		ldrb	r2, [r2]
 1908 0020 1206     		lsl	r2, r2, #24
 1909 0022 1343     		orr	r3, r2
 1910 0024 0360     		str	r3, [r0]
1871:.\Generated_Source\PSoC4/CyLib.c **** 
1872:.\Generated_Source\PSoC4/CyLib.c ****     uniqueId[1u]  =  (uint32)(* (reg8 *) CYREG_SFLASH_DIE_X     );
 1911              		.loc 1 1872 0
 1912 0026 0E4B     		ldr	r3, .L166+16
 1913 0028 1A78     		ldrb	r2, [r3]
 1914 002a D2B2     		uxtb	r2, r2
ARM GAS  C:\Users\11401393\AppData\Local\Temp\cctINdqa.s 			page 70


 1915 002c 4260     		str	r2, [r0, #4]
1873:.\Generated_Source\PSoC4/CyLib.c ****     uniqueId[1u] |= ((uint32)(* (reg8 *) CYREG_SFLASH_DIE_Y     ) <<  8u);
 1916              		.loc 1 1873 0
 1917 002e 0D4B     		ldr	r3, .L166+20
 1918 0030 1B78     		ldrb	r3, [r3]
 1919 0032 1B02     		lsl	r3, r3, #8
 1920 0034 1343     		orr	r3, r2
 1921 0036 4360     		str	r3, [r0, #4]
1874:.\Generated_Source\PSoC4/CyLib.c ****     uniqueId[1u] |= ((uint32)(* (reg8 *) CYREG_SFLASH_DIE_SORT  ) << 16u);
 1922              		.loc 1 1874 0
 1923 0038 0B4A     		ldr	r2, .L166+24
 1924 003a 1278     		ldrb	r2, [r2]
 1925 003c 1204     		lsl	r2, r2, #16
 1926 003e 1343     		orr	r3, r2
 1927 0040 4360     		str	r3, [r0, #4]
1875:.\Generated_Source\PSoC4/CyLib.c ****     uniqueId[1u] |= ((uint32)(* (reg8 *) CYREG_SFLASH_DIE_MINOR ) << 24u);
 1928              		.loc 1 1875 0
 1929 0042 0A4A     		ldr	r2, .L166+28
 1930 0044 1278     		ldrb	r2, [r2]
 1931 0046 1206     		lsl	r2, r2, #24
 1932 0048 1343     		orr	r3, r2
 1933 004a 4360     		str	r3, [r0, #4]
1876:.\Generated_Source\PSoC4/CyLib.c **** #else
1877:.\Generated_Source\PSoC4/CyLib.c ****     uniqueId[0u]  =  (uint32) CY_GET_XTND_REG8((void CYFAR *) (CYREG_FLSHID_CUST_TABLES_LOT_LSB   )
1878:.\Generated_Source\PSoC4/CyLib.c ****     uniqueId[0u] |= ((uint32) CY_GET_XTND_REG8((void CYFAR *) (CYREG_FLSHID_CUST_TABLES_LOT_MSB   )
1879:.\Generated_Source\PSoC4/CyLib.c ****     uniqueId[0u] |= ((uint32) CY_GET_XTND_REG8((void CYFAR *) (CYREG_MLOGIC_REV_ID                )
1880:.\Generated_Source\PSoC4/CyLib.c ****     uniqueId[0u] |= ((uint32) CY_GET_XTND_REG8((void CYFAR *) (CYREG_FLSHID_CUST_TABLES_WAFER_NUM )
1881:.\Generated_Source\PSoC4/CyLib.c **** 
1882:.\Generated_Source\PSoC4/CyLib.c ****     uniqueId[1u]  =  (uint32) CY_GET_XTND_REG8((void CYFAR *) (CYREG_FLSHID_CUST_TABLES_X_LOC     )
1883:.\Generated_Source\PSoC4/CyLib.c ****     uniqueId[1u] |= ((uint32) CY_GET_XTND_REG8((void CYFAR *) (CYREG_FLSHID_CUST_TABLES_Y_LOC     )
1884:.\Generated_Source\PSoC4/CyLib.c ****     uniqueId[1u] |= ((uint32) CY_GET_XTND_REG8((void CYFAR *) (CYREG_FLSHID_CUST_TABLES_WRK_WK    )
1885:.\Generated_Source\PSoC4/CyLib.c ****     uniqueId[1u] |= ((uint32) CY_GET_XTND_REG8((void CYFAR *) (CYREG_FLSHID_CUST_TABLES_FAB_YR    )
1886:.\Generated_Source\PSoC4/CyLib.c **** #endif  /* (CY_PSOC4) */
1887:.\Generated_Source\PSoC4/CyLib.c **** }
 1934              		.loc 1 1887 0
 1935              		@ sp needed
 1936 004c 7047     		bx	lr
 1937              	.L167:
 1938 004e C046     		.align	2
 1939              	.L166:
 1940 0050 78F1FF0F 		.word	268431736
 1941 0054 79F1FF0F 		.word	268431737
 1942 0058 7AF1FF0F 		.word	268431738
 1943 005c 7BF1FF0F 		.word	268431739
 1944 0060 7CF1FF0F 		.word	268431740
 1945 0064 7DF1FF0F 		.word	268431741
 1946 0068 7EF1FF0F 		.word	268431742
 1947 006c 7FF1FF0F 		.word	268431743
 1948              		.cfi_endproc
 1949              	.LFE47:
 1950              		.size	CyGetUniqueId, .-CyGetUniqueId
 1951              		.global	cyImoFreqMhz2Reg
 1952              		.global	CySysTickInitVar
 1953              		.global	cydelay32kMs
 1954              		.global	cydelayFreqMhz
 1955              		.global	cydelayFreqKhz
 1956              		.global	cydelayFreqHz
ARM GAS  C:\Users\11401393\AppData\Local\Temp\cctINdqa.s 			page 71


 1957              		.section	.rodata
 1958              		.align	2
 1959              		.set	.LANCHOR1,. + 0
 1960              		.type	cyImoFreqMhz2Reg, %object
 1961              		.size	cyImoFreqMhz2Reg, 46
 1962              	cyImoFreqMhz2Reg:
 1963 0000 03       		.byte	3
 1964 0001 04       		.byte	4
 1965 0002 05       		.byte	5
 1966 0003 06       		.byte	6
 1967 0004 07       		.byte	7
 1968 0005 08       		.byte	8
 1969 0006 09       		.byte	9
 1970 0007 0A       		.byte	10
 1971 0008 0B       		.byte	11
 1972 0009 0C       		.byte	12
 1973 000a 0E       		.byte	14
 1974 000b 0F       		.byte	15
 1975 000c 10       		.byte	16
 1976 000d 11       		.byte	17
 1977 000e 12       		.byte	18
 1978 000f 13       		.byte	19
 1979 0010 14       		.byte	20
 1980 0011 15       		.byte	21
 1981 0012 16       		.byte	22
 1982 0013 17       		.byte	23
 1983 0014 18       		.byte	24
 1984 0015 19       		.byte	25
 1985 0016 1B       		.byte	27
 1986 0017 1C       		.byte	28
 1987 0018 1D       		.byte	29
 1988 0019 1E       		.byte	30
 1989 001a 1F       		.byte	31
 1990 001b 20       		.byte	32
 1991 001c 21       		.byte	33
 1992 001d 22       		.byte	34
 1993 001e 23       		.byte	35
 1994 001f 25       		.byte	37
 1995 0020 26       		.byte	38
 1996 0021 27       		.byte	39
 1997 0022 28       		.byte	40
 1998 0023 29       		.byte	41
 1999 0024 2A       		.byte	42
 2000 0025 2B       		.byte	43
 2001 0026 2E       		.byte	46
 2002 0027 2F       		.byte	47
 2003 0028 30       		.byte	48
 2004 0029 31       		.byte	49
 2005 002a 32       		.byte	50
 2006 002b 33       		.byte	51
 2007 002c 34       		.byte	52
 2008 002d 35       		.byte	53
 2009 002e 0000     		.data
 2010              		.align	2
 2011              		.set	.LANCHOR0,. + 0
 2012              		.type	cydelay32kMs, %object
 2013              		.size	cydelay32kMs, 4
ARM GAS  C:\Users\11401393\AppData\Local\Temp\cctINdqa.s 			page 72


 2014              	cydelay32kMs:
 2015 0000 0000C05D 		.word	1572864000
 2016              		.type	cydelayFreqKhz, %object
 2017              		.size	cydelayFreqKhz, 4
 2018              	cydelayFreqKhz:
 2019 0004 80BB0000 		.word	48000
 2020              		.type	cydelayFreqMhz, %object
 2021              		.size	cydelayFreqMhz, 1
 2022              	cydelayFreqMhz:
 2023 0008 30       		.byte	48
 2024 0009 000000   		.space	3
 2025              		.type	cydelayFreqHz, %object
 2026              		.size	cydelayFreqHz, 4
 2027              	cydelayFreqHz:
 2028 000c 006CDC02 		.word	48000000
 2029              		.bss
 2030              		.align	2
 2031              		.set	.LANCHOR2,. + 0
 2032              		.type	CySysTickCallbacks, %object
 2033              		.size	CySysTickCallbacks, 20
 2034              	CySysTickCallbacks:
 2035 0000 00000000 		.space	20
 2035      00000000 
 2035      00000000 
 2035      00000000 
 2035      00000000 
 2036              		.type	CySysTickInitVar, %object
 2037              		.size	CySysTickInitVar, 4
 2038              	CySysTickInitVar:
 2039 0014 00000000 		.space	4
 2040              		.text
 2041              	.Letext0:
 2042              		.file 2 ".\\Generated_Source\\PSoC4\\cytypes.h"
 2043              		.file 3 ".\\Generated_Source\\PSoC4\\CyLib.h"
 2044              		.file 4 ".\\Generated_Source\\PSoC4\\CyLFClk.h"
 2045              		.file 5 ".\\Generated_Source\\PSoC4\\CyFlash.h"