ARM GAS  C:\Users\11401393\AppData\Local\Temp\ccxdYUzb.s 			page 1


   1              		.cpu cortex-m0
   2              		.fpu softvfp
   3              		.eabi_attribute 20, 1
   4              		.eabi_attribute 21, 1
   5              		.eabi_attribute 23, 3
   6              		.eabi_attribute 24, 1
   7              		.eabi_attribute 25, 1
   8              		.eabi_attribute 26, 1
   9              		.eabi_attribute 30, 1
  10              		.eabi_attribute 34, 0
  11              		.eabi_attribute 18, 4
  12              		.code	16
  13              		.file	"main.c"
  14              		.text
  15              	.Ltext0:
  16              		.cfi_sections	.debug_frame
  17              		.section	.text.main,"ax",%progbits
  18              		.align	2
  19              		.global	main
  20              		.code	16
  21              		.thumb_func
  22              		.type	main, %function
  23              	main:
  24              	.LFB34:
  25              		.file 1 ".\\main.c"
   1:.\main.c      **** /* ========================================
   2:.\main.c      ****  *
   3:.\main.c      ****  * Copyright LumiNova, 2015
   4:.\main.c      ****  * All Rights Reserved
   5:.\main.c      ****  * UNPUBLISHED, LICENSED SOFTWARE.
   6:.\main.c      ****  *
   7:.\main.c      ****  * proximity sensing desklight
   8:.\main.c      ****  *
   9:.\main.c      ****  * ========================================
  10:.\main.c      **** */
  11:.\main.c      **** #include <project.h>
  12:.\main.c      **** #include <stdlib.h>
  13:.\main.c      **** #include <stdio.h>
  14:.\main.c      **** 
  15:.\main.c      **** int main()
  16:.\main.c      **** {   
  26              		.loc 1 16 0
  27              		.cfi_startproc
  28 0000 F0B5     		push	{r4, r5, r6, r7, lr}
  29              		.cfi_def_cfa_offset 20
  30              		.cfi_offset 4, -20
  31              		.cfi_offset 5, -16
  32              		.cfi_offset 6, -12
  33              		.cfi_offset 7, -8
  34              		.cfi_offset 14, -4
  35 0002 4746     		mov	r7, r8
  36 0004 80B4     		push	{r7}
  37              		.cfi_def_cfa_offset 24
  38              		.cfi_offset 8, -24
  39 0006 82B0     		sub	sp, sp, #8
  40              		.cfi_def_cfa_offset 32
  41              	.LVL0:
ARM GAS  C:\Users\11401393\AppData\Local\Temp\ccxdYUzb.s 			page 2


  17:.\main.c      ****     uint8 i2cbuf[6];
  18:.\main.c      ****     uint8 pin1 = 0, pin2 = 0,prev_pin1 = 0, prev_pin2 = 0;
  19:.\main.c      ****     
  20:.\main.c      ****     CyGlobalIntEnable;
  42              		.loc 1 20 0
  43              	@ 20 ".\main.c" 1
  44 0008 62B6     		CPSIE   i
  45              	@ 0 "" 2
  21:.\main.c      ****     
  22:.\main.c      ****     //I2C
  23:.\main.c      ****     I2C_Start();
  46              		.loc 1 23 0
  47              		.code	16
  48 000a FFF7FEFF 		bl	I2C_Start
  49              	.LVL1:
  24:.\main.c      ****     I2C_EzI2CSetBuffer1(6, 1, i2cbuf);    
  50              		.loc 1 24 0
  51 000e 0620     		mov	r0, #6
  52 0010 0121     		mov	r1, #1
  53 0012 6A46     		mov	r2, sp
  54 0014 FFF7FEFF 		bl	I2C_EzI2CSetBuffer1
  55              	.LVL2:
  25:.\main.c      ****     
  26:.\main.c      ****     // capsense enable
  27:.\main.c      ****     CapSense_Start();
  56              		.loc 1 27 0
  57 0018 FFF7FEFF 		bl	CapSense_Start
  58              	.LVL3:
  28:.\main.c      ****     CapSense_EnableSensor(CapSense_SENSOR_BUTTON1__BTN);
  59              		.loc 1 28 0
  60 001c 0020     		mov	r0, #0
  61 001e FFF7FEFF 		bl	CapSense_EnableSensor
  62              	.LVL4:
  29:.\main.c      ****     CapSense_EnableSensor(CapSense_SENSOR_BUTTON2__BTN);
  63              		.loc 1 29 0
  64 0022 0120     		mov	r0, #1
  65 0024 FFF7FEFF 		bl	CapSense_EnableSensor
  66              	.LVL5:
  30:.\main.c      ****     CapSense_EnableSensor(CapSense_SENSOR_BUTTON3__BTN);
  67              		.loc 1 30 0
  68 0028 0220     		mov	r0, #2
  69 002a FFF7FEFF 		bl	CapSense_EnableSensor
  70              	.LVL6:
  31:.\main.c      ****     CapSense_EnableSensor(CapSense_SENSOR_BUTTON4__BTN);
  71              		.loc 1 31 0
  72 002e 0320     		mov	r0, #3
  73 0030 FFF7FEFF 		bl	CapSense_EnableSensor
  74              	.LVL7:
  32:.\main.c      ****     CapSense_EnableSensor(CapSense_SENSOR_BUTTON5__BTN);
  75              		.loc 1 32 0
  76 0034 0420     		mov	r0, #4
  77 0036 FFF7FEFF 		bl	CapSense_EnableSensor
  78              	.LVL8:
  33:.\main.c      ****     CapSense_EnableSensor(CapSense_SENSOR_BUTTON6__BTN);
  79              		.loc 1 33 0
  80 003a 0520     		mov	r0, #5
  81 003c FFF7FEFF 		bl	CapSense_EnableSensor
ARM GAS  C:\Users\11401393\AppData\Local\Temp\ccxdYUzb.s 			page 3


  82              	.LVL9:
  34:.\main.c      ****     CapSense_EnableSensor(CapSense_SENSOR_BUTTON7__BTN);
  83              		.loc 1 34 0
  84 0040 0620     		mov	r0, #6
  85 0042 FFF7FEFF 		bl	CapSense_EnableSensor
  86              	.LVL10:
  35:.\main.c      ****     CapSense_EnableSensor(CapSense_SENSOR_BUTTON8__BTN);
  87              		.loc 1 35 0
  88 0046 0720     		mov	r0, #7
  89 0048 FFF7FEFF 		bl	CapSense_EnableSensor
  90              	.LVL11:
  36:.\main.c      ****     CapSense_EnableSensor(CapSense_SENSOR_BUTTON9__BTN);
  91              		.loc 1 36 0
  92 004c 0820     		mov	r0, #8
  93 004e FFF7FEFF 		bl	CapSense_EnableSensor
  94              	.LVL12:
  37:.\main.c      ****     CapSense_EnableSensor(CapSense_SENSOR_BUTTON10__BTN);
  95              		.loc 1 37 0
  96 0052 0920     		mov	r0, #9
  97 0054 FFF7FEFF 		bl	CapSense_EnableSensor
  98              	.LVL13:
  38:.\main.c      ****     CapSense_EnableSensor(CapSense_SENSOR_BUTTON11__BTN);
  99              		.loc 1 38 0
 100 0058 0A20     		mov	r0, #10
 101 005a FFF7FEFF 		bl	CapSense_EnableSensor
 102              	.LVL14:
  39:.\main.c      ****     CapSense_EnableSensor(CapSense_SENSOR_BUTTON12__BTN);
 103              		.loc 1 39 0
 104 005e 0B20     		mov	r0, #11
 105 0060 FFF7FEFF 		bl	CapSense_EnableSensor
 106              	.LVL15:
  40:.\main.c      ****     CapSense_InitializeAllBaselines();
 107              		.loc 1 40 0
 108 0064 FFF7FEFF 		bl	CapSense_InitializeAllBaselines
 109              	.LVL16:
  41:.\main.c      ****     CapSense_ScanEnabledWidgets();
 110              		.loc 1 41 0
 111 0068 FFF7FEFF 		bl	CapSense_ScanEnabledWidgets
 112              	.LVL17:
  42:.\main.c      ****     
  43:.\main.c      ****     //Quadrature decoders
  44:.\main.c      ****     QuadD1_Start();
 113              		.loc 1 44 0
 114 006c FFF7FEFF 		bl	QuadD1_Start
 115              	.LVL18:
  45:.\main.c      ****     QuadD1_TriggerCommand(QuadD1_MASK, QuadD1_CMD_RELOAD);
 116              		.loc 1 45 0
 117 0070 0220     		mov	r0, #2
 118 0072 0821     		mov	r1, #8
 119 0074 FFF7FEFF 		bl	QuadD1_TriggerCommand
 120              	.LVL19:
  46:.\main.c      ****     QuadD2_Start();
 121              		.loc 1 46 0
 122 0078 FFF7FEFF 		bl	QuadD2_Start
 123              	.LVL20:
  47:.\main.c      ****     QuadD2_TriggerCommand(QuadD2_MASK, QuadD2_CMD_RELOAD);
 124              		.loc 1 47 0
ARM GAS  C:\Users\11401393\AppData\Local\Temp\ccxdYUzb.s 			page 4


 125 007c 0420     		mov	r0, #4
 126 007e 0821     		mov	r1, #8
 127 0080 FFF7FEFF 		bl	QuadD2_TriggerCommand
 128              	.LVL21:
  48:.\main.c      ****     QuadD3_Start();
 129              		.loc 1 48 0
 130 0084 FFF7FEFF 		bl	QuadD3_Start
 131              	.LVL22:
  49:.\main.c      ****     QuadD3_TriggerCommand(QuadD3_MASK, QuadD3_CMD_RELOAD);
 132              		.loc 1 49 0
 133 0088 0120     		mov	r0, #1
 134 008a 0821     		mov	r1, #8
 135 008c FFF7FEFF 		bl	QuadD3_TriggerCommand
 136              	.LVL23:
  50:.\main.c      ****     QuadD4_Start();
 137              		.loc 1 50 0
 138 0090 FFF7FEFF 		bl	QuadD4_Start
 139              	.LVL24:
  51:.\main.c      ****     QuadD4_TriggerCommand(QuadD4_MASK, QuadD4_CMD_RELOAD);
 140              		.loc 1 51 0
 141 0094 0820     		mov	r0, #8
 142 0096 0821     		mov	r1, #8
 143 0098 FFF7FEFF 		bl	QuadD4_TriggerCommand
 144              	.LVL25:
  18:.\main.c      ****     uint8 pin1 = 0, pin2 = 0,prev_pin1 = 0, prev_pin2 = 0;
 145              		.loc 1 18 0
 146 009c 0027     		mov	r7, #0
 147 009e B846     		mov	r8, r7
 148              	.LVL26:
 149              	.L11:
  52:.\main.c      ****     
  53:.\main.c      ****     
  54:.\main.c      ****     
  55:.\main.c      ****     
  56:.\main.c      ****     for(;;)
  57:.\main.c      ****     {
  58:.\main.c      **** 
  59:.\main.c      ****         if(!CapSense_IsBusy()){
 150              		.loc 1 59 0
 151 00a0 FFF7FEFF 		bl	CapSense_IsBusy
 152              	.LVL27:
 153 00a4 0028     		cmp	r0, #0
 154 00a6 49D1     		bne	.L2
  60:.\main.c      ****             
  61:.\main.c      ****             i2cbuf[0] = (CapSense_CheckIsSensorActive(CapSense_SENSOR_BUTTON1__BTN)<<7) +  
 155              		.loc 1 61 0
 156 00a8 FFF7FEFF 		bl	CapSense_CheckIsSensorActive
 157              	.LVL28:
 158 00ac 041C     		mov	r4, r0
  62:.\main.c      ****                         (CapSense_CheckIsSensorActive(CapSense_SENSOR_BUTTON2__BTN)<<6) +
 159              		.loc 1 62 0
 160 00ae 0120     		mov	r0, #1
 161 00b0 FFF7FEFF 		bl	CapSense_CheckIsSensorActive
 162              	.LVL29:
  61:.\main.c      ****             i2cbuf[0] = (CapSense_CheckIsSensorActive(CapSense_SENSOR_BUTTON1__BTN)<<7) +  
 163              		.loc 1 61 0
 164 00b4 E401     		lsl	r4, r4, #7
ARM GAS  C:\Users\11401393\AppData\Local\Temp\ccxdYUzb.s 			page 5


 165 00b6 8001     		lsl	r0, r0, #6
 166 00b8 2518     		add	r5, r4, r0
 167 00ba EDB2     		uxtb	r5, r5
  63:.\main.c      ****                         (CapSense_CheckIsSensorActive(CapSense_SENSOR_BUTTON3__BTN)<<5) +
 168              		.loc 1 63 0
 169 00bc 0220     		mov	r0, #2
 170 00be FFF7FEFF 		bl	CapSense_CheckIsSensorActive
 171              	.LVL30:
  61:.\main.c      ****             i2cbuf[0] = (CapSense_CheckIsSensorActive(CapSense_SENSOR_BUTTON1__BTN)<<7) +  
 172              		.loc 1 61 0
 173 00c2 4401     		lsl	r4, r0, #5
 174 00c4 2C19     		add	r4, r5, r4
 175 00c6 E4B2     		uxtb	r4, r4
  64:.\main.c      ****                         (CapSense_CheckIsSensorActive(CapSense_SENSOR_BUTTON4__BTN)<<4) +
 176              		.loc 1 64 0
 177 00c8 0320     		mov	r0, #3
 178 00ca FFF7FEFF 		bl	CapSense_CheckIsSensorActive
 179              	.LVL31:
  61:.\main.c      ****             i2cbuf[0] = (CapSense_CheckIsSensorActive(CapSense_SENSOR_BUTTON1__BTN)<<7) +  
 180              		.loc 1 61 0
 181 00ce 0501     		lsl	r5, r0, #4
 182 00d0 6419     		add	r4, r4, r5
 183 00d2 E5B2     		uxtb	r5, r4
  65:.\main.c      ****                         (CapSense_CheckIsSensorActive(CapSense_SENSOR_BUTTON5__BTN)<<3) +
 184              		.loc 1 65 0
 185 00d4 0420     		mov	r0, #4
 186 00d6 FFF7FEFF 		bl	CapSense_CheckIsSensorActive
 187              	.LVL32:
  61:.\main.c      ****             i2cbuf[0] = (CapSense_CheckIsSensorActive(CapSense_SENSOR_BUTTON1__BTN)<<7) +  
 188              		.loc 1 61 0
 189 00da C400     		lsl	r4, r0, #3
 190 00dc 2C19     		add	r4, r5, r4
 191 00de E4B2     		uxtb	r4, r4
  66:.\main.c      ****                         (CapSense_CheckIsSensorActive(CapSense_SENSOR_BUTTON6__BTN)<<2) +
 192              		.loc 1 66 0
 193 00e0 0520     		mov	r0, #5
 194 00e2 FFF7FEFF 		bl	CapSense_CheckIsSensorActive
 195              	.LVL33:
  61:.\main.c      ****             i2cbuf[0] = (CapSense_CheckIsSensorActive(CapSense_SENSOR_BUTTON1__BTN)<<7) +  
 196              		.loc 1 61 0
 197 00e6 8500     		lsl	r5, r0, #2
 198 00e8 6419     		add	r4, r4, r5
 199 00ea E5B2     		uxtb	r5, r4
  67:.\main.c      ****                         (CapSense_CheckIsSensorActive(CapSense_SENSOR_BUTTON7__BTN)<<1) +
 200              		.loc 1 67 0
 201 00ec 0620     		mov	r0, #6
 202 00ee FFF7FEFF 		bl	CapSense_CheckIsSensorActive
 203              	.LVL34:
  61:.\main.c      ****             i2cbuf[0] = (CapSense_CheckIsSensorActive(CapSense_SENSOR_BUTTON1__BTN)<<7) +  
 204              		.loc 1 61 0
 205 00f2 4400     		lsl	r4, r0, #1
 206 00f4 2C19     		add	r4, r5, r4
 207 00f6 E4B2     		uxtb	r4, r4
  68:.\main.c      ****                         (CapSense_CheckIsSensorActive(CapSense_SENSOR_BUTTON8__BTN)<<0);
 208              		.loc 1 68 0
 209 00f8 0720     		mov	r0, #7
 210 00fa FFF7FEFF 		bl	CapSense_CheckIsSensorActive
ARM GAS  C:\Users\11401393\AppData\Local\Temp\ccxdYUzb.s 			page 6


 211              	.LVL35:
  61:.\main.c      ****             i2cbuf[0] = (CapSense_CheckIsSensorActive(CapSense_SENSOR_BUTTON1__BTN)<<7) +  
 212              		.loc 1 61 0
 213 00fe 2418     		add	r4, r4, r0
 214 0100 6B46     		mov	r3, sp
 215 0102 1C70     		strb	r4, [r3]
  69:.\main.c      ****             
  70:.\main.c      ****             i2cbuf[1] = (CapSense_CheckIsSensorActive(CapSense_SENSOR_BUTTON9__BTN)<<7) +
 216              		.loc 1 70 0
 217 0104 0820     		mov	r0, #8
 218 0106 FFF7FEFF 		bl	CapSense_CheckIsSensorActive
 219              	.LVL36:
 220 010a 041C     		mov	r4, r0
  71:.\main.c      ****                         (CapSense_CheckIsSensorActive(CapSense_SENSOR_BUTTON10__BTN)<<6) +
 221              		.loc 1 71 0
 222 010c 0920     		mov	r0, #9
 223 010e FFF7FEFF 		bl	CapSense_CheckIsSensorActive
 224              	.LVL37:
  70:.\main.c      ****             i2cbuf[1] = (CapSense_CheckIsSensorActive(CapSense_SENSOR_BUTTON9__BTN)<<7) +
 225              		.loc 1 70 0
 226 0112 E401     		lsl	r4, r4, #7
 227 0114 8001     		lsl	r0, r0, #6
 228 0116 2518     		add	r5, r4, r0
 229 0118 EDB2     		uxtb	r5, r5
  72:.\main.c      ****                         (CapSense_CheckIsSensorActive(CapSense_SENSOR_BUTTON11__BTN)<<5) +
 230              		.loc 1 72 0
 231 011a 0A20     		mov	r0, #10
 232 011c FFF7FEFF 		bl	CapSense_CheckIsSensorActive
 233              	.LVL38:
  70:.\main.c      ****             i2cbuf[1] = (CapSense_CheckIsSensorActive(CapSense_SENSOR_BUTTON9__BTN)<<7) +
 234              		.loc 1 70 0
 235 0120 4401     		lsl	r4, r0, #5
 236 0122 2C19     		add	r4, r5, r4
 237 0124 E4B2     		uxtb	r4, r4
  73:.\main.c      ****                         (CapSense_CheckIsSensorActive(CapSense_SENSOR_BUTTON12__BTN)<<4);
 238              		.loc 1 73 0
 239 0126 0B20     		mov	r0, #11
 240 0128 FFF7FEFF 		bl	CapSense_CheckIsSensorActive
 241              	.LVL39:
  70:.\main.c      ****             i2cbuf[1] = (CapSense_CheckIsSensorActive(CapSense_SENSOR_BUTTON9__BTN)<<7) +
 242              		.loc 1 70 0
 243 012c 0001     		lsl	r0, r0, #4
 244 012e 2418     		add	r4, r4, r0
 245 0130 6A46     		mov	r2, sp
 246 0132 5470     		strb	r4, [r2, #1]
  74:.\main.c      **** 
  75:.\main.c      ****             CapSense_UpdateEnabledBaselines();
 247              		.loc 1 75 0
 248 0134 FFF7FEFF 		bl	CapSense_UpdateEnabledBaselines
 249              	.LVL40:
  76:.\main.c      ****             CapSense_ScanEnabledWidgets();
 250              		.loc 1 76 0
 251 0138 FFF7FEFF 		bl	CapSense_ScanEnabledWidgets
 252              	.LVL41:
 253              	.L2:
  77:.\main.c      ****         }
  78:.\main.c      ****         prev_pin1 = pin1;
ARM GAS  C:\Users\11401393\AppData\Local\Temp\ccxdYUzb.s 			page 7


  79:.\main.c      ****         prev_pin2 = pin2;
  80:.\main.c      ****         pin1 = Pin_1_Read();
 254              		.loc 1 80 0
 255 013c FFF7FEFF 		bl	Pin_1_Read
 256              	.LVL42:
 257 0140 051C     		mov	r5, r0
 258 0142 041C     		mov	r4, r0
 259              	.LVL43:
  81:.\main.c      ****         pin2 = Pin_2_Read();
 260              		.loc 1 81 0
 261 0144 FFF7FEFF 		bl	Pin_2_Read
 262              	.LVL44:
 263 0148 061C     		mov	r6, r0
 264 014a 031C     		mov	r3, r0
 265              	.LVL45:
  82:.\main.c      ****         if(pin1 == 1 && prev_pin1 == 0){
 266              		.loc 1 82 0
 267 014c 012D     		cmp	r5, #1
 268 014e 10D1     		bne	.L3
 269              		.loc 1 82 0 is_stmt 0 discriminator 1
 270 0150 4246     		mov	r2, r8
 271 0152 002A     		cmp	r2, #0
 272 0154 0DD1     		bne	.L3
 273              	.LVL46:
  83:.\main.c      ****             if(pin2 == 0){
 274              		.loc 1 83 0 is_stmt 1
 275 0156 0028     		cmp	r0, #0
 276 0158 04D1     		bne	.L4
  84:.\main.c      ****                 i2cbuf[2] = i2cbuf[2] + 1;
 277              		.loc 1 84 0
 278 015a 6A46     		mov	r2, sp
 279              	.LVL47:
 280 015c 9378     		ldrb	r3, [r2, #2]
 281 015e 0133     		add	r3, r3, #1
 282 0160 9370     		strb	r3, [r2, #2]
 283 0162 3BE0     		b	.L5
 284              	.LVL48:
 285              	.L4:
  85:.\main.c      ****             }
  86:.\main.c      ****             else if(pin2 == 1){
 286              		.loc 1 86 0
 287 0164 0128     		cmp	r0, #1
 288 0166 39D1     		bne	.L5
  87:.\main.c      ****                 i2cbuf[2] = i2cbuf[2] - 1;
 289              		.loc 1 87 0
 290 0168 6A46     		mov	r2, sp
 291              	.LVL49:
 292 016a 9378     		ldrb	r3, [r2, #2]
 293 016c 013B     		sub	r3, r3, #1
 294 016e 9370     		strb	r3, [r2, #2]
 295 0170 34E0     		b	.L5
 296              	.L3:
  88:.\main.c      ****             }
  89:.\main.c      ****         }
  90:.\main.c      ****         else if(pin2 == 1 && prev_pin2 == 0){
 297              		.loc 1 90 0
 298 0172 012B     		cmp	r3, #1
ARM GAS  C:\Users\11401393\AppData\Local\Temp\ccxdYUzb.s 			page 8


 299 0174 0FD1     		bne	.L6
 300              		.loc 1 90 0 is_stmt 0 discriminator 1
 301 0176 002F     		cmp	r7, #0
 302 0178 0DD1     		bne	.L6
  91:.\main.c      ****             if(pin1 == 1){
 303              		.loc 1 91 0 is_stmt 1
 304 017a 012C     		cmp	r4, #1
 305 017c 04D1     		bne	.L7
  92:.\main.c      ****                 i2cbuf[2] = i2cbuf[2] + 1;
 306              		.loc 1 92 0
 307 017e 6A46     		mov	r2, sp
 308 0180 9378     		ldrb	r3, [r2, #2]
 309 0182 0133     		add	r3, r3, #1
 310 0184 9370     		strb	r3, [r2, #2]
 311 0186 29E0     		b	.L5
 312              	.L7:
  93:.\main.c      ****             }
  94:.\main.c      ****             else if(pin1 == 0){
 313              		.loc 1 94 0
 314 0188 002C     		cmp	r4, #0
 315 018a 27D1     		bne	.L5
  95:.\main.c      ****                 i2cbuf[2] = i2cbuf[2] - 1;
 316              		.loc 1 95 0
 317 018c 6A46     		mov	r2, sp
 318 018e 9378     		ldrb	r3, [r2, #2]
 319 0190 013B     		sub	r3, r3, #1
 320 0192 9370     		strb	r3, [r2, #2]
 321 0194 22E0     		b	.L5
 322              	.L6:
  96:.\main.c      ****             } 
  97:.\main.c      ****         }
  98:.\main.c      ****         else if(pin1 == 0 && prev_pin2 == 1){
 323              		.loc 1 98 0
 324 0196 002C     		cmp	r4, #0
 325 0198 0FD1     		bne	.L8
 326              		.loc 1 98 0 is_stmt 0 discriminator 1
 327 019a 012F     		cmp	r7, #1
 328 019c 0DD1     		bne	.L8
  99:.\main.c      ****             if(pin2 == 1){
 329              		.loc 1 99 0 is_stmt 1
 330 019e 012B     		cmp	r3, #1
 331 01a0 04D1     		bne	.L9
 100:.\main.c      ****                 i2cbuf[2] = i2cbuf[2] + 1;
 332              		.loc 1 100 0
 333 01a2 6A46     		mov	r2, sp
 334 01a4 9378     		ldrb	r3, [r2, #2]
 335 01a6 0133     		add	r3, r3, #1
 336 01a8 9370     		strb	r3, [r2, #2]
 337 01aa 17E0     		b	.L5
 338              	.L9:
 101:.\main.c      ****             }
 102:.\main.c      ****             else if(pin2 == 0){
 339              		.loc 1 102 0
 340 01ac 002B     		cmp	r3, #0
 341 01ae 15D1     		bne	.L5
 103:.\main.c      ****                 i2cbuf[2] = i2cbuf[2] - 1;
 342              		.loc 1 103 0
ARM GAS  C:\Users\11401393\AppData\Local\Temp\ccxdYUzb.s 			page 9


 343 01b0 6A46     		mov	r2, sp
 344 01b2 9378     		ldrb	r3, [r2, #2]
 345 01b4 013B     		sub	r3, r3, #1
 346 01b6 9370     		strb	r3, [r2, #2]
 347 01b8 10E0     		b	.L5
 348              	.L8:
 104:.\main.c      ****             } 
 105:.\main.c      ****         }
 106:.\main.c      ****         else if(pin2 == 0 && prev_pin2 == 1){
 349              		.loc 1 106 0
 350 01ba 002B     		cmp	r3, #0
 351 01bc 0ED1     		bne	.L5
 352              		.loc 1 106 0 is_stmt 0 discriminator 1
 353 01be 012F     		cmp	r7, #1
 354 01c0 0CD1     		bne	.L5
 107:.\main.c      ****             if(pin1 == 0){
 355              		.loc 1 107 0 is_stmt 1
 356 01c2 002C     		cmp	r4, #0
 357 01c4 04D1     		bne	.L10
 108:.\main.c      ****                 i2cbuf[2] = i2cbuf[2] + 1;
 358              		.loc 1 108 0
 359 01c6 6A46     		mov	r2, sp
 360 01c8 9378     		ldrb	r3, [r2, #2]
 361 01ca 0133     		add	r3, r3, #1
 362 01cc 9370     		strb	r3, [r2, #2]
 363 01ce 05E0     		b	.L5
 364              	.L10:
 109:.\main.c      ****             }
 110:.\main.c      ****             else if(pin1 == 1){
 365              		.loc 1 110 0
 366 01d0 012C     		cmp	r4, #1
 367 01d2 03D1     		bne	.L5
 111:.\main.c      ****                 i2cbuf[2] = i2cbuf[2] - 1;
 368              		.loc 1 111 0
 369 01d4 6A46     		mov	r2, sp
 370 01d6 9378     		ldrb	r3, [r2, #2]
 371 01d8 013B     		sub	r3, r3, #1
 372 01da 9370     		strb	r3, [r2, #2]
 373              	.L5:
 112:.\main.c      ****             }
 113:.\main.c      ****         }
 114:.\main.c      ****         else{
 115:.\main.c      ****             i2cbuf[2] = i2cbuf[2];
 116:.\main.c      ****         }
 117:.\main.c      **** 
 118:.\main.c      ****         //i2cbuf[2] = QuadD1_ReadCounter();
 119:.\main.c      ****         /*if( pos_enc1 != prev_pos_enc1){
 120:.\main.c      ****             prev_pos_enc1 = pos_enc1;
 121:.\main.c      ****             sprintf(buffer,"%d", position);
 122:.\main.c      ****             UART_1_UartPutString(buffer);
 123:.\main.c      ****             UART_1_UartPutString("\r\n");
 124:.\main.c      ****         }*/        
 125:.\main.c      ****         i2cbuf[3] = QuadD2_ReadCounter();
 374              		.loc 1 125 0
 375 01dc FFF7FEFF 		bl	QuadD2_ReadCounter
 376              	.LVL50:
 377 01e0 6B46     		mov	r3, sp
ARM GAS  C:\Users\11401393\AppData\Local\Temp\ccxdYUzb.s 			page 10


 378 01e2 D870     		strb	r0, [r3, #3]
 126:.\main.c      ****         i2cbuf[4] = QuadD3_ReadCounter(); 
 379              		.loc 1 126 0
 380 01e4 FFF7FEFF 		bl	QuadD3_ReadCounter
 381              	.LVL51:
 382 01e8 6A46     		mov	r2, sp
 383 01ea 1071     		strb	r0, [r2, #4]
 127:.\main.c      ****         i2cbuf[5] = QuadD4_ReadCounter();
 384              		.loc 1 127 0
 385 01ec FFF7FEFF 		bl	QuadD4_ReadCounter
 386              	.LVL52:
 387 01f0 6B46     		mov	r3, sp
 388 01f2 5871     		strb	r0, [r3, #5]
  81:.\main.c      ****         pin2 = Pin_2_Read();
 389              		.loc 1 81 0
 390 01f4 371C     		mov	r7, r6
 391              	.LVL53:
  80:.\main.c      ****         pin1 = Pin_1_Read();
 392              		.loc 1 80 0
 393 01f6 A846     		mov	r8, r5
 394              	.LVL54:
 128:.\main.c      ****     }
 395              		.loc 1 128 0
 396 01f8 52E7     		b	.L11
 397              		.cfi_endproc
 398              	.LFE34:
 399              		.size	main, .-main
 400 01fa C046     		.text
 401              	.Letext0:
 402              		.file 2 "Generated_Source\\PSoC4/cytypes.h"
 403              		.file 3 "Generated_Source\\PSoC4/I2C.h"
 404              		.file 4 "Generated_Source\\PSoC4/CapSense.h"
 405              		.file 5 "Generated_Source\\PSoC4/I2C_EZI2C.h"
 406              		.file 6 "Generated_Source\\PSoC4/CapSense_PVT.h"
 407              		.file 7 "Generated_Source\\PSoC4/CapSense_CSHL.h"
 408              		.file 8 "Generated_Source\\PSoC4/QuadD1.h"
 409              		.file 9 "Generated_Source\\PSoC4/QuadD2.h"
 410              		.file 10 "Generated_Source\\PSoC4/QuadD3.h"
 411              		.file 11 "Generated_Source\\PSoC4/QuadD4.h"
 412              		.file 12 "Generated_Source\\PSoC4/Pin_1.h"
 413              		.file 13 "Generated_Source\\PSoC4/Pin_2.h"