; ModuleID = 'C:/Users/11401393/Desktop/NCO_audio_output/IP_Vivado_HLS/NCO_key2/solution1/.autopilot/db/a.g.bc'
target datalayout = "e-p:32:32:32-i1:8:8-i8:8:8-i16:16:16-i32:32:32-i64:64:64-f32:32:32-f64:64:64-f80:128:128-v64:64:64-v128:128:128-a0:0:64-f80:32:32-n8:16:32-S32"
target triple = "i686-pc-mingw32"

%"class.std::ios_base::Init" = type {}
%struct.ap_uint = type { %struct.ap_int_base }
%struct.ap_int_base = type { %struct.ssdm_int }
%struct.ssdm_int = type { i32 }
%struct.ap_uint.0 = type { %struct.ap_int_base.1 }
%struct.ap_int_base.1 = type { %struct.ssdm_int.2 }
%struct.ssdm_int.2 = type { i13 }
%struct.ap_fixed = type { %struct.ap_fixed_base }
%struct.ap_fixed_base = type { %struct.ssdm_int.3 }
%struct.ssdm_int.3 = type { i24 }
%struct.threadlocaleinfostruct = type { i32, i32, i32, [6 x i32], [6 x %struct.tagLC_ID], [6 x %struct.anon], i32, i32, i32*, i32*, i32*, %struct.lconv*, i32*, i16*, i16*, i8*, i8*, %"class.std::ios_base::Init"* }
%struct.tagLC_ID = type { i16, i16, i16 }
%struct.anon = type { i8*, i16*, i32*, i32* }
%struct.lconv = type { i8*, i8*, i8*, i8*, i8*, i8*, i8*, i8*, i8*, i8*, i8, i8, i8, i8, i8, i8, i8, i8 }
%struct.localeinfo_struct = type { %struct.threadlocaleinfostruct*, %"class.std::ios_base::Init"* }
%struct.__gthread_once_t = type { i32, i32 }
%"class.std::basic_istream" = type { i32 (...)**, i32, %"class.std::basic_ios" }
%"class.std::basic_ios" = type { %"class.std::ios_base", %"class.std::basic_ostream"*, i8, i1, %"class.std::basic_streambuf"*, %"class.std::ctype"*, %"class.std::num_put"*, %"class.std::num_get"* }
%"class.std::ios_base" = type { i32 (...)**, i32, i32, i17, i17, i17, %"struct.std::ios_base::_Callback_list"*, %"struct.std::ios_base::_Words", [8 x %"struct.std::ios_base::_Words"], i32, %"struct.std::ios_base::_Words"*, %"class.std::locale" }
%"struct.std::ios_base::_Callback_list" = type { %"struct.std::ios_base::_Callback_list"*, void (i2, %"class.std::ios_base"*, i32)*, i32, i32 }
%"struct.std::ios_base::_Words" = type { i8*, i32 }
%"class.std::locale" = type { %"class.std::locale::_Impl"* }
%"class.std::locale::_Impl" = type { i32, %"class.std::locale::facet"**, i32, %"class.std::locale::facet"**, i8** }
%"class.std::locale::facet" = type { i32 (...)**, i32 }
%"class.std::basic_ostream" = type { i32 (...)**, %"class.std::basic_ios" }
%"class.std::basic_streambuf" = type { i32 (...)**, i8*, i8*, i8*, i8*, i8*, i8*, %"class.std::locale" }
%"class.std::ctype" = type { %"class.std::locale::facet", i32*, i1, i32*, i32*, i16*, i8, [256 x i8], [256 x i8], i8 }
%"class.std::num_put" = type { %"class.std::locale::facet" }
%"class.std::num_get" = type { %"class.std::locale::facet" }
%"class.std::basic_istream.6" = type { i32 (...)**, i32, %"class.std::basic_ios.8" }
%"class.std::basic_ios.8" = type { %"class.std::ios_base", %"class.std::basic_ostream.9"*, i16, i1, %"class.std::basic_streambuf.10"*, %"class.std::ctype.11"*, %"class.std::num_put.12"*, %"class.std::num_get.13"* }
%"class.std::basic_ostream.9" = type { i32 (...)**, %"class.std::basic_ios.8" }
%"class.std::basic_streambuf.10" = type { i32 (...)**, i16*, i16*, i16*, i16*, i16*, i16*, %"class.std::locale" }
%"class.std::ctype.11" = type { %"class.std::__ctype_abstract_base", i32*, i1, [128 x i8], [256 x i16], [16 x i16], [16 x i16] }
%"class.std::__ctype_abstract_base" = type { %"class.std::locale::facet" }
%"class.std::num_put.12" = type { %"class.std::locale::facet" }
%"class.std::num_get.13" = type { %"class.std::locale::facet" }
%struct.ap_int_base.4 = type { %struct.ssdm_int.5 }
%struct.ssdm_int.5 = type { i33 }
%struct.ap_int_base.15 = type { %struct.ssdm_int.16 }
%struct.ssdm_int.16 = type { i64 }
%struct.ap_int_base.17 = type { %struct.ssdm_int.18 }
%struct.ssdm_int.18 = type { i12 }
%struct.ap_int_base.19 = type { %struct.ssdm_int.20 }
%struct.ssdm_int.20 = type { i11 }
%struct.ap_int_base.23 = type { %struct.ssdm_int.24 }
%struct.ssdm_int.24 = type { i54 }
%struct.ap_int_base.25 = type { %struct.ssdm_int.26 }
%struct.ssdm_int.26 = type { i55 }
%struct.ap_int_base.27 = type { %struct.ssdm_int.28 }
%struct.ssdm_int.28 = type { i1 }

@_ZStL8__ioinit = internal global %"class.std::ios_base::Init" zeroinitializer, align 1 ; [#uses=2 type=%"class.std::ios_base::Init"*]
@accumulator = global %struct.ap_uint zeroinitializer, align 4 ; [#uses=3 type=%struct.ap_uint*]
@phase = global %struct.ap_uint zeroinitializer, align 4 ; [#uses=3 type=%struct.ap_uint*]
@index = global %struct.ap_uint.0 zeroinitializer, align 2 ; [#uses=3 type=%struct.ap_uint.0*]
@_ZL4sine = internal global [8192 x %struct.ap_fixed] zeroinitializer, align 4 ; [#uses=8193 type=[8192 x %struct.ap_fixed]*]
@.str = private unnamed_addr constant [10 x i8] c"s_axilite\00", align 1 ; [#uses=1 type=[10 x i8]*]
@.str5 = private unnamed_addr constant [1 x i8] zeroinitializer, align 1 ; [#uses=1 type=[1 x i8]*]
@.str6 = private unnamed_addr constant [13 x i8] c"ap_ctrl_none\00", align 1 ; [#uses=1 type=[13 x i8]*]
@_ZL21ssdm_global_array_ins = internal global %"class.std::ios_base::Init" zeroinitializer, align 1 ; [#uses=1 type=%"class.std::ios_base::Init"*]
@_ZN9__gnu_cxx24__numeric_traits_integer8__digitsE = external constant i32 ; [#uses=0 type=i32*]
@_ZN9__gnu_cxx25__numeric_traits_floating14__max_digits10E = external constant i32 ; [#uses=0 type=i32*]
@_ZN9__gnu_cxx25__numeric_traits_floating10__digits10E = external constant i32 ; [#uses=0 type=i32*]
@_ZN9__gnu_cxx25__numeric_traits_floating16__max_exponent10E = external constant i32 ; [#uses=0 type=i32*]
@__globallocalestatus = external global i32       ; [#uses=0 type=i32*]
@__locale_changed = external global i32           ; [#uses=0 type=i32*]
@__initiallocinfo = external global %struct.threadlocaleinfostruct ; [#uses=0 type=%struct.threadlocaleinfostruct*]
@__initiallocalestructinfo = external global %struct.localeinfo_struct ; [#uses=0 type=%struct.localeinfo_struct*]
@_imp____mb_cur_max = external global i32*        ; [#uses=0 type=i32**]
@_CRT_MT = external global i32                    ; [#uses=0 type=i32*]
@_ZSt7nothrow = external global %"class.std::ios_base::Init" ; [#uses=0 type=%"class.std::ios_base::Init"*]
@_ZNSt6locale7_S_onceE = external global %struct.__gthread_once_t ; [#uses=0 type=%struct.__gthread_once_t*]
@_ZNSt6locale5facet11_S_c_localeE = external global i32* ; [#uses=0 type=i32**]
@_ZNSt6locale5facet7_S_onceE = external global %struct.__gthread_once_t ; [#uses=0 type=%struct.__gthread_once_t*]
@_ZNSt6locale2id11_S_refcountE = external global i32 ; [#uses=0 type=i32*]
@_ZNSt7collate2idE = external global %struct.ssdm_int ; [#uses=0 type=%struct.ssdm_int*]
@_ZNSt8ios_base4Init11_S_refcountE = external global i32 ; [#uses=0 type=i32*]
@_ZNSt5ctype2idE = external global %struct.ssdm_int ; [#uses=0 type=%struct.ssdm_int*]
@_ZNSt5ctypeIcE2idE = external global %struct.ssdm_int ; [#uses=0 type=%struct.ssdm_int*]
@_ZNSt5ctypeIwE2idE = external global %struct.ssdm_int ; [#uses=0 type=%struct.ssdm_int*]
@_ZNSt10__num_base12_S_atoms_outE = external global i8* ; [#uses=0 type=i8**]
@_ZNSt10__num_base11_S_atoms_inE = external global i8* ; [#uses=0 type=i8**]
@_ZNSt8numpunct2idE = external global %struct.ssdm_int ; [#uses=0 type=%struct.ssdm_int*]
@_ZNSt7num_get2idE = external global %struct.ssdm_int ; [#uses=0 type=%struct.ssdm_int*]
@_ZNSt7num_put2idE = external global %struct.ssdm_int ; [#uses=0 type=%struct.ssdm_int*]
@_ZSt3cin = external global %"class.std::basic_istream" ; [#uses=0 type=%"class.std::basic_istream"*]
@_ZSt4cout = external global %"class.std::basic_ostream" ; [#uses=0 type=%"class.std::basic_ostream"*]
@_ZSt4cerr = external global %"class.std::basic_ostream" ; [#uses=0 type=%"class.std::basic_ostream"*]
@_ZSt4clog = external global %"class.std::basic_ostream" ; [#uses=0 type=%"class.std::basic_ostream"*]
@_ZSt4wcin = external global %"class.std::basic_istream.6" ; [#uses=0 type=%"class.std::basic_istream.6"*]
@_ZSt5wcout = external global %"class.std::basic_ostream.9" ; [#uses=0 type=%"class.std::basic_ostream.9"*]
@_ZSt5wcerr = external global %"class.std::basic_ostream.9" ; [#uses=0 type=%"class.std::basic_ostream.9"*]
@_ZSt5wclog = external global %"class.std::basic_ostream.9" ; [#uses=0 type=%"class.std::basic_ostream.9"*]
@_ZN13ap_fixed_baseILi24ELi1ELb1EL9ap_q_mode5EL9ap_o_mode3ELi0EE5omodeE = external constant i3 ; [#uses=1 type=i3*]
@_ZN13ap_fixed_baseILi24ELi1ELb1EL9ap_q_mode5EL9ap_o_mode3ELi0EE5qmodeE = external constant i3 ; [#uses=1 type=i3*]
@_ZN13ap_fixed_baseILi24ELi1ELb1EL9ap_q_mode5EL9ap_o_mode3ELi0EE6iwidthE = external constant i32 ; [#uses=1 type=i32*]
@_ZN13ap_fixed_baseILi24ELi1ELb1EL9ap_q_mode5EL9ap_o_mode3ELi0EE5widthE = external constant i32 ; [#uses=1 type=i32*]
@_ZZN13ap_fixed_baseILi24ELi1ELb1EL9ap_q_mode5EL9ap_o_mode3ELi0EEC1EdE10AllOnesInt = linkonce_odr global i32 -1, align 4 ; [#uses=1 type=i32*]
@llvm.global_ctors = appending global [1 x { i32, void ()* }] [{ i32, void ()* } { i32 65535, void ()* @_GLOBAL__I_a }] ; [#uses=0 type=[1 x { i32, void ()* }]*]

; [#uses=1]
define internal void @__cxx_global_var_init() nounwind {
  call void @_ZNSt8ios_base4InitC1Ev(%"class.std::ios_base::Init"* @_ZStL8__ioinit)
  %1 = call i32 @atexit(void ()* @__dtor__ZStL8__ioinit) ; [#uses=0 type=i32]
  ret void
}

; [#uses=1]
declare void @_ZNSt8ios_base4InitC1Ev(%"class.std::ios_base::Init"*)

; [#uses=1]
declare void @_ZNSt8ios_base4InitD1Ev(%"class.std::ios_base::Init"*)

; [#uses=1]
define internal void @__dtor__ZStL8__ioinit() nounwind {
  call void @_ZNSt8ios_base4InitD1Ev(%"class.std::ios_base::Init"* @_ZStL8__ioinit)
  ret void
}

; [#uses=1]
declare i32 @atexit(void ()*) nounwind

; [#uses=1]
define internal void @__cxx_global_var_init1() nounwind {
  call void @_ZN7ap_uintILi32EEC1Ei(%struct.ap_uint* @accumulator, i32 0)
  ret void
}

; [#uses=2]
define linkonce_odr void @_ZN7ap_uintILi32EEC1Ei(%struct.ap_uint* %this, i32 %val) unnamed_addr nounwind inlinehint alwaysinline align 2 {
  %1 = alloca %struct.ap_uint*, align 4           ; [#uses=2 type=%struct.ap_uint**]
  %2 = alloca i32, align 4                        ; [#uses=2 type=i32*]
  store %struct.ap_uint* %this, %struct.ap_uint** %1, align 4
  call void @llvm.dbg.declare(metadata !{%struct.ap_uint** %1}, metadata !6682), !dbg !6684 ; [debug line = 250:43] [debug variable = this]
  store i32 %val, i32* %2, align 4
  call void @llvm.dbg.declare(metadata !{i32* %2}, metadata !6685), !dbg !6686 ; [debug line = 250:55] [debug variable = val]
  %3 = load %struct.ap_uint** %1                  ; [#uses=1 type=%struct.ap_uint*]
  %4 = load i32* %2, align 4, !dbg !6687          ; [#uses=1 type=i32] [debug line = 250:77]
  call void @_ZN7ap_uintILi32EEC2Ei(%struct.ap_uint* %3, i32 %4), !dbg !6687 ; [debug line = 250:77]
  ret void, !dbg !6687                            ; [debug line = 250:77]
}

; [#uses=1]
define internal void @__cxx_global_var_init2() nounwind {
  call void @_ZN7ap_uintILi32EEC1Ei(%struct.ap_uint* @phase, i32 0)
  ret void
}

; [#uses=1]
define internal void @__cxx_global_var_init3() nounwind {
  call void @_ZN7ap_uintILi13EEC1Ei(%struct.ap_uint.0* @index, i32 0)
  ret void
}

; [#uses=1]
define linkonce_odr void @_ZN7ap_uintILi13EEC1Ei(%struct.ap_uint.0* %this, i32 %val) unnamed_addr nounwind inlinehint alwaysinline align 2 {
  %1 = alloca %struct.ap_uint.0*, align 4         ; [#uses=2 type=%struct.ap_uint.0**]
  %2 = alloca i32, align 4                        ; [#uses=2 type=i32*]
  store %struct.ap_uint.0* %this, %struct.ap_uint.0** %1, align 4
  call void @llvm.dbg.declare(metadata !{%struct.ap_uint.0** %1}, metadata !6688), !dbg !6690 ; [debug line = 250:43] [debug variable = this]
  store i32 %val, i32* %2, align 4
  call void @llvm.dbg.declare(metadata !{i32* %2}, metadata !6691), !dbg !6692 ; [debug line = 250:55] [debug variable = val]
  %3 = load %struct.ap_uint.0** %1                ; [#uses=1 type=%struct.ap_uint.0*]
  %4 = load i32* %2, align 4, !dbg !6693          ; [#uses=1 type=i32] [debug line = 250:77]
  call void @_ZN7ap_uintILi13EEC2Ei(%struct.ap_uint.0* %3, i32 %4), !dbg !6693 ; [debug line = 250:77]
  ret void, !dbg !6693                            ; [debug line = 250:77]
}

; [#uses=1]
define internal void @__cxx_global_var_init4() nounwind {
  call void @_ZN8ap_fixedILi24ELi1EL9ap_q_mode5EL9ap_o_mode3ELi0EEC1Ed(%struct.ap_fixed* getelementptr inbounds ([8192 x %struct.ap_fixed]* @_ZL4sine, i32 0, i32 0), double 0x3FDFFFFF80001460)
  call void @_ZN8ap_fixedILi24ELi1EL9ap_q_mode5EL9ap_o_mode3ELi0EEC1Ed(%struct.ap_fixed* getelementptr inbounds ([8192 x %struct.ap_fixed]* @_ZL4sine, i32 0, i32 1), double 0x3FE003239FFFF6D1)
  call void @_ZN8ap_fixedILi24ELi1EL9ap_q_mode5EL9ap_o_mode3ELi0EEC1Ed(%struct.ap_fixed* getelementptr inbounds ([8192 x %struct.ap_fixed]* @_ZL4sine, i32 0, i32 2), double 0x3FE006475FFFFA22)
  call void @_ZN8ap_fixedILi24ELi1EL9ap_q_mode5EL9ap_o_mode3ELi0EEC1Ed(%struct.ap_fixed* getelementptr inbounds ([8192 x %struct.ap_fixed]* @_ZL4sine, i32 0, i32 3), double 0x3FE0096B400009F2)
  call void @_ZN8ap_fixedILi24ELi1EL9ap_q_mode5EL9ap_o_mode3ELi0EEC1Ed(%struct.ap_fixed* getelementptr inbounds ([8192 x %struct.ap_fixed]* @_ZL4sine, i32 0, i32 4), double 0x3FE00C8F1FFFF694)
  call void @_ZN8ap_fixedILi24ELi1EL9ap_q_mode5EL9ap_o_mode3ELi0EEC1Ed(%struct.ap_fixed* getelementptr inbounds ([8192 x %struct.ap_fixed]* @_ZL4sine, i32 0, i32 5), double 0x3FE00FB300000664)
  call void @_ZN8ap_fixedILi24ELi1EL9ap_q_mode5EL9ap_o_mode3ELi0EEC1Ed(%struct.ap_fixed* getelementptr inbounds ([8192 x %struct.ap_fixed]* @_ZL4sine, i32 0, i32 6), double 0x3FE012D6C00009B5)
  call void @_ZN8ap_fixedILi24ELi1EL9ap_q_mode5EL9ap_o_mode3ELi0EEC1Ed(%struct.ap_fixed* getelementptr inbounds ([8192 x %struct.ap_fixed]* @_ZL4sine, i32 0, i32 7), double 0x3FE015FA9FFFF656)
  call void @_ZN8ap_fixedILi24ELi1EL9ap_q_mode5EL9ap_o_mode3ELi0EEC1Ed(%struct.ap_fixed* getelementptr inbounds ([8192 x %struct.ap_fixed]* @_ZL4sine, i32 0, i32 8), double 0x3FE0191E5FFFF9A7)
  call void @_ZN8ap_fixedILi24ELi1EL9ap_q_mode5EL9ap_o_mode3ELi0EEC1Ed(%struct.ap_fixed* getelementptr inbounds ([8192 x %struct.ap_fixed]* @_ZL4sine, i32 0, i32 9), double 0x3FE01C4240000977)
  call void @_ZN8ap_fixedILi24ELi1EL9ap_q_mode5EL9ap_o_mode3ELi0EEC1Ed(%struct.ap_fixed* getelementptr inbounds ([8192 x %struct.ap_fixed]* @_ZL4sine, i32 0, i32 10), double 0x3FE01F661FFFF619)
  call void @_ZN8ap_fixedILi24ELi1EL9ap_q_mode5EL9ap_o_mode3ELi0EEC1Ed(%struct.ap_fixed* getelementptr inbounds ([8192 x %struct.ap_fixed]* @_ZL4sine, i32 0, i32 11), double 0x3FE02289DFFFF969)
  call void @_ZN8ap_fixedILi24ELi1EL9ap_q_mode5EL9ap_o_mode3ELi0EEC1Ed(%struct.ap_fixed* getelementptr inbounds ([8192 x %struct.ap_fixed]* @_ZL4sine, i32 0, i32 12), double 0x3FE025ADC000093A)
  call void @_ZN8ap_fixedILi24ELi1EL9ap_q_mode5EL9ap_o_mode3ELi0EEC1Ed(%struct.ap_fixed* getelementptr inbounds ([8192 x %struct.ap_fixed]* @_ZL4sine, i32 0, i32 13), double 0x3FE028D180000C8B)
  call void @_ZN8ap_fixedILi24ELi1EL9ap_q_mode5EL9ap_o_mode3ELi0EEC1Ed(%struct.ap_fixed* getelementptr inbounds ([8192 x %struct.ap_fixed]* @_ZL4sine, i32 0, i32 14), double 0x3FE02BF540000FDB)
  call void @_ZN8ap_fixedILi24ELi1EL9ap_q_mode5EL9ap_o_mode3ELi0EEC1Ed(%struct.ap_fixed* getelementptr inbounds ([8192 x %struct.ap_fixed]* @_ZL4sine, i32 0, i32 15), double 0x3FE02F191FFFFC7D)
  call void @_ZN8ap_fixedILi24ELi1EL9ap_q_mode5EL9ap_o_mode3ELi0EEC1Ed(%struct.ap_fixed* getelementptr inbounds ([8192 x %struct.ap_fixed]* @_ZL4sine, i32 0, i32 16), double 0x3FE0323CDFFFFFCD)
  call void @_ZN8ap_fixedILi24ELi1EL9ap_q_mode5EL9ap_o_mode3ELi0EEC1Ed(%struct.ap_fixed* getelementptr inbounds ([8192 x %struct.ap_fixed]* @_ZL4sine, i32 0, i32 17), double 0x3FE03560A000031E)
  call void @_ZN8ap_fixedILi24ELi1EL9ap_q_mode5EL9ap_o_mode3ELi0EEC1Ed(%struct.ap_fixed* getelementptr inbounds ([8192 x %struct.ap_fixed]* @_ZL4sine, i32 0, i32 18), double 0x3FE038846000066F)
  call void @_ZN8ap_fixedILi24ELi1EL9ap_q_mode5EL9ap_o_mode3ELi0EEC1Ed(%struct.ap_fixed* getelementptr inbounds ([8192 x %struct.ap_fixed]* @_ZL4sine, i32 0, i32 19), double 0x3FE03BA8200009C0)
  call void @_ZN8ap_fixedILi24ELi1EL9ap_q_mode5EL9ap_o_mode3ELi0EEC1Ed(%struct.ap_fixed* getelementptr inbounds ([8192 x %struct.ap_fixed]* @_ZL4sine, i32 0, i32 20), double 0x3FE03ECBE0000D11)
  call void @_ZN8ap_fixedILi24ELi1EL9ap_q_mode5EL9ap_o_mode3ELi0EEC1Ed(%struct.ap_fixed* getelementptr inbounds ([8192 x %struct.ap_fixed]* @_ZL4sine, i32 0, i32 21), double 0x3FE041EFA0001062)
  call void @_ZN8ap_fixedILi24ELi1EL9ap_q_mode5EL9ap_o_mode3ELi0EEC1Ed(%struct.ap_fixed* getelementptr inbounds ([8192 x %struct.ap_fixed]* @_ZL4sine, i32 0, i32 22), double 0x3FE045135FFFF083)
  call void @_ZN8ap_fixedILi24ELi1EL9ap_q_mode5EL9ap_o_mode3ELi0EEC1Ed(%struct.ap_fixed* getelementptr inbounds ([8192 x %struct.ap_fixed]* @_ZL4sine, i32 0, i32 23), double 0x3FE048371FFFF3D4)
  call void @_ZN8ap_fixedILi24ELi1EL9ap_q_mode5EL9ap_o_mode3ELi0EEC1Ed(%struct.ap_fixed* getelementptr inbounds ([8192 x %struct.ap_fixed]* @_ZL4sine, i32 0, i32 24), double 0x3FE04B5ADFFFF725)
  call void @_ZN8ap_fixedILi24ELi1EL9ap_q_mode5EL9ap_o_mode3ELi0EEC1Ed(%struct.ap_fixed* getelementptr inbounds ([8192 x %struct.ap_fixed]* @_ZL4sine, i32 0, i32 25), double 0x3FE04E7E80001125)
  call void @_ZN8ap_fixedILi24ELi1EL9ap_q_mode5EL9ap_o_mode3ELi0EEC1Ed(%struct.ap_fixed* getelementptr inbounds ([8192 x %struct.ap_fixed]* @_ZL4sine, i32 0, i32 26), double 0x3FE051A23FFFF147)
  call void @_ZN8ap_fixedILi24ELi1EL9ap_q_mode5EL9ap_o_mode3ELi0EEC1Ed(%struct.ap_fixed* getelementptr inbounds ([8192 x %struct.ap_fixed]* @_ZL4sine, i32 0, i32 27), double 0x3FE054C5E0000B47)
  call void @_ZN8ap_fixedILi24ELi1EL9ap_q_mode5EL9ap_o_mode3ELi0EEC1Ed(%struct.ap_fixed* getelementptr inbounds ([8192 x %struct.ap_fixed]* @_ZL4sine, i32 0, i32 28), double 0x3FE057E980000219)
  call void @_ZN8ap_fixedILi24ELi1EL9ap_q_mode5EL9ap_o_mode3ELi0EEC1Ed(%struct.ap_fixed* getelementptr inbounds ([8192 x %struct.ap_fixed]* @_ZL4sine, i32 0, i32 29), double 0x3FE05B0D1FFFF8EA)
  call void @_ZN8ap_fixedILi24ELi1EL9ap_q_mode5EL9ap_o_mode3ELi0EEC1Ed(%struct.ap_fixed* getelementptr inbounds ([8192 x %struct.ap_fixed]* @_ZL4sine, i32 0, i32 30), double 0x3FE05E30DFFFFC3B)
  call void @_ZN8ap_fixedILi24ELi1EL9ap_q_mode5EL9ap_o_mode3ELi0EEC1Ed(%struct.ap_fixed* getelementptr inbounds ([8192 x %struct.ap_fixed]* @_ZL4sine, i32 0, i32 31), double 0x3FE061547FFFF30C)
  call void @_ZN8ap_fixedILi24ELi1EL9ap_q_mode5EL9ap_o_mode3ELi0EEC1Ed(%struct.ap_fixed* getelementptr inbounds ([8192 x %struct.ap_fixed]* @_ZL4sine, i32 0, i32 32), double 0x3FE064780000008D)
  call void @_ZN8ap_fixedILi24ELi1EL9ap_q_mode5EL9ap_o_mode3ELi0EEC1Ed(%struct.ap_fixed* getelementptr inbounds ([8192 x %struct.ap_fixed]* @_ZL4sine, i32 0, i32 33), double 0x3FE0679B9FFFF75E)
  call void @_ZN8ap_fixedILi24ELi1EL9ap_q_mode5EL9ap_o_mode3ELi0EEC1Ed(%struct.ap_fixed* getelementptr inbounds ([8192 x %struct.ap_fixed]* @_ZL4sine, i32 0, i32 34), double 0x3FE06ABF4000115E)
  call void @_ZN8ap_fixedILi24ELi1EL9ap_q_mode5EL9ap_o_mode3ELi0EEC1Ed(%struct.ap_fixed* getelementptr inbounds ([8192 x %struct.ap_fixed]* @_ZL4sine, i32 0, i32 35), double 0x3FE06DE2BFFFFBB0)
  call void @_ZN8ap_fixedILi24ELi1EL9ap_q_mode5EL9ap_o_mode3ELi0EEC1Ed(%struct.ap_fixed* getelementptr inbounds ([8192 x %struct.ap_fixed]* @_ZL4sine, i32 0, i32 36), double 0x3FE0710640000931)
  call void @_ZN8ap_fixedILi24ELi1EL9ap_q_mode5EL9ap_o_mode3ELi0EEC1Ed(%struct.ap_fixed* getelementptr inbounds ([8192 x %struct.ap_fixed]* @_ZL4sine, i32 0, i32 37), double 0x3FE07429E0000002)
  call void @_ZN8ap_fixedILi24ELi1EL9ap_q_mode5EL9ap_o_mode3ELi0EEC1Ed(%struct.ap_fixed* getelementptr inbounds ([8192 x %struct.ap_fixed]* @_ZL4sine, i32 0, i32 38), double 0x3FE0774D60000D83)
  call void @_ZN8ap_fixedILi24ELi1EL9ap_q_mode5EL9ap_o_mode3ELi0EEC1Ed(%struct.ap_fixed* getelementptr inbounds ([8192 x %struct.ap_fixed]* @_ZL4sine, i32 0, i32 39), double 0x3FE07A70DFFFF7D5)
  call void @_ZN8ap_fixedILi24ELi1EL9ap_q_mode5EL9ap_o_mode3ELi0EEC1Ed(%struct.ap_fixed* getelementptr inbounds ([8192 x %struct.ap_fixed]* @_ZL4sine, i32 0, i32 40), double 0x3FE07D943FFFF8D6)
  call void @_ZN8ap_fixedILi24ELi1EL9ap_q_mode5EL9ap_o_mode3ELi0EEC1Ed(%struct.ap_fixed* getelementptr inbounds ([8192 x %struct.ap_fixed]* @_ZL4sine, i32 0, i32 41), double 0x3FE080B7C0000657)
  call void @_ZN8ap_fixedILi24ELi1EL9ap_q_mode5EL9ap_o_mode3ELi0EEC1Ed(%struct.ap_fixed* getelementptr inbounds ([8192 x %struct.ap_fixed]* @_ZL4sine, i32 0, i32 42), double 0x3FE083DB3FFFF0A9)
  call void @_ZN8ap_fixedILi24ELi1EL9ap_q_mode5EL9ap_o_mode3ELi0EEC1Ed(%struct.ap_fixed* getelementptr inbounds ([8192 x %struct.ap_fixed]* @_ZL4sine, i32 0, i32 43), double 0x3FE086FE9FFFF1AA)
  call void @_ZN8ap_fixedILi24ELi1EL9ap_q_mode5EL9ap_o_mode3ELi0EEC1Ed(%struct.ap_fixed* getelementptr inbounds ([8192 x %struct.ap_fixed]* @_ZL4sine, i32 0, i32 44), double 0x3FE08A21FFFFF2AB)
  call void @_ZN8ap_fixedILi24ELi1EL9ap_q_mode5EL9ap_o_mode3ELi0EEC1Ed(%struct.ap_fixed* getelementptr inbounds ([8192 x %struct.ap_fixed]* @_ZL4sine, i32 0, i32 45), double 0x3FE08D455FFFF3AC)
  call void @_ZN8ap_fixedILi24ELi1EL9ap_q_mode5EL9ap_o_mode3ELi0EEC1Ed(%struct.ap_fixed* getelementptr inbounds ([8192 x %struct.ap_fixed]* @_ZL4sine, i32 0, i32 46), double 0x3FE09068BFFFF4AE)
  call void @_ZN8ap_fixedILi24ELi1EL9ap_q_mode5EL9ap_o_mode3ELi0EEC1Ed(%struct.ap_fixed* getelementptr inbounds ([8192 x %struct.ap_fixed]* @_ZL4sine, i32 0, i32 47), double 0x3FE0938C00000C5F)
  call void @_ZN8ap_fixedILi24ELi1EL9ap_q_mode5EL9ap_o_mode3ELi0EEC1Ed(%struct.ap_fixed* getelementptr inbounds ([8192 x %struct.ap_fixed]* @_ZL4sine, i32 0, i32 48), double 0x3FE096AF60000D60)
  call void @_ZN8ap_fixedILi24ELi1EL9ap_q_mode5EL9ap_o_mode3ELi0EEC1Ed(%struct.ap_fixed* getelementptr inbounds ([8192 x %struct.ap_fixed]* @_ZL4sine, i32 0, i32 49), double 0x3FE099D2A00001E2)
  call void @_ZN8ap_fixedILi24ELi1EL9ap_q_mode5EL9ap_o_mode3ELi0EEC1Ed(%struct.ap_fixed* getelementptr inbounds ([8192 x %struct.ap_fixed]* @_ZL4sine, i32 0, i32 50), double 0x3FE09CF5DFFFF663)
  call void @_ZN8ap_fixedILi24ELi1EL9ap_q_mode5EL9ap_o_mode3ELi0EEC1Ed(%struct.ap_fixed* getelementptr inbounds ([8192 x %struct.ap_fixed]* @_ZL4sine, i32 0, i32 51), double 0x3FE0A01920000E14)
  call void @_ZN8ap_fixedILi24ELi1EL9ap_q_mode5EL9ap_o_mode3ELi0EEC1Ed(%struct.ap_fixed* getelementptr inbounds ([8192 x %struct.ap_fixed]* @_ZL4sine, i32 0, i32 52), double 0x3FE0A33C60000296)
  call void @_ZN8ap_fixedILi24ELi1EL9ap_q_mode5EL9ap_o_mode3ELi0EEC1Ed(%struct.ap_fixed* getelementptr inbounds ([8192 x %struct.ap_fixed]* @_ZL4sine, i32 0, i32 53), double 0x3FE0A65F80000DC7)
  call void @_ZN8ap_fixedILi24ELi1EL9ap_q_mode5EL9ap_o_mode3ELi0EEC1Ed(%struct.ap_fixed* getelementptr inbounds ([8192 x %struct.ap_fixed]* @_ZL4sine, i32 0, i32 54), double 0x3FE0A982C0000249)
  call void @_ZN8ap_fixedILi24ELi1EL9ap_q_mode5EL9ap_o_mode3ELi0EEC1Ed(%struct.ap_fixed* getelementptr inbounds ([8192 x %struct.ap_fixed]* @_ZL4sine, i32 0, i32 55), double 0x3FE0ACA5E0000D7A)
  call void @_ZN8ap_fixedILi24ELi1EL9ap_q_mode5EL9ap_o_mode3ELi0EEC1Ed(%struct.ap_fixed* getelementptr inbounds ([8192 x %struct.ap_fixed]* @_ZL4sine, i32 0, i32 56), double 0x3FE0AFC8FFFFF57C)
  call void @_ZN8ap_fixedILi24ELi1EL9ap_q_mode5EL9ap_o_mode3ELi0EEC1Ed(%struct.ap_fixed* getelementptr inbounds ([8192 x %struct.ap_fixed]* @_ZL4sine, i32 0, i32 57), double 0x3FE0B2EBFFFFF42E)
  call void @_ZN8ap_fixedILi24ELi1EL9ap_q_mode5EL9ap_o_mode3ELi0EEC1Ed(%struct.ap_fixed* getelementptr inbounds ([8192 x %struct.ap_fixed]* @_ZL4sine, i32 0, i32 58), double 0x3FE0B60F1FFFFF5F)
  call void @_ZN8ap_fixedILi24ELi1EL9ap_q_mode5EL9ap_o_mode3ELi0EEC1Ed(%struct.ap_fixed* getelementptr inbounds ([8192 x %struct.ap_fixed]* @_ZL4sine, i32 0, i32 59), double 0x3FE0B9321FFFFE11)
  call void @_ZN8ap_fixedILi24ELi1EL9ap_q_mode5EL9ap_o_mode3ELi0EEC1Ed(%struct.ap_fixed* getelementptr inbounds ([8192 x %struct.ap_fixed]* @_ZL4sine, i32 0, i32 60), double 0x3FE0BC551FFFFCC3)
  call void @_ZN8ap_fixedILi24ELi1EL9ap_q_mode5EL9ap_o_mode3ELi0EEC1Ed(%struct.ap_fixed* getelementptr inbounds ([8192 x %struct.ap_fixed]* @_ZL4sine, i32 0, i32 61), double 0x3FE0BF781FFFFB75)
  call void @_ZN8ap_fixedILi24ELi1EL9ap_q_mode5EL9ap_o_mode3ELi0EEC1Ed(%struct.ap_fixed* getelementptr inbounds ([8192 x %struct.ap_fixed]* @_ZL4sine, i32 0, i32 62), double 0x3FE0C29B000010D6)
  call void @_ZN8ap_fixedILi24ELi1EL9ap_q_mode5EL9ap_o_mode3ELi0EEC1Ed(%struct.ap_fixed* getelementptr inbounds ([8192 x %struct.ap_fixed]* @_ZL4sine, i32 0, i32 63), double 0x3FE0C5BE00000F88)
  call void @_ZN8ap_fixedILi24ELi1EL9ap_q_mode5EL9ap_o_mode3ELi0EEC1Ed(%struct.ap_fixed* getelementptr inbounds ([8192 x %struct.ap_fixed]* @_ZL4sine, i32 0, i32 64), double 0x3FE0C8E0E00001BA)
  call void @_ZN8ap_fixedILi24ELi1EL9ap_q_mode5EL9ap_o_mode3ELi0EEC1Ed(%struct.ap_fixed* getelementptr inbounds ([8192 x %struct.ap_fixed]* @_ZL4sine, i32 0, i32 65), double 0x3FE0CC03BFFFF3EC)
  call void @_ZN8ap_fixedILi24ELi1EL9ap_q_mode5EL9ap_o_mode3ELi0EEC1Ed(%struct.ap_fixed* getelementptr inbounds ([8192 x %struct.ap_fixed]* @_ZL4sine, i32 0, i32 66), double 0x3FE0CF267FFFFCCE)
  call void @_ZN8ap_fixedILi24ELi1EL9ap_q_mode5EL9ap_o_mode3ELi0EEC1Ed(%struct.ap_fixed* getelementptr inbounds ([8192 x %struct.ap_fixed]* @_ZL4sine, i32 0, i32 67), double 0x3FE0D2495FFFEF00)
  call void @_ZN8ap_fixedILi24ELi1EL9ap_q_mode5EL9ap_o_mode3ELi0EEC1Ed(%struct.ap_fixed* getelementptr inbounds ([8192 x %struct.ap_fixed]* @_ZL4sine, i32 0, i32 68), double 0x3FE0D56C1FFFF7E2)
  call void @_ZN8ap_fixedILi24ELi1EL9ap_q_mode5EL9ap_o_mode3ELi0EEC1Ed(%struct.ap_fixed* getelementptr inbounds ([8192 x %struct.ap_fixed]* @_ZL4sine, i32 0, i32 69), double 0x3FE0D88EE00000C4)
  call void @_ZN8ap_fixedILi24ELi1EL9ap_q_mode5EL9ap_o_mode3ELi0EEC1Ed(%struct.ap_fixed* getelementptr inbounds ([8192 x %struct.ap_fixed]* @_ZL4sine, i32 0, i32 70), double 0x3FE0DBB17FFFFD26)
  call void @_ZN8ap_fixedILi24ELi1EL9ap_q_mode5EL9ap_o_mode3ELi0EEC1Ed(%struct.ap_fixed* getelementptr inbounds ([8192 x %struct.ap_fixed]* @_ZL4sine, i32 0, i32 71), double 0x3FE0DED440000608)
  call void @_ZN8ap_fixedILi24ELi1EL9ap_q_mode5EL9ap_o_mode3ELi0EEC1Ed(%struct.ap_fixed* getelementptr inbounds ([8192 x %struct.ap_fixed]* @_ZL4sine, i32 0, i32 72), double 0x3FE0E1F6E000026A)
  call void @_ZN8ap_fixedILi24ELi1EL9ap_q_mode5EL9ap_o_mode3ELi0EEC1Ed(%struct.ap_fixed* getelementptr inbounds ([8192 x %struct.ap_fixed]* @_ZL4sine, i32 0, i32 73), double 0x3FE0E5195FFFF24D)
  call void @_ZN8ap_fixedILi24ELi1EL9ap_q_mode5EL9ap_o_mode3ELi0EEC1Ed(%struct.ap_fixed* getelementptr inbounds ([8192 x %struct.ap_fixed]* @_ZL4sine, i32 0, i32 74), double 0x3FE0E83BFFFFEEAF)
  call void @_ZN8ap_fixedILi24ELi1EL9ap_q_mode5EL9ap_o_mode3ELi0EEC1Ed(%struct.ap_fixed* getelementptr inbounds ([8192 x %struct.ap_fixed]* @_ZL4sine, i32 0, i32 75), double 0x3FE0EB5E800001C1)
  call void @_ZN8ap_fixedILi24ELi1EL9ap_q_mode5EL9ap_o_mode3ELi0EEC1Ed(%struct.ap_fixed* getelementptr inbounds ([8192 x %struct.ap_fixed]* @_ZL4sine, i32 0, i32 76), double 0x3FE0EE80FFFFF1A3)
  call void @_ZN8ap_fixedILi24ELi1EL9ap_q_mode5EL9ap_o_mode3ELi0EEC1Ed(%struct.ap_fixed* getelementptr inbounds ([8192 x %struct.ap_fixed]* @_ZL4sine, i32 0, i32 77), double 0x3FE0F1A3800004B5)
  call void @_ZN8ap_fixedILi24ELi1EL9ap_q_mode5EL9ap_o_mode3ELi0EEC1Ed(%struct.ap_fixed* getelementptr inbounds ([8192 x %struct.ap_fixed]* @_ZL4sine, i32 0, i32 78), double 0x3FE0F4C5E0000B47)
  call void @_ZN8ap_fixedILi24ELi1EL9ap_q_mode5EL9ap_o_mode3ELi0EEC1Ed(%struct.ap_fixed* getelementptr inbounds ([8192 x %struct.ap_fixed]* @_ZL4sine, i32 0, i32 79), double 0x3FE0F7E83FFFEEAA)
  call void @_ZN8ap_fixedILi24ELi1EL9ap_q_mode5EL9ap_o_mode3ELi0EEC1Ed(%struct.ap_fixed* getelementptr inbounds ([8192 x %struct.ap_fixed]* @_ZL4sine, i32 0, i32 80), double 0x3FE0FB0A9FFFF53D)
  call void @_ZN8ap_fixedILi24ELi1EL9ap_q_mode5EL9ap_o_mode3ELi0EEC1Ed(%struct.ap_fixed* getelementptr inbounds ([8192 x %struct.ap_fixed]* @_ZL4sine, i32 0, i32 81), double 0x3FE0FE2CFFFFFBCF)
  call void @_ZN8ap_fixedILi24ELi1EL9ap_q_mode5EL9ap_o_mode3ELi0EEC1Ed(%struct.ap_fixed* getelementptr inbounds ([8192 x %struct.ap_fixed]* @_ZL4sine, i32 0, i32 82), double 0x3FE1014F3FFFF5E2)
  call void @_ZN8ap_fixedILi24ELi1EL9ap_q_mode5EL9ap_o_mode3ELi0EEC1Ed(%struct.ap_fixed* getelementptr inbounds ([8192 x %struct.ap_fixed]* @_ZL4sine, i32 0, i32 83), double 0x3FE104717FFFEFF4)
  call void @_ZN8ap_fixedILi24ELi1EL9ap_q_mode5EL9ap_o_mode3ELi0EEC1Ed(%struct.ap_fixed* getelementptr inbounds ([8192 x %struct.ap_fixed]* @_ZL4sine, i32 0, i32 84), double 0x3FE10793A00000B7)
  call void @_ZN8ap_fixedILi24ELi1EL9ap_q_mode5EL9ap_o_mode3ELi0EEC1Ed(%struct.ap_fixed* getelementptr inbounds ([8192 x %struct.ap_fixed]* @_ZL4sine, i32 0, i32 85), double 0x3FE10AB5C0001179)
  call void @_ZN8ap_fixedILi24ELi1EL9ap_q_mode5EL9ap_o_mode3ELi0EEC1Ed(%struct.ap_fixed* getelementptr inbounds ([8192 x %struct.ap_fixed]* @_ZL4sine, i32 0, i32 86), double 0x3FE10DD7DFFFFF0C)
  call void @_ZN8ap_fixedILi24ELi1EL9ap_q_mode5EL9ap_o_mode3ELi0EEC1Ed(%struct.ap_fixed* getelementptr inbounds ([8192 x %struct.ap_fixed]* @_ZL4sine, i32 0, i32 87), double 0x3FE110FA00000FCE)
  call void @_ZN8ap_fixedILi24ELi1EL9ap_q_mode5EL9ap_o_mode3ELi0EEC1Ed(%struct.ap_fixed* getelementptr inbounds ([8192 x %struct.ap_fixed]* @_ZL4sine, i32 0, i32 88), double 0x3FE1141BFFFFF0E2)
  call void @_ZN8ap_fixedILi24ELi1EL9ap_q_mode5EL9ap_o_mode3ELi0EEC1Ed(%struct.ap_fixed* getelementptr inbounds ([8192 x %struct.ap_fixed]* @_ZL4sine, i32 0, i32 89), double 0x3FE1173DFFFFF524)
  call void @_ZN8ap_fixedILi24ELi1EL9ap_q_mode5EL9ap_o_mode3ELi0EEC1Ed(%struct.ap_fixed* getelementptr inbounds ([8192 x %struct.ap_fixed]* @_ZL4sine, i32 0, i32 90), double 0x3FE11A5FFFFFF967)
  call void @_ZN8ap_fixedILi24ELi1EL9ap_q_mode5EL9ap_o_mode3ELi0EEC1Ed(%struct.ap_fixed* getelementptr inbounds ([8192 x %struct.ap_fixed]* @_ZL4sine, i32 0, i32 91), double 0x3FE11D81DFFFF12A)
  call void @_ZN8ap_fixedILi24ELi1EL9ap_q_mode5EL9ap_o_mode3ELi0EEC1Ed(%struct.ap_fixed* getelementptr inbounds ([8192 x %struct.ap_fixed]* @_ZL4sine, i32 0, i32 92), double 0x3FE120A3C0000C1D)
  call void @_ZN8ap_fixedILi24ELi1EL9ap_q_mode5EL9ap_o_mode3ELi0EEC1Ed(%struct.ap_fixed* getelementptr inbounds ([8192 x %struct.ap_fixed]* @_ZL4sine, i32 0, i32 93), double 0x3FE123C57FFFF760)
  call void @_ZN8ap_fixedILi24ELi1EL9ap_q_mode5EL9ap_o_mode3ELi0EEC1Ed(%struct.ap_fixed* getelementptr inbounds ([8192 x %struct.ap_fixed]* @_ZL4sine, i32 0, i32 94), double 0x3FE126E75FFFEF23)
  call void @_ZN8ap_fixedILi24ELi1EL9ap_q_mode5EL9ap_o_mode3ELi0EEC1Ed(%struct.ap_fixed* getelementptr inbounds ([8192 x %struct.ap_fixed]* @_ZL4sine, i32 0, i32 95), double 0x3FE12A08FFFFF116)
  call void @_ZN8ap_fixedILi24ELi1EL9ap_q_mode5EL9ap_o_mode3ELi0EEC1Ed(%struct.ap_fixed* getelementptr inbounds ([8192 x %struct.ap_fixed]* @_ZL4sine, i32 0, i32 96), double 0x3FE12D2ABFFFFF89)
  call void @_ZN8ap_fixedILi24ELi1EL9ap_q_mode5EL9ap_o_mode3ELi0EEC1Ed(%struct.ap_fixed* getelementptr inbounds ([8192 x %struct.ap_fixed]* @_ZL4sine, i32 0, i32 97), double 0x3FE1304C6000017C)
  call void @_ZN8ap_fixedILi24ELi1EL9ap_q_mode5EL9ap_o_mode3ELi0EEC1Ed(%struct.ap_fixed* getelementptr inbounds ([8192 x %struct.ap_fixed]* @_ZL4sine, i32 0, i32 98), double 0x3FE1336E00000370)
  call void @_ZN8ap_fixedILi24ELi1EL9ap_q_mode5EL9ap_o_mode3ELi0EEC1Ed(%struct.ap_fixed* getelementptr inbounds ([8192 x %struct.ap_fixed]* @_ZL4sine, i32 0, i32 99), double 0x3FE1368F7FFFF8E3)
  call void @_ZN8ap_fixedILi24ELi1EL9ap_q_mode5EL9ap_o_mode3ELi0EEC1Ed(%struct.ap_fixed* getelementptr inbounds ([8192 x %struct.ap_fixed]* @_ZL4sine, i32 0, i32 100), double 0x3FE139B100001186)
  call void @_ZN8ap_fixedILi24ELi1EL9ap_q_mode5EL9ap_o_mode3ELi0EEC1Ed(%struct.ap_fixed* getelementptr inbounds ([8192 x %struct.ap_fixed]* @_ZL4sine, i32 0, i32 101), double 0x3FE13CD2800006FA)
  call void @_ZN8ap_fixedILi24ELi1EL9ap_q_mode5EL9ap_o_mode3ELi0EEC1Ed(%struct.ap_fixed* getelementptr inbounds ([8192 x %struct.ap_fixed]* @_ZL4sine, i32 0, i32 102), double 0x3FE13FF3DFFFEFEE)
  call void @_ZN8ap_fixedILi24ELi1EL9ap_q_mode5EL9ap_o_mode3ELi0EEC1Ed(%struct.ap_fixed* getelementptr inbounds ([8192 x %struct.ap_fixed]* @_ZL4sine, i32 0, i32 103), double 0x3FE143153FFFFC11)
  call void @_ZN8ap_fixedILi24ELi1EL9ap_q_mode5EL9ap_o_mode3ELi0EEC1Ed(%struct.ap_fixed* getelementptr inbounds ([8192 x %struct.ap_fixed]* @_ZL4sine, i32 0, i32 104), double 0x3FE146367FFFFBB4)
  call void @_ZN8ap_fixedILi24ELi1EL9ap_q_mode5EL9ap_o_mode3ELi0EEC1Ed(%struct.ap_fixed* getelementptr inbounds ([8192 x %struct.ap_fixed]* @_ZL4sine, i32 0, i32 105), double 0x3FE14957E00007D8)
  call void @_ZN8ap_fixedILi24ELi1EL9ap_q_mode5EL9ap_o_mode3ELi0EEC1Ed(%struct.ap_fixed* getelementptr inbounds ([8192 x %struct.ap_fixed]* @_ZL4sine, i32 0, i32 106), double 0x3FE14C78FFFFFAFC)
  call void @_ZN8ap_fixedILi24ELi1EL9ap_q_mode5EL9ap_o_mode3ELi0EEC1Ed(%struct.ap_fixed* getelementptr inbounds ([8192 x %struct.ap_fixed]* @_ZL4sine, i32 0, i32 107), double 0x3FE14F9A3FFFFA9F)
  call void @_ZN8ap_fixedILi24ELi1EL9ap_q_mode5EL9ap_o_mode3ELi0EEC1Ed(%struct.ap_fixed* getelementptr inbounds ([8192 x %struct.ap_fixed]* @_ZL4sine, i32 0, i32 108), double 0x3FE152BB40000473)
  call void @_ZN8ap_fixedILi24ELi1EL9ap_q_mode5EL9ap_o_mode3ELi0EEC1Ed(%struct.ap_fixed* getelementptr inbounds ([8192 x %struct.ap_fixed]* @_ZL4sine, i32 0, i32 109), double 0x3FE155DC5FFFF797)
  call void @_ZN8ap_fixedILi24ELi1EL9ap_q_mode5EL9ap_o_mode3ELi0EEC1Ed(%struct.ap_fixed* getelementptr inbounds ([8192 x %struct.ap_fixed]* @_ZL4sine, i32 0, i32 110), double 0x3FE158FD6000016B)
  call void @_ZN8ap_fixedILi24ELi1EL9ap_q_mode5EL9ap_o_mode3ELi0EEC1Ed(%struct.ap_fixed* getelementptr inbounds ([8192 x %struct.ap_fixed]* @_ZL4sine, i32 0, i32 111), double 0x3FE15C1E60000B3F)
  call void @_ZN8ap_fixedILi24ELi1EL9ap_q_mode5EL9ap_o_mode3ELi0EEC1Ed(%struct.ap_fixed* getelementptr inbounds ([8192 x %struct.ap_fixed]* @_ZL4sine, i32 0, i32 112), double 0x3FE15F3F40000893)
  call void @_ZN8ap_fixedILi24ELi1EL9ap_q_mode5EL9ap_o_mode3ELi0EEC1Ed(%struct.ap_fixed* getelementptr inbounds ([8192 x %struct.ap_fixed]* @_ZL4sine, i32 0, i32 113), double 0x3FE16260200005E7)
  call void @_ZN8ap_fixedILi24ELi1EL9ap_q_mode5EL9ap_o_mode3ELi0EEC1Ed(%struct.ap_fixed* getelementptr inbounds ([8192 x %struct.ap_fixed]* @_ZL4sine, i32 0, i32 114), double 0x3FE16580DFFFF6BB)
  call void @_ZN8ap_fixedILi24ELi1EL9ap_q_mode5EL9ap_o_mode3ELi0EEC1Ed(%struct.ap_fixed* getelementptr inbounds ([8192 x %struct.ap_fixed]* @_ZL4sine, i32 0, i32 115), double 0x3FE168A1A0000ABF)
  call void @_ZN8ap_fixedILi24ELi1EL9ap_q_mode5EL9ap_o_mode3ELi0EEC1Ed(%struct.ap_fixed* getelementptr inbounds ([8192 x %struct.ap_fixed]* @_ZL4sine, i32 0, i32 116), double 0x3FE16BC25FFFFB94)
  call void @_ZN8ap_fixedILi24ELi1EL9ap_q_mode5EL9ap_o_mode3ELi0EEC1Ed(%struct.ap_fixed* getelementptr inbounds ([8192 x %struct.ap_fixed]* @_ZL4sine, i32 0, i32 117), double 0x3FE16EE300000318)
  call void @_ZN8ap_fixedILi24ELi1EL9ap_q_mode5EL9ap_o_mode3ELi0EEC1Ed(%struct.ap_fixed* getelementptr inbounds ([8192 x %struct.ap_fixed]* @_ZL4sine, i32 0, i32 118), double 0x3FE172037FFFFE1C)
  call void @_ZN8ap_fixedILi24ELi1EL9ap_q_mode5EL9ap_o_mode3ELi0EEC1Ed(%struct.ap_fixed* getelementptr inbounds ([8192 x %struct.ap_fixed]* @_ZL4sine, i32 0, i32 119), double 0x3FE17524200005A0)
  call void @_ZN8ap_fixedILi24ELi1EL9ap_q_mode5EL9ap_o_mode3ELi0EEC1Ed(%struct.ap_fixed* getelementptr inbounds ([8192 x %struct.ap_fixed]* @_ZL4sine, i32 0, i32 120), double 0x3FE178447FFFF425)
  call void @_ZN8ap_fixedILi24ELi1EL9ap_q_mode5EL9ap_o_mode3ELi0EEC1Ed(%struct.ap_fixed* getelementptr inbounds ([8192 x %struct.ap_fixed]* @_ZL4sine, i32 0, i32 121), double 0x3FE17B64FFFFEF2A)
  call void @_ZN8ap_fixedILi24ELi1EL9ap_q_mode5EL9ap_o_mode3ELi0EEC1Ed(%struct.ap_fixed* getelementptr inbounds ([8192 x %struct.ap_fixed]* @_ZL4sine, i32 0, i32 122), double 0x3FE17E853FFFF45F)
  call void @_ZN8ap_fixedILi24ELi1EL9ap_q_mode5EL9ap_o_mode3ELi0EEC1Ed(%struct.ap_fixed* getelementptr inbounds ([8192 x %struct.ap_fixed]* @_ZL4sine, i32 0, i32 123), double 0x3FE181A5A0000613)
  call void @_ZN8ap_fixedILi24ELi1EL9ap_q_mode5EL9ap_o_mode3ELi0EEC1Ed(%struct.ap_fixed* getelementptr inbounds ([8192 x %struct.ap_fixed]* @_ZL4sine, i32 0, i32 124), double 0x3FE184C5E0000B47)
  call void @_ZN8ap_fixedILi24ELi1EL9ap_q_mode5EL9ap_o_mode3ELi0EEC1Ed(%struct.ap_fixed* getelementptr inbounds ([8192 x %struct.ap_fixed]* @_ZL4sine, i32 0, i32 125), double 0x3FE187E6000003FC)
  call void @_ZN8ap_fixedILi24ELi1EL9ap_q_mode5EL9ap_o_mode3ELi0EEC1Ed(%struct.ap_fixed* getelementptr inbounds ([8192 x %struct.ap_fixed]* @_ZL4sine, i32 0, i32 126), double 0x3FE18B061FFFFCB1)
  call void @_ZN8ap_fixedILi24ELi1EL9ap_q_mode5EL9ap_o_mode3ELi0EEC1Ed(%struct.ap_fixed* getelementptr inbounds ([8192 x %struct.ap_fixed]* @_ZL4sine, i32 0, i32 127), double 0x3FE18E263FFFF566)
  call void @_ZN8ap_fixedILi24ELi1EL9ap_q_mode5EL9ap_o_mode3ELi0EEC1Ed(%struct.ap_fixed* getelementptr inbounds ([8192 x %struct.ap_fixed]* @_ZL4sine, i32 0, i32 128), double 0x3FE19146400004CB)
  call void @_ZN8ap_fixedILi24ELi1EL9ap_q_mode5EL9ap_o_mode3ELi0EEC1Ed(%struct.ap_fixed* getelementptr inbounds ([8192 x %struct.ap_fixed]* @_ZL4sine, i32 0, i32 129), double 0x3FE19466200007B0)
  call void @_ZN8ap_fixedILi24ELi1EL9ap_q_mode5EL9ap_o_mode3ELi0EEC1Ed(%struct.ap_fixed* getelementptr inbounds ([8192 x %struct.ap_fixed]* @_ZL4sine, i32 0, i32 130), double 0x3FE1978600000A95)
  call void @_ZN8ap_fixedILi24ELi1EL9ap_q_mode5EL9ap_o_mode3ELi0EEC1Ed(%struct.ap_fixed* getelementptr inbounds ([8192 x %struct.ap_fixed]* @_ZL4sine, i32 0, i32 131), double 0x3FE19AA5E0000D7A)
  call void @_ZN8ap_fixedILi24ELi1EL9ap_q_mode5EL9ap_o_mode3ELi0EEC1Ed(%struct.ap_fixed* getelementptr inbounds ([8192 x %struct.ap_fixed]* @_ZL4sine, i32 0, i32 132), double 0x3FE19DC5A00003E0)
  call void @_ZN8ap_fixedILi24ELi1EL9ap_q_mode5EL9ap_o_mode3ELi0EEC1Ed(%struct.ap_fixed* getelementptr inbounds ([8192 x %struct.ap_fixed]* @_ZL4sine, i32 0, i32 133), double 0x3FE1A0E5400010F5)
  call void @_ZN8ap_fixedILi24ELi1EL9ap_q_mode5EL9ap_o_mode3ELi0EEC1Ed(%struct.ap_fixed* getelementptr inbounds ([8192 x %struct.ap_fixed]* @_ZL4sine, i32 0, i32 134), double 0x3FE1A4050000075A)
  call void @_ZN8ap_fixedILi24ELi1EL9ap_q_mode5EL9ap_o_mode3ELi0EEC1Ed(%struct.ap_fixed* getelementptr inbounds ([8192 x %struct.ap_fixed]* @_ZL4sine, i32 0, i32 135), double 0x3FE1A724800007F0)
  call void @_ZN8ap_fixedILi24ELi1EL9ap_q_mode5EL9ap_o_mode3ELi0EEC1Ed(%struct.ap_fixed* getelementptr inbounds ([8192 x %struct.ap_fixed]* @_ZL4sine, i32 0, i32 136), double 0x3FE1AA4400000885)
  call void @_ZN8ap_fixedILi24ELi1EL9ap_q_mode5EL9ap_o_mode3ELi0EEC1Ed(%struct.ap_fixed* getelementptr inbounds ([8192 x %struct.ap_fixed]* @_ZL4sine, i32 0, i32 137), double 0x3FE1AD638000091B)
  call void @_ZN8ap_fixedILi24ELi1EL9ap_q_mode5EL9ap_o_mode3ELi0EEC1Ed(%struct.ap_fixed* getelementptr inbounds ([8192 x %struct.ap_fixed]* @_ZL4sine, i32 0, i32 138), double 0x3FE1B082DFFFFD31)
  call void @_ZN8ap_fixedILi24ELi1EL9ap_q_mode5EL9ap_o_mode3ELi0EEC1Ed(%struct.ap_fixed* getelementptr inbounds ([8192 x %struct.ap_fixed]* @_ZL4sine, i32 0, i32 139), double 0x3FE1B3A2200007F6)
  call void @_ZN8ap_fixedILi24ELi1EL9ap_q_mode5EL9ap_o_mode3ELi0EEC1Ed(%struct.ap_fixed* getelementptr inbounds ([8192 x %struct.ap_fixed]* @_ZL4sine, i32 0, i32 140), double 0x3FE1B6C15FFFEF8D)
  call void @_ZN8ap_fixedILi24ELi1EL9ap_q_mode5EL9ap_o_mode3ELi0EEC1Ed(%struct.ap_fixed* getelementptr inbounds ([8192 x %struct.ap_fixed]* @_ZL4sine, i32 0, i32 141), double 0x3FE1B9E09FFFFA52)
  call void @_ZN8ap_fixedILi24ELi1EL9ap_q_mode5EL9ap_o_mode3ELi0EEC1Ed(%struct.ap_fixed* getelementptr inbounds ([8192 x %struct.ap_fixed]* @_ZL4sine, i32 0, i32 142), double 0x3FE1BCFFBFFFF898)
  call void @_ZN8ap_fixedILi24ELi1EL9ap_q_mode5EL9ap_o_mode3ELi0EEC1Ed(%struct.ap_fixed* getelementptr inbounds ([8192 x %struct.ap_fixed]* @_ZL4sine, i32 0, i32 143), double 0x3FE1C01EC0000D8E)
  call void @_ZN8ap_fixedILi24ELi1EL9ap_q_mode5EL9ap_o_mode3ELi0EEC1Ed(%struct.ap_fixed* getelementptr inbounds ([8192 x %struct.ap_fixed]* @_ZL4sine, i32 0, i32 144), double 0x3FE1C33DBFFFFF54)
  call void @_ZN8ap_fixedILi24ELi1EL9ap_q_mode5EL9ap_o_mode3ELi0EEC1Ed(%struct.ap_fixed* getelementptr inbounds ([8192 x %struct.ap_fixed]* @_ZL4sine, i32 0, i32 145), double 0x3FE1C65CA00007CB)
  call void @_ZN8ap_fixedILi24ELi1EL9ap_q_mode5EL9ap_o_mode3ELi0EEC1Ed(%struct.ap_fixed* getelementptr inbounds ([8192 x %struct.ap_fixed]* @_ZL4sine, i32 0, i32 146), double 0x3FE1C97B80001041)
  call void @_ZN8ap_fixedILi24ELi1EL9ap_q_mode5EL9ap_o_mode3ELi0EEC1Ed(%struct.ap_fixed* getelementptr inbounds ([8192 x %struct.ap_fixed]* @_ZL4sine, i32 0, i32 147), double 0x3FE1CC9A40000C37)
  call void @_ZN8ap_fixedILi24ELi1EL9ap_q_mode5EL9ap_o_mode3ELi0EEC1Ed(%struct.ap_fixed* getelementptr inbounds ([8192 x %struct.ap_fixed]* @_ZL4sine, i32 0, i32 148), double 0x3FE1CFB90000082D)
  call void @_ZN8ap_fixedILi24ELi1EL9ap_q_mode5EL9ap_o_mode3ELi0EEC1Ed(%struct.ap_fixed* getelementptr inbounds ([8192 x %struct.ap_fixed]* @_ZL4sine, i32 0, i32 149), double 0x3FE1D2D79FFFF7A4)
  call void @_ZN8ap_fixedILi24ELi1EL9ap_q_mode5EL9ap_o_mode3ELi0EEC1Ed(%struct.ap_fixed* getelementptr inbounds ([8192 x %struct.ap_fixed]* @_ZL4sine, i32 0, i32 150), double 0x3FE1D5F61FFFFDCB)
  call void @_ZN8ap_fixedILi24ELi1EL9ap_q_mode5EL9ap_o_mode3ELi0EEC1Ed(%struct.ap_fixed* getelementptr inbounds ([8192 x %struct.ap_fixed]* @_ZL4sine, i32 0, i32 151), double 0x3FE1D914A00003F1)
  call void @_ZN8ap_fixedILi24ELi1EL9ap_q_mode5EL9ap_o_mode3ELi0EEC1Ed(%struct.ap_fixed* getelementptr inbounds ([8192 x %struct.ap_fixed]* @_ZL4sine, i32 0, i32 152), double 0x3FE1DC3320000A18)
  call void @_ZN8ap_fixedILi24ELi1EL9ap_q_mode5EL9ap_o_mode3ELi0EEC1Ed(%struct.ap_fixed* getelementptr inbounds ([8192 x %struct.ap_fixed]* @_ZL4sine, i32 0, i32 153), double 0x3FE1DF51800003BF)
  call void @_ZN8ap_fixedILi24ELi1EL9ap_q_mode5EL9ap_o_mode3ELi0EEC1Ed(%struct.ap_fixed* getelementptr inbounds ([8192 x %struct.ap_fixed]* @_ZL4sine, i32 0, i32 154), double 0x3FE1E26FBFFFF0E6)
  call void @_ZN8ap_fixedILi24ELi1EL9ap_q_mode5EL9ap_o_mode3ELi0EEC1Ed(%struct.ap_fixed* getelementptr inbounds ([8192 x %struct.ap_fixed]* @_ZL4sine, i32 0, i32 155), double 0x3FE1E58DDFFFF4BD)
  call void @_ZN8ap_fixedILi24ELi1EL9ap_q_mode5EL9ap_o_mode3ELi0EEC1Ed(%struct.ap_fixed* getelementptr inbounds ([8192 x %struct.ap_fixed]* @_ZL4sine, i32 0, i32 156), double 0x3FE1E8AC20000514)
  call void @_ZN8ap_fixedILi24ELi1EL9ap_q_mode5EL9ap_o_mode3ELi0EEC1Ed(%struct.ap_fixed* getelementptr inbounds ([8192 x %struct.ap_fixed]* @_ZL4sine, i32 0, i32 157), double 0x3FE1EBCA1FFFFC6B)
  call void @_ZN8ap_fixedILi24ELi1EL9ap_q_mode5EL9ap_o_mode3ELi0EEC1Ed(%struct.ap_fixed* getelementptr inbounds ([8192 x %struct.ap_fixed]* @_ZL4sine, i32 0, i32 158), double 0x3FE1EEE81FFFF3C2)
  call void @_ZN8ap_fixedILi24ELi1EL9ap_q_mode5EL9ap_o_mode3ELi0EEC1Ed(%struct.ap_fixed* getelementptr inbounds ([8192 x %struct.ap_fixed]* @_ZL4sine, i32 0, i32 159), double 0x3FE1F206000001C9)
  call void @_ZN8ap_fixedILi24ELi1EL9ap_q_mode5EL9ap_o_mode3ELi0EEC1Ed(%struct.ap_fixed* getelementptr inbounds ([8192 x %struct.ap_fixed]* @_ZL4sine, i32 0, i32 160), double 0x3FE1F523E0000FD0)
  call void @_ZN8ap_fixedILi24ELi1EL9ap_q_mode5EL9ap_o_mode3ELi0EEC1Ed(%struct.ap_fixed* getelementptr inbounds ([8192 x %struct.ap_fixed]* @_ZL4sine, i32 0, i32 161), double 0x3FE1F841A0001158)
  call void @_ZN8ap_fixedILi24ELi1EL9ap_q_mode5EL9ap_o_mode3ELi0EEC1Ed(%struct.ap_fixed* getelementptr inbounds ([8192 x %struct.ap_fixed]* @_ZL4sine, i32 0, i32 162), double 0x3FE1FB5F5FFFEFB0)
  call void @_ZN8ap_fixedILi24ELi1EL9ap_q_mode5EL9ap_o_mode3ELi0EEC1Ed(%struct.ap_fixed* getelementptr inbounds ([8192 x %struct.ap_fixed]* @_ZL4sine, i32 0, i32 163), double 0x3FE1FE7CDFFFFB68)
  call void @_ZN8ap_fixedILi24ELi1EL9ap_q_mode5EL9ap_o_mode3ELi0EEC1Ed(%struct.ap_fixed* getelementptr inbounds ([8192 x %struct.ap_fixed]* @_ZL4sine, i32 0, i32 164), double 0x3FE2019A7FFFF06F)
  call void @_ZN8ap_fixedILi24ELi1EL9ap_q_mode5EL9ap_o_mode3ELi0EEC1Ed(%struct.ap_fixed* getelementptr inbounds ([8192 x %struct.ap_fixed]* @_ZL4sine, i32 0, i32 165), double 0x3FE204B7DFFFEFA7)
  call void @_ZN8ap_fixedILi24ELi1EL9ap_q_mode5EL9ap_o_mode3ELi0EEC1Ed(%struct.ap_fixed* getelementptr inbounds ([8192 x %struct.ap_fixed]* @_ZL4sine, i32 0, i32 166), double 0x3FE207D53FFFEEDF)
  call void @_ZN8ap_fixedILi24ELi1EL9ap_q_mode5EL9ap_o_mode3ELi0EEC1Ed(%struct.ap_fixed* getelementptr inbounds ([8192 x %struct.ap_fixed]* @_ZL4sine, i32 0, i32 167), double 0x3FE20AF2A0001146)
  call void @_ZN8ap_fixedILi24ELi1EL9ap_q_mode5EL9ap_o_mode3ELi0EEC1Ed(%struct.ap_fixed* getelementptr inbounds ([8192 x %struct.ap_fixed]* @_ZL4sine, i32 0, i32 168), double 0x3FE20E0FE00003FF)
  call void @_ZN8ap_fixedILi24ELi1EL9ap_q_mode5EL9ap_o_mode3ELi0EEC1Ed(%struct.ap_fixed* getelementptr inbounds ([8192 x %struct.ap_fixed]* @_ZL4sine, i32 0, i32 169), double 0x3FE2112D00000D66)
  call void @_ZN8ap_fixedILi24ELi1EL9ap_q_mode5EL9ap_o_mode3ELi0EEC1Ed(%struct.ap_fixed* getelementptr inbounds ([8192 x %struct.ap_fixed]* @_ZL4sine, i32 0, i32 170), double 0x3FE2144A00000A4F)
  call void @_ZN8ap_fixedILi24ELi1EL9ap_q_mode5EL9ap_o_mode3ELi0EEC1Ed(%struct.ap_fixed* getelementptr inbounds ([8192 x %struct.ap_fixed]* @_ZL4sine, i32 0, i32 171), double 0x3FE2176700000737)
  call void @_ZN8ap_fixedILi24ELi1EL9ap_q_mode5EL9ap_o_mode3ELi0EEC1Ed(%struct.ap_fixed* getelementptr inbounds ([8192 x %struct.ap_fixed]* @_ZL4sine, i32 0, i32 172), double 0x3FE21A83DFFFF7A0)
  call void @_ZN8ap_fixedILi24ELi1EL9ap_q_mode5EL9ap_o_mode3ELi0EEC1Ed(%struct.ap_fixed* getelementptr inbounds ([8192 x %struct.ap_fixed]* @_ZL4sine, i32 0, i32 173), double 0x3FE21DA0C0000B38)
  call void @_ZN8ap_fixedILi24ELi1EL9ap_q_mode5EL9ap_o_mode3ELi0EEC1Ed(%struct.ap_fixed* getelementptr inbounds ([8192 x %struct.ap_fixed]* @_ZL4sine, i32 0, i32 174), double 0x3FE220BD7FFFEF21)
  call void @_ZN8ap_fixedILi24ELi1EL9ap_q_mode5EL9ap_o_mode3ELi0EEC1Ed(%struct.ap_fixed* getelementptr inbounds ([8192 x %struct.ap_fixed]* @_ZL4sine, i32 0, i32 175), double 0x3FE223DA20000CE9)
  call void @_ZN8ap_fixedILi24ELi1EL9ap_q_mode5EL9ap_o_mode3ELi0EEC1Ed(%struct.ap_fixed* getelementptr inbounds ([8192 x %struct.ap_fixed]* @_ZL4sine, i32 0, i32 176), double 0x3FE226F6C0000782)
  call void @_ZN8ap_fixedILi24ELi1EL9ap_q_mode5EL9ap_o_mode3ELi0EEC1Ed(%struct.ap_fixed* getelementptr inbounds ([8192 x %struct.ap_fixed]* @_ZL4sine, i32 0, i32 177), double 0x3FE22A133FFFF59B)
  call void @_ZN8ap_fixedILi24ELi1EL9ap_q_mode5EL9ap_o_mode3ELi0EEC1Ed(%struct.ap_fixed* getelementptr inbounds ([8192 x %struct.ap_fixed]* @_ZL4sine, i32 0, i32 178), double 0x3FE22D2F9FFFFA64)
  call void @_ZN8ap_fixedILi24ELi1EL9ap_q_mode5EL9ap_o_mode3ELi0EEC1Ed(%struct.ap_fixed* getelementptr inbounds ([8192 x %struct.ap_fixed]* @_ZL4sine, i32 0, i32 179), double 0x3FE2304BFFFFFF2D)
  call void @_ZN8ap_fixedILi24ELi1EL9ap_q_mode5EL9ap_o_mode3ELi0EEC1Ed(%struct.ap_fixed* getelementptr inbounds ([8192 x %struct.ap_fixed]* @_ZL4sine, i32 0, i32 180), double 0x3FE2336820000E26)
  call void @_ZN8ap_fixedILi24ELi1EL9ap_q_mode5EL9ap_o_mode3ELi0EEC1Ed(%struct.ap_fixed* getelementptr inbounds ([8192 x %struct.ap_fixed]* @_ZL4sine, i32 0, i32 181), double 0x3FE236846000066F)
  call void @_ZN8ap_fixedILi24ELi1EL9ap_q_mode5EL9ap_o_mode3ELi0EEC1Ed(%struct.ap_fixed* getelementptr inbounds ([8192 x %struct.ap_fixed]* @_ZL4sine, i32 0, i32 182), double 0x3FE239A0600008E8)
  call void @_ZN8ap_fixedILi24ELi1EL9ap_q_mode5EL9ap_o_mode3ELi0EEC1Ed(%struct.ap_fixed* getelementptr inbounds ([8192 x %struct.ap_fixed]* @_ZL4sine, i32 0, i32 183), double 0x3FE23CBC60000B62)
  call void @_ZN8ap_fixedILi24ELi1EL9ap_q_mode5EL9ap_o_mode3ELi0EEC1Ed(%struct.ap_fixed* getelementptr inbounds ([8192 x %struct.ap_fixed]* @_ZL4sine, i32 0, i32 184), double 0x3FE23FD84000015B)
  call void @_ZN8ap_fixedILi24ELi1EL9ap_q_mode5EL9ap_o_mode3ELi0EEC1Ed(%struct.ap_fixed* getelementptr inbounds ([8192 x %struct.ap_fixed]* @_ZL4sine, i32 0, i32 185), double 0x3FE242F41FFFF755)
  call void @_ZN8ap_fixedILi24ELi1EL9ap_q_mode5EL9ap_o_mode3ELi0EEC1Ed(%struct.ap_fixed* getelementptr inbounds ([8192 x %struct.ap_fixed]* @_ZL4sine, i32 0, i32 186), double 0x3FE2460FE00003FF)
  call void @_ZN8ap_fixedILi24ELi1EL9ap_q_mode5EL9ap_o_mode3ELi0EEC1Ed(%struct.ap_fixed* getelementptr inbounds ([8192 x %struct.ap_fixed]* @_ZL4sine, i32 0, i32 187), double 0x3FE2492B80000428)
  call void @_ZN8ap_fixedILi24ELi1EL9ap_q_mode5EL9ap_o_mode3ELi0EEC1Ed(%struct.ap_fixed* getelementptr inbounds ([8192 x %struct.ap_fixed]* @_ZL4sine, i32 0, i32 188), double 0x3FE24C46FFFFF7D3)
  call void @_ZN8ap_fixedILi24ELi1EL9ap_q_mode5EL9ap_o_mode3ELi0EEC1Ed(%struct.ap_fixed* getelementptr inbounds ([8192 x %struct.ap_fixed]* @_ZL4sine, i32 0, i32 189), double 0x3FE24F6280000EAC)
  call void @_ZN8ap_fixedILi24ELi1EL9ap_q_mode5EL9ap_o_mode3ELi0EEC1Ed(%struct.ap_fixed* getelementptr inbounds ([8192 x %struct.ap_fixed]* @_ZL4sine, i32 0, i32 190), double 0x3FE2527DDFFFF5D7)
  call void @_ZN8ap_fixedILi24ELi1EL9ap_q_mode5EL9ap_o_mode3ELi0EEC1Ed(%struct.ap_fixed* getelementptr inbounds ([8192 x %struct.ap_fixed]* @_ZL4sine, i32 0, i32 191), double 0x3FE255991FFFF3B1)
  call void @_ZN8ap_fixedILi24ELi1EL9ap_q_mode5EL9ap_o_mode3ELi0EEC1Ed(%struct.ap_fixed* getelementptr inbounds ([8192 x %struct.ap_fixed]* @_ZL4sine, i32 0, i32 192), double 0x3FE258B45FFFF18B)
  call void @_ZN8ap_fixedILi24ELi1EL9ap_q_mode5EL9ap_o_mode3ELi0EEC1Ed(%struct.ap_fixed* getelementptr inbounds ([8192 x %struct.ap_fixed]* @_ZL4sine, i32 0, i32 193), double 0x3FE25BCF5FFFF995)
  call void @_ZN8ap_fixedILi24ELi1EL9ap_q_mode5EL9ap_o_mode3ELi0EEC1Ed(%struct.ap_fixed* getelementptr inbounds ([8192 x %struct.ap_fixed]* @_ZL4sine, i32 0, i32 194), double 0x3FE25EEA80000E1F)
  call void @_ZN8ap_fixedILi24ELi1EL9ap_q_mode5EL9ap_o_mode3ELi0EEC1Ed(%struct.ap_fixed* getelementptr inbounds ([8192 x %struct.ap_fixed]* @_ZL4sine, i32 0, i32 195), double 0x3FE26205600009AA)
  call void @_ZN8ap_fixedILi24ELi1EL9ap_q_mode5EL9ap_o_mode3ELi0EEC1Ed(%struct.ap_fixed* getelementptr inbounds ([8192 x %struct.ap_fixed]* @_ZL4sine, i32 0, i32 196), double 0x3FE2652040000535)
  call void @_ZN8ap_fixedILi24ELi1EL9ap_q_mode5EL9ap_o_mode3ELi0EEC1Ed(%struct.ap_fixed* getelementptr inbounds ([8192 x %struct.ap_fixed]* @_ZL4sine, i32 0, i32 197), double 0x3FE2683AE0000AEF)
  call void @_ZN8ap_fixedILi24ELi1EL9ap_q_mode5EL9ap_o_mode3ELi0EEC1Ed(%struct.ap_fixed* getelementptr inbounds ([8192 x %struct.ap_fixed]* @_ZL4sine, i32 0, i32 198), double 0x3FE26B559FFFF9FA)
  call void @_ZN8ap_fixedILi24ELi1EL9ap_q_mode5EL9ap_o_mode3ELi0EEC1Ed(%struct.ap_fixed* getelementptr inbounds ([8192 x %struct.ap_fixed]* @_ZL4sine, i32 0, i32 199), double 0x3FE26E701FFFF336)
  call void @_ZN8ap_fixedILi24ELi1EL9ap_q_mode5EL9ap_o_mode3ELi0EEC1Ed(%struct.ap_fixed* getelementptr inbounds ([8192 x %struct.ap_fixed]* @_ZL4sine, i32 0, i32 200), double 0x3FE2718AA0000FA0)
  call void @_ZN8ap_fixedILi24ELi1EL9ap_q_mode5EL9ap_o_mode3ELi0EEC1Ed(%struct.ap_fixed* getelementptr inbounds ([8192 x %struct.ap_fixed]* @_ZL4sine, i32 0, i32 201), double 0x3FE274A4FFFFFC5C)
  call void @_ZN8ap_fixedILi24ELi1EL9ap_q_mode5EL9ap_o_mode3ELi0EEC1Ed(%struct.ap_fixed* getelementptr inbounds ([8192 x %struct.ap_fixed]* @_ZL4sine, i32 0, i32 202), double 0x3FE277BF3FFFFFC7)
  call void @_ZN8ap_fixedILi24ELi1EL9ap_q_mode5EL9ap_o_mode3ELi0EEC1Ed(%struct.ap_fixed* getelementptr inbounds ([8192 x %struct.ap_fixed]* @_ZL4sine, i32 0, i32 203), double 0x3FE27AD95FFFF6B2)
  call void @_ZN8ap_fixedILi24ELi1EL9ap_q_mode5EL9ap_o_mode3ELi0EEC1Ed(%struct.ap_fixed* getelementptr inbounds ([8192 x %struct.ap_fixed]* @_ZL4sine, i32 0, i32 204), double 0x3FE27DF3800010CD)
  call void @_ZN8ap_fixedILi24ELi1EL9ap_q_mode5EL9ap_o_mode3ELi0EEC1Ed(%struct.ap_fixed* getelementptr inbounds ([8192 x %struct.ap_fixed]* @_ZL4sine, i32 0, i32 205), double 0x3FE2810D7FFFFB39)
  call void @_ZN8ap_fixedILi24ELi1EL9ap_q_mode5EL9ap_o_mode3ELi0EEC1Ed(%struct.ap_fixed* getelementptr inbounds ([8192 x %struct.ap_fixed]* @_ZL4sine, i32 0, i32 206), double 0x3FE284275FFFFC55)
  call void @_ZN8ap_fixedILi24ELi1EL9ap_q_mode5EL9ap_o_mode3ELi0EEC1Ed(%struct.ap_fixed* getelementptr inbounds ([8192 x %struct.ap_fixed]* @_ZL4sine, i32 0, i32 207), double 0x3FE287411FFFF0F1)
  call void @_ZN8ap_fixedILi24ELi1EL9ap_q_mode5EL9ap_o_mode3ELi0EEC1Ed(%struct.ap_fixed* getelementptr inbounds ([8192 x %struct.ap_fixed]* @_ZL4sine, i32 0, i32 208), double 0x3FE28A5AE00008BC)
  call void @_ZN8ap_fixedILi24ELi1EL9ap_q_mode5EL9ap_o_mode3ELi0EEC1Ed(%struct.ap_fixed* getelementptr inbounds ([8192 x %struct.ap_fixed]* @_ZL4sine, i32 0, i32 209), double 0x3FE28D7460000789)
  call void @_ZN8ap_fixedILi24ELi1EL9ap_q_mode5EL9ap_o_mode3ELi0EEC1Ed(%struct.ap_fixed* getelementptr inbounds ([8192 x %struct.ap_fixed]* @_ZL4sine, i32 0, i32 210), double 0x3FE2908DE0000655)
  call void @_ZN8ap_fixedILi24ELi1EL9ap_q_mode5EL9ap_o_mode3ELi0EEC1Ed(%struct.ap_fixed* getelementptr inbounds ([8192 x %struct.ap_fixed]* @_ZL4sine, i32 0, i32 211), double 0x3FE293A73FFFF8A1)
  call void @_ZN8ap_fixedILi24ELi1EL9ap_q_mode5EL9ap_o_mode3ELi0EEC1Ed(%struct.ap_fixed* getelementptr inbounds ([8192 x %struct.ap_fixed]* @_ZL4sine, i32 0, i32 212), double 0x3FE296C0A0000E1D)
  call void @_ZN8ap_fixedILi24ELi1EL9ap_q_mode5EL9ap_o_mode3ELi0EEC1Ed(%struct.ap_fixed* getelementptr inbounds ([8192 x %struct.ap_fixed]* @_ZL4sine, i32 0, i32 213), double 0x3FE299D9C0000A9A)
  call void @_ZN8ap_fixedILi24ELi1EL9ap_q_mode5EL9ap_o_mode3ELi0EEC1Ed(%struct.ap_fixed* getelementptr inbounds ([8192 x %struct.ap_fixed]* @_ZL4sine, i32 0, i32 214), double 0x3FE29CF2E0000716)
  call void @_ZN8ap_fixedILi24ELi1EL9ap_q_mode5EL9ap_o_mode3ELi0EEC1Ed(%struct.ap_fixed* getelementptr inbounds ([8192 x %struct.ap_fixed]* @_ZL4sine, i32 0, i32 215), double 0x3FE2A00BDFFFF713)
  call void @_ZN8ap_fixedILi24ELi1EL9ap_q_mode5EL9ap_o_mode3ELi0EEC1Ed(%struct.ap_fixed* getelementptr inbounds ([8192 x %struct.ap_fixed]* @_ZL4sine, i32 0, i32 216), double 0x3FE2A324BFFFFDC0)
  call void @_ZN8ap_fixedILi24ELi1EL9ap_q_mode5EL9ap_o_mode3ELi0EEC1Ed(%struct.ap_fixed* getelementptr inbounds ([8192 x %struct.ap_fixed]* @_ZL4sine, i32 0, i32 217), double 0x3FE2A63DA000046C)
  call void @_ZN8ap_fixedILi24ELi1EL9ap_q_mode5EL9ap_o_mode3ELi0EEC1Ed(%struct.ap_fixed* getelementptr inbounds ([8192 x %struct.ap_fixed]* @_ZL4sine, i32 0, i32 218), double 0x3FE2A9563FFFF21A)
  call void @_ZN8ap_fixedILi24ELi1EL9ap_q_mode5EL9ap_o_mode3ELi0EEC1Ed(%struct.ap_fixed* getelementptr inbounds ([8192 x %struct.ap_fixed]* @_ZL4sine, i32 0, i32 219), double 0x3FE2AC6EE00002F7)
  call void @_ZN8ap_fixedILi24ELi1EL9ap_q_mode5EL9ap_o_mode3ELi0EEC1Ed(%struct.ap_fixed* getelementptr inbounds ([8192 x %struct.ap_fixed]* @_ZL4sine, i32 0, i32 220), double 0x3FE2AF8760000754)
  call void @_ZN8ap_fixedILi24ELi1EL9ap_q_mode5EL9ap_o_mode3ELi0EEC1Ed(%struct.ap_fixed* getelementptr inbounds ([8192 x %struct.ap_fixed]* @_ZL4sine, i32 0, i32 221), double 0x3FE2B29FBFFFFF31)
  call void @_ZN8ap_fixedILi24ELi1EL9ap_q_mode5EL9ap_o_mode3ELi0EEC1Ed(%struct.ap_fixed* getelementptr inbounds ([8192 x %struct.ap_fixed]* @_ZL4sine, i32 0, i32 222), double 0x3FE2B5B800000DBE)
  call void @_ZN8ap_fixedILi24ELi1EL9ap_q_mode5EL9ap_o_mode3ELi0EEC1Ed(%struct.ap_fixed* getelementptr inbounds ([8192 x %struct.ap_fixed]* @_ZL4sine, i32 0, i32 223), double 0x3FE2B8D020000FCC)
  call void @_ZN8ap_fixedILi24ELi1EL9ap_q_mode5EL9ap_o_mode3ELi0EEC1Ed(%struct.ap_fixed* getelementptr inbounds ([8192 x %struct.ap_fixed]* @_ZL4sine, i32 0, i32 224), double 0x3FE2BBE83FFFEEAA)
  call void @_ZN8ap_fixedILi24ELi1EL9ap_q_mode5EL9ap_o_mode3ELi0EEC1Ed(%struct.ap_fixed* getelementptr inbounds ([8192 x %struct.ap_fixed]* @_ZL4sine, i32 0, i32 225), double 0x3FE2BF0040000768)
  call void @_ZN8ap_fixedILi24ELi1EL9ap_q_mode5EL9ap_o_mode3ELi0EEC1Ed(%struct.ap_fixed* getelementptr inbounds ([8192 x %struct.ap_fixed]* @_ZL4sine, i32 0, i32 226), double 0x3FE2C2181FFFF076)
  call void @_ZN8ap_fixedILi24ELi1EL9ap_q_mode5EL9ap_o_mode3ELi0EEC1Ed(%struct.ap_fixed* getelementptr inbounds ([8192 x %struct.ap_fixed]* @_ZL4sine, i32 0, i32 227), double 0x3FE2C52FDFFFF034)
  call void @_ZN8ap_fixedILi24ELi1EL9ap_q_mode5EL9ap_o_mode3ELi0EEC1Ed(%struct.ap_fixed* getelementptr inbounds ([8192 x %struct.ap_fixed]* @_ZL4sine, i32 0, i32 228), double 0x3FE2C847800006A2)
  call void @_ZN8ap_fixedILi24ELi1EL9ap_q_mode5EL9ap_o_mode3ELi0EEC1Ed(%struct.ap_fixed* getelementptr inbounds ([8192 x %struct.ap_fixed]* @_ZL4sine, i32 0, i32 229), double 0x3FE2CB5F00001090)
  call void @_ZN8ap_fixedILi24ELi1EL9ap_q_mode5EL9ap_o_mode3ELi0EEC1Ed(%struct.ap_fixed* getelementptr inbounds ([8192 x %struct.ap_fixed]* @_ZL4sine, i32 0, i32 230), double 0x3FE2CE767FFFF74F)
  call void @_ZN8ap_fixedILi24ELi1EL9ap_q_mode5EL9ap_o_mode3ELi0EEC1Ed(%struct.ap_fixed* getelementptr inbounds ([8192 x %struct.ap_fixed]* @_ZL4sine, i32 0, i32 231), double 0x3FE2D18DC0000B6D)
  call void @_ZN8ap_fixedILi24ELi1EL9ap_q_mode5EL9ap_o_mode3ELi0EEC1Ed(%struct.ap_fixed* getelementptr inbounds ([8192 x %struct.ap_fixed]* @_ZL4sine, i32 0, i32 232), double 0x3FE2D4A4FFFFFC5C)
  call void @_ZN8ap_fixedILi24ELi1EL9ap_q_mode5EL9ap_o_mode3ELi0EEC1Ed(%struct.ap_fixed* getelementptr inbounds ([8192 x %struct.ap_fixed]* @_ZL4sine, i32 0, i32 233), double 0x3FE2D7BC200003FA)
  call void @_ZN8ap_fixedILi24ELi1EL9ap_q_mode5EL9ap_o_mode3ELi0EEC1Ed(%struct.ap_fixed* getelementptr inbounds ([8192 x %struct.ap_fixed]* @_ZL4sine, i32 0, i32 234), double 0x3FE2DAD31FFFFF19)
  call void @_ZN8ap_fixedILi24ELi1EL9ap_q_mode5EL9ap_o_mode3ELi0EEC1Ed(%struct.ap_fixed* getelementptr inbounds ([8192 x %struct.ap_fixed]* @_ZL4sine, i32 0, i32 235), double 0x3FE2DDEA000010E8)
  call void @_ZN8ap_fixedILi24ELi1EL9ap_q_mode5EL9ap_o_mode3ELi0EEC1Ed(%struct.ap_fixed* getelementptr inbounds ([8192 x %struct.ap_fixed]* @_ZL4sine, i32 0, i32 236), double 0x3FE2E100BFFFF307)
  call void @_ZN8ap_fixedILi24ELi1EL9ap_q_mode5EL9ap_o_mode3ELi0EEC1Ed(%struct.ap_fixed* getelementptr inbounds ([8192 x %struct.ap_fixed]* @_ZL4sine, i32 0, i32 237), double 0x3FE2E41760000F06)
  call void @_ZN8ap_fixedILi24ELi1EL9ap_q_mode5EL9ap_o_mode3ELi0EEC1Ed(%struct.ap_fixed* getelementptr inbounds ([8192 x %struct.ap_fixed]* @_ZL4sine, i32 0, i32 238), double 0x3FE2E72E000007D6)
  call void @_ZN8ap_fixedILi24ELi1EL9ap_q_mode5EL9ap_o_mode3ELi0EEC1Ed(%struct.ap_fixed* getelementptr inbounds ([8192 x %struct.ap_fixed]* @_ZL4sine, i32 0, i32 239), double 0x3FE2EA4460000AD5)
  call void @_ZN8ap_fixedILi24ELi1EL9ap_q_mode5EL9ap_o_mode3ELi0EEC1Ed(%struct.ap_fixed* getelementptr inbounds ([8192 x %struct.ap_fixed]* @_ZL4sine, i32 0, i32 240), double 0x3FE2ED5AC0000DD4)
  call void @_ZN8ap_fixedILi24ELi1EL9ap_q_mode5EL9ap_o_mode3ELi0EEC1Ed(%struct.ap_fixed* getelementptr inbounds ([8192 x %struct.ap_fixed]* @_ZL4sine, i32 0, i32 241), double 0x3FE2F07100000454)
  call void @_ZN8ap_fixedILi24ELi1EL9ap_q_mode5EL9ap_o_mode3ELi0EEC1Ed(%struct.ap_fixed* getelementptr inbounds ([8192 x %struct.ap_fixed]* @_ZL4sine, i32 0, i32 242), double 0x3FE2F38700000504)
  call void @_ZN8ap_fixedILi24ELi1EL9ap_q_mode5EL9ap_o_mode3ELi0EEC1Ed(%struct.ap_fixed* getelementptr inbounds ([8192 x %struct.ap_fixed]* @_ZL4sine, i32 0, i32 243), double 0x3FE2F69D000005B4)
  call void @_ZN8ap_fixedILi24ELi1EL9ap_q_mode5EL9ap_o_mode3ELi0EEC1Ed(%struct.ap_fixed* getelementptr inbounds ([8192 x %struct.ap_fixed]* @_ZL4sine, i32 0, i32 244), double 0x3FE2F9B2DFFFF9E4)
  call void @_ZN8ap_fixedILi24ELi1EL9ap_q_mode5EL9ap_o_mode3ELi0EEC1Ed(%struct.ap_fixed* getelementptr inbounds ([8192 x %struct.ap_fixed]* @_ZL4sine, i32 0, i32 245), double 0x3FE2FCC8A00004C4)
  call void @_ZN8ap_fixedILi24ELi1EL9ap_q_mode5EL9ap_o_mode3ELi0EEC1Ed(%struct.ap_fixed* getelementptr inbounds ([8192 x %struct.ap_fixed]* @_ZL4sine, i32 0, i32 246), double 0x3FE2FFDE60000FA4)
  call void @_ZN8ap_fixedILi24ELi1EL9ap_q_mode5EL9ap_o_mode3ELi0EEC1Ed(%struct.ap_fixed* getelementptr inbounds ([8192 x %struct.ap_fixed]* @_ZL4sine, i32 0, i32 247), double 0x3FE302F3E0000185)
  call void @_ZN8ap_fixedILi24ELi1EL9ap_q_mode5EL9ap_o_mode3ELi0EEC1Ed(%struct.ap_fixed* getelementptr inbounds ([8192 x %struct.ap_fixed]* @_ZL4sine, i32 0, i32 248), double 0x3FE3060940000A16)
  call void @_ZN8ap_fixedILi24ELi1EL9ap_q_mode5EL9ap_o_mode3ELi0EEC1Ed(%struct.ap_fixed* getelementptr inbounds ([8192 x %struct.ap_fixed]* @_ZL4sine, i32 0, i32 249), double 0x3FE3091E9FFFEF77)
  call void @_ZN8ap_fixedILi24ELi1EL9ap_q_mode5EL9ap_o_mode3ELi0EEC1Ed(%struct.ap_fixed* getelementptr inbounds ([8192 x %struct.ap_fixed]* @_ZL4sine, i32 0, i32 250), double 0x3FE30C33C0000237)
  call void @_ZN8ap_fixedILi24ELi1EL9ap_q_mode5EL9ap_o_mode3ELi0EEC1Ed(%struct.ap_fixed* getelementptr inbounds ([8192 x %struct.ap_fixed]* @_ZL4sine, i32 0, i32 251), double 0x3FE30F48DFFFF1C9)
  call void @_ZN8ap_fixedILi24ELi1EL9ap_q_mode5EL9ap_o_mode3ELi0EEC1Ed(%struct.ap_fixed* getelementptr inbounds ([8192 x %struct.ap_fixed]* @_ZL4sine, i32 0, i32 252), double 0x3FE3125DC0000EB9)
  call void @_ZN8ap_fixedILi24ELi1EL9ap_q_mode5EL9ap_o_mode3ELi0EEC1Ed(%struct.ap_fixed* getelementptr inbounds ([8192 x %struct.ap_fixed]* @_ZL4sine, i32 0, i32 253), double 0x3FE31572A000087A)
  call void @_ZN8ap_fixedILi24ELi1EL9ap_q_mode5EL9ap_o_mode3ELi0EEC1Ed(%struct.ap_fixed* getelementptr inbounds ([8192 x %struct.ap_fixed]* @_ZL4sine, i32 0, i32 254), double 0x3FE3188740000C6C)
  call void @_ZN8ap_fixedILi24ELi1EL9ap_q_mode5EL9ap_o_mode3ELi0EEC1Ed(%struct.ap_fixed* getelementptr inbounds ([8192 x %struct.ap_fixed]* @_ZL4sine, i32 0, i32 255), double 0x3FE31B9BE000105D)
  call void @_ZN8ap_fixedILi24ELi1EL9ap_q_mode5EL9ap_o_mode3ELi0EEC1Ed(%struct.ap_fixed* getelementptr inbounds ([8192 x %struct.ap_fixed]* @_ZL4sine, i32 0, i32 256), double 0x3FE31EB0600007CF)
  call void @_ZN8ap_fixedILi24ELi1EL9ap_q_mode5EL9ap_o_mode3ELi0EEC1Ed(%struct.ap_fixed* getelementptr inbounds ([8192 x %struct.ap_fixed]* @_ZL4sine, i32 0, i32 257), double 0x3FE321C4BFFFF2C1)
  call void @_ZN8ap_fixedILi24ELi1EL9ap_q_mode5EL9ap_o_mode3ELi0EEC1Ed(%struct.ap_fixed* getelementptr inbounds ([8192 x %struct.ap_fixed]* @_ZL4sine, i32 0, i32 258), double 0x3FE324D8FFFFF463)
  call void @_ZN8ap_fixedILi24ELi1EL9ap_q_mode5EL9ap_o_mode3ELi0EEC1Ed(%struct.ap_fixed* getelementptr inbounds ([8192 x %struct.ap_fixed]* @_ZL4sine, i32 0, i32 259), double 0x3FE327ED00000035)
  call void @_ZN8ap_fixedILi24ELi1EL9ap_q_mode5EL9ap_o_mode3ELi0EEC1Ed(%struct.ap_fixed* getelementptr inbounds ([8192 x %struct.ap_fixed]* @_ZL4sine, i32 0, i32 260), double 0x3FE32B0100000C07)
  call void @_ZN8ap_fixedILi24ELi1EL9ap_q_mode5EL9ap_o_mode3ELi0EEC1Ed(%struct.ap_fixed* getelementptr inbounds ([8192 x %struct.ap_fixed]* @_ZL4sine, i32 0, i32 261), double 0x3FE32E14E0000B59)
  call void @_ZN8ap_fixedILi24ELi1EL9ap_q_mode5EL9ap_o_mode3ELi0EEC1Ed(%struct.ap_fixed* getelementptr inbounds ([8192 x %struct.ap_fixed]* @_ZL4sine, i32 0, i32 262), double 0x3FE331289FFFFE2C)
  call void @_ZN8ap_fixedILi24ELi1EL9ap_q_mode5EL9ap_o_mode3ELi0EEC1Ed(%struct.ap_fixed* getelementptr inbounds ([8192 x %struct.ap_fixed]* @_ZL4sine, i32 0, i32 263), double 0x3FE3343C400007AE)
  call void @_ZN8ap_fixedILi24ELi1EL9ap_q_mode5EL9ap_o_mode3ELi0EEC1Ed(%struct.ap_fixed* getelementptr inbounds ([8192 x %struct.ap_fixed]* @_ZL4sine, i32 0, i32 264), double 0x3FE3374FC00004B1)
  call void @_ZN8ap_fixedILi24ELi1EL9ap_q_mode5EL9ap_o_mode3ELi0EEC1Ed(%struct.ap_fixed* getelementptr inbounds ([8192 x %struct.ap_fixed]* @_ZL4sine, i32 0, i32 265), double 0x3FE33A631FFFF534)
  call void @_ZN8ap_fixedILi24ELi1EL9ap_q_mode5EL9ap_o_mode3ELi0EEC1Ed(%struct.ap_fixed* getelementptr inbounds ([8192 x %struct.ap_fixed]* @_ZL4sine, i32 0, i32 266), double 0x3FE33D765FFFFC67)
  call void @_ZN8ap_fixedILi24ELi1EL9ap_q_mode5EL9ap_o_mode3ELi0EEC1Ed(%struct.ap_fixed* getelementptr inbounds ([8192 x %struct.ap_fixed]* @_ZL4sine, i32 0, i32 267), double 0x3FE340897FFFF71A)
  call void @_ZN8ap_fixedILi24ELi1EL9ap_q_mode5EL9ap_o_mode3ELi0EEC1Ed(%struct.ap_fixed* getelementptr inbounds ([8192 x %struct.ap_fixed]* @_ZL4sine, i32 0, i32 268), double 0x3FE3439C8000087D)
  call void @_ZN8ap_fixedILi24ELi1EL9ap_q_mode5EL9ap_o_mode3ELi0EEC1Ed(%struct.ap_fixed* getelementptr inbounds ([8192 x %struct.ap_fixed]* @_ZL4sine, i32 0, i32 269), double 0x3FE346AF60000D60)
  call void @_ZN8ap_fixedILi24ELi1EL9ap_q_mode5EL9ap_o_mode3ELi0EEC1Ed(%struct.ap_fixed* getelementptr inbounds ([8192 x %struct.ap_fixed]* @_ZL4sine, i32 0, i32 270), double 0x3FE349C2200005C4)
  call void @_ZN8ap_fixedILi24ELi1EL9ap_q_mode5EL9ap_o_mode3ELi0EEC1Ed(%struct.ap_fixed* getelementptr inbounds ([8192 x %struct.ap_fixed]* @_ZL4sine, i32 0, i32 271), double 0x3FE34CD4BFFFF1A8)
  call void @_ZN8ap_fixedILi24ELi1EL9ap_q_mode5EL9ap_o_mode3ELi0EEC1Ed(%struct.ap_fixed* getelementptr inbounds ([8192 x %struct.ap_fixed]* @_ZL4sine, i32 0, i32 272), double 0x3FE34FE73FFFF43B)
  call void @_ZN8ap_fixedILi24ELi1EL9ap_q_mode5EL9ap_o_mode3ELi0EEC1Ed(%struct.ap_fixed* getelementptr inbounds ([8192 x %struct.ap_fixed]* @_ZL4sine, i32 0, i32 273), double 0x3FE352F9A0000D7F)
  call void @_ZN8ap_fixedILi24ELi1EL9ap_q_mode5EL9ap_o_mode3ELi0EEC1Ed(%struct.ap_fixed* getelementptr inbounds ([8192 x %struct.ap_fixed]* @_ZL4sine, i32 0, i32 274), double 0x3FE3560BDFFFF713)
  call void @_ZN8ap_fixedILi24ELi1EL9ap_q_mode5EL9ap_o_mode3ELi0EEC1Ed(%struct.ap_fixed* getelementptr inbounds ([8192 x %struct.ap_fixed]* @_ZL4sine, i32 0, i32 275), double 0x3FE3591DE0000E07)
  call void @_ZN8ap_fixedILi24ELi1EL9ap_q_mode5EL9ap_o_mode3ELi0EEC1Ed(%struct.ap_fixed* getelementptr inbounds ([8192 x %struct.ap_fixed]* @_ZL4sine, i32 0, i32 276), double 0x3FE35C2FE00001CC)
  call void @_ZN8ap_fixedILi24ELi1EL9ap_q_mode5EL9ap_o_mode3ELi0EEC1Ed(%struct.ap_fixed* getelementptr inbounds ([8192 x %struct.ap_fixed]* @_ZL4sine, i32 0, i32 277), double 0x3FE35F41C0000C40)
  call void @_ZN8ap_fixedILi24ELi1EL9ap_q_mode5EL9ap_o_mode3ELi0EEC1Ed(%struct.ap_fixed* getelementptr inbounds ([8192 x %struct.ap_fixed]* @_ZL4sine, i32 0, i32 278), double 0x3FE3625380000A34)
  call void @_ZN8ap_fixedILi24ELi1EL9ap_q_mode5EL9ap_o_mode3ELi0EEC1Ed(%struct.ap_fixed* getelementptr inbounds ([8192 x %struct.ap_fixed]* @_ZL4sine, i32 0, i32 279), double 0x3FE365651FFFFBA9)
  call void @_ZN8ap_fixedILi24ELi1EL9ap_q_mode5EL9ap_o_mode3ELi0EEC1Ed(%struct.ap_fixed* getelementptr inbounds ([8192 x %struct.ap_fixed]* @_ZL4sine, i32 0, i32 280), double 0x3FE368767FFFF74F)
  call void @_ZN8ap_fixedILi24ELi1EL9ap_q_mode5EL9ap_o_mode3ELi0EEC1Ed(%struct.ap_fixed* getelementptr inbounds ([8192 x %struct.ap_fixed]* @_ZL4sine, i32 0, i32 281), double 0x3FE36B87DFFFF2F4)
  call void @_ZN8ap_fixedILi24ELi1EL9ap_q_mode5EL9ap_o_mode3ELi0EEC1Ed(%struct.ap_fixed* getelementptr inbounds ([8192 x %struct.ap_fixed]* @_ZL4sine, i32 0, i32 282), double 0x3FE36E98FFFFF8C9)
  call void @_ZN8ap_fixedILi24ELi1EL9ap_q_mode5EL9ap_o_mode3ELi0EEC1Ed(%struct.ap_fixed* getelementptr inbounds ([8192 x %struct.ap_fixed]* @_ZL4sine, i32 0, i32 283), double 0x3FE371AA1FFFFE9E)
  call void @_ZN8ap_fixedILi24ELi1EL9ap_q_mode5EL9ap_o_mode3ELi0EEC1Ed(%struct.ap_fixed* getelementptr inbounds ([8192 x %struct.ap_fixed]* @_ZL4sine, i32 0, i32 284), double 0x3FE374BB00000EA3)
  call void @_ZN8ap_fixedILi24ELi1EL9ap_q_mode5EL9ap_o_mode3ELi0EEC1Ed(%struct.ap_fixed* getelementptr inbounds ([8192 x %struct.ap_fixed]* @_ZL4sine, i32 0, i32 285), double 0x3FE377CBDFFFFB79)
  call void @_ZN8ap_fixedILi24ELi1EL9ap_q_mode5EL9ap_o_mode3ELi0EEC1Ed(%struct.ap_fixed* getelementptr inbounds ([8192 x %struct.ap_fixed]* @_ZL4sine, i32 0, i32 286), double 0x3FE37ADC7FFFF27F)
  call void @_ZN8ap_fixedILi24ELi1EL9ap_q_mode5EL9ap_o_mode3ELi0EEC1Ed(%struct.ap_fixed* getelementptr inbounds ([8192 x %struct.ap_fixed]* @_ZL4sine, i32 0, i32 287), double 0x3FE37DED00000035)
  call void @_ZN8ap_fixedILi24ELi1EL9ap_q_mode5EL9ap_o_mode3ELi0EEC1Ed(%struct.ap_fixed* getelementptr inbounds ([8192 x %struct.ap_fixed]* @_ZL4sine, i32 0, i32 288), double 0x3FE380FD6000016B)
  call void @_ZN8ap_fixedILi24ELi1EL9ap_q_mode5EL9ap_o_mode3ELi0EEC1Ed(%struct.ap_fixed* getelementptr inbounds ([8192 x %struct.ap_fixed]* @_ZL4sine, i32 0, i32 289), double 0x3FE3840D9FFFF621)
  call void @_ZN8ap_fixedILi24ELi1EL9ap_q_mode5EL9ap_o_mode3ELi0EEC1Ed(%struct.ap_fixed* getelementptr inbounds ([8192 x %struct.ap_fixed]* @_ZL4sine, i32 0, i32 290), double 0x3FE3871DC0000187)
  call void @_ZN8ap_fixedILi24ELi1EL9ap_q_mode5EL9ap_o_mode3ELi0EEC1Ed(%struct.ap_fixed* getelementptr inbounds ([8192 x %struct.ap_fixed]* @_ZL4sine, i32 0, i32 291), double 0x3FE38A2DC000006E)
  call void @_ZN8ap_fixedILi24ELi1EL9ap_q_mode5EL9ap_o_mode3ELi0EEC1Ed(%struct.ap_fixed* getelementptr inbounds ([8192 x %struct.ap_fixed]* @_ZL4sine, i32 0, i32 292), double 0x3FE38D3D9FFFF2D5)
  call void @_ZN8ap_fixedILi24ELi1EL9ap_q_mode5EL9ap_o_mode3ELi0EEC1Ed(%struct.ap_fixed* getelementptr inbounds ([8192 x %struct.ap_fixed]* @_ZL4sine, i32 0, i32 293), double 0x3FE3904D5FFFFBEB)
  call void @_ZN8ap_fixedILi24ELi1EL9ap_q_mode5EL9ap_o_mode3ELi0EEC1Ed(%struct.ap_fixed* getelementptr inbounds ([8192 x %struct.ap_fixed]* @_ZL4sine, i32 0, i32 294), double 0x3FE3935CFFFFF882)
  call void @_ZN8ap_fixedILi24ELi1EL9ap_q_mode5EL9ap_o_mode3ELi0EEC1Ed(%struct.ap_fixed* getelementptr inbounds ([8192 x %struct.ap_fixed]* @_ZL4sine, i32 0, i32 295), double 0x3FE3966C5FFFFF49)
  call void @_ZN8ap_fixedILi24ELi1EL9ap_q_mode5EL9ap_o_mode3ELi0EEC1Ed(%struct.ap_fixed* getelementptr inbounds ([8192 x %struct.ap_fixed]* @_ZL4sine, i32 0, i32 296), double 0x3FE3997BC0000611)
  call void @_ZN8ap_fixedILi24ELi1EL9ap_q_mode5EL9ap_o_mode3ELi0EEC1Ed(%struct.ap_fixed* getelementptr inbounds ([8192 x %struct.ap_fixed]* @_ZL4sine, i32 0, i32 297), double 0x3FE39C8ADFFFF3D8)
  call void @_ZN8ap_fixedILi24ELi1EL9ap_q_mode5EL9ap_o_mode3ELi0EEC1Ed(%struct.ap_fixed* getelementptr inbounds ([8192 x %struct.ap_fixed]* @_ZL4sine, i32 0, i32 298), double 0x3FE39F99DFFFF850)
  call void @_ZN8ap_fixedILi24ELi1EL9ap_q_mode5EL9ap_o_mode3ELi0EEC1Ed(%struct.ap_fixed* getelementptr inbounds ([8192 x %struct.ap_fixed]* @_ZL4sine, i32 0, i32 299), double 0x3FE3A2A8BFFFF048)
  call void @_ZN8ap_fixedILi24ELi1EL9ap_q_mode5EL9ap_o_mode3ELi0EEC1Ed(%struct.ap_fixed* getelementptr inbounds ([8192 x %struct.ap_fixed]* @_ZL4sine, i32 0, i32 300), double 0x3FE3A5B77FFFFEEF)
  call void @_ZN8ap_fixedILi24ELi1EL9ap_q_mode5EL9ap_o_mode3ELi0EEC1Ed(%struct.ap_fixed* getelementptr inbounds ([8192 x %struct.ap_fixed]* @_ZL4sine, i32 0, i32 301), double 0x3FE3A8C620000117)
  call void @_ZN8ap_fixedILi24ELi1EL9ap_q_mode5EL9ap_o_mode3ELi0EEC1Ed(%struct.ap_fixed* getelementptr inbounds ([8192 x %struct.ap_fixed]* @_ZL4sine, i32 0, i32 302), double 0x3FE3ABD49FFFF6C0)
  call void @_ZN8ap_fixedILi24ELi1EL9ap_q_mode5EL9ap_o_mode3ELi0EEC1Ed(%struct.ap_fixed* getelementptr inbounds ([8192 x %struct.ap_fixed]* @_ZL4sine, i32 0, i32 303), double 0x3FE3AEE2DFFFF698)
  call void @_ZN8ap_fixedILi24ELi1EL9ap_q_mode5EL9ap_o_mode3ELi0EEC1Ed(%struct.ap_fixed* getelementptr inbounds ([8192 x %struct.ap_fixed]* @_ZL4sine, i32 0, i32 304), double 0x3FE3B1F11FFFF670)
  call void @_ZN8ap_fixedILi24ELi1EL9ap_q_mode5EL9ap_o_mode3ELi0EEC1Ed(%struct.ap_fixed* getelementptr inbounds ([8192 x %struct.ap_fixed]* @_ZL4sine, i32 0, i32 305), double 0x3FE3B4FF20000079)
  call void @_ZN8ap_fixedILi24ELi1EL9ap_q_mode5EL9ap_o_mode3ELi0EEC1Ed(%struct.ap_fixed* getelementptr inbounds ([8192 x %struct.ap_fixed]* @_ZL4sine, i32 0, i32 306), double 0x3FE3B80CFFFFFE02)
  call void @_ZN8ap_fixedILi24ELi1EL9ap_q_mode5EL9ap_o_mode3ELi0EEC1Ed(%struct.ap_fixed* getelementptr inbounds ([8192 x %struct.ap_fixed]* @_ZL4sine, i32 0, i32 307), double 0x3FE3BB1ABFFFEF0B)
  call void @_ZN8ap_fixedILi24ELi1EL9ap_q_mode5EL9ap_o_mode3ELi0EEC1Ed(%struct.ap_fixed* getelementptr inbounds ([8192 x %struct.ap_fixed]* @_ZL4sine, i32 0, i32 308), double 0x3FE3BE285FFFF6C4)
  call void @_ZN8ap_fixedILi24ELi1EL9ap_q_mode5EL9ap_o_mode3ELi0EEC1Ed(%struct.ap_fixed* getelementptr inbounds ([8192 x %struct.ap_fixed]* @_ZL4sine, i32 0, i32 309), double 0x3FE3C135DFFFF1FD)
  call void @_ZN8ap_fixedILi24ELi1EL9ap_q_mode5EL9ap_o_mode3ELi0EEC1Ed(%struct.ap_fixed* getelementptr inbounds ([8192 x %struct.ap_fixed]* @_ZL4sine, i32 0, i32 310), double 0x3FE3C4431FFFF767)
  call void @_ZN8ap_fixedILi24ELi1EL9ap_q_mode5EL9ap_o_mode3ELi0EEC1Ed(%struct.ap_fixed* getelementptr inbounds ([8192 x %struct.ap_fixed]* @_ZL4sine, i32 0, i32 311), double 0x3FE3C7505FFFFCD0)
  call void @_ZN8ap_fixedILi24ELi1EL9ap_q_mode5EL9ap_o_mode3ELi0EEC1Ed(%struct.ap_fixed* getelementptr inbounds ([8192 x %struct.ap_fixed]* @_ZL4sine, i32 0, i32 312), double 0x3FE3CA5D60000C6A)
  call void @_ZN8ap_fixedILi24ELi1EL9ap_q_mode5EL9ap_o_mode3ELi0EEC1Ed(%struct.ap_fixed* getelementptr inbounds ([8192 x %struct.ap_fixed]* @_ZL4sine, i32 0, i32 313), double 0x3FE3CD6A40000F83)
  call void @_ZN8ap_fixedILi24ELi1EL9ap_q_mode5EL9ap_o_mode3ELi0EEC1Ed(%struct.ap_fixed* getelementptr inbounds ([8192 x %struct.ap_fixed]* @_ZL4sine, i32 0, i32 314), double 0x3FE3D0770000061E)
  call void @_ZN8ap_fixedILi24ELi1EL9ap_q_mode5EL9ap_o_mode3ELi0EEC1Ed(%struct.ap_fixed* getelementptr inbounds ([8192 x %struct.ap_fixed]* @_ZL4sine, i32 0, i32 315), double 0x3FE3D3839FFFF038)
  call void @_ZN8ap_fixedILi24ELi1EL9ap_q_mode5EL9ap_o_mode3ELi0EEC1Ed(%struct.ap_fixed* getelementptr inbounds ([8192 x %struct.ap_fixed]* @_ZL4sine, i32 0, i32 316), double 0x3FE3D690000007B2)
  call void @_ZN8ap_fixedILi24ELi1EL9ap_q_mode5EL9ap_o_mode3ELi0EEC1Ed(%struct.ap_fixed* getelementptr inbounds ([8192 x %struct.ap_fixed]* @_ZL4sine, i32 0, i32 317), double 0x3FE3D99C5FFFFBFD)
  call void @_ZN8ap_fixedILi24ELi1EL9ap_q_mode5EL9ap_o_mode3ELi0EEC1Ed(%struct.ap_fixed* getelementptr inbounds ([8192 x %struct.ap_fixed]* @_ZL4sine, i32 0, i32 318), double 0x3FE3DCA87FFFFA78)
  call void @_ZN8ap_fixedILi24ELi1EL9ap_q_mode5EL9ap_o_mode3ELi0EEC1Ed(%struct.ap_fixed* getelementptr inbounds ([8192 x %struct.ap_fixed]* @_ZL4sine, i32 0, i32 319), double 0x3FE3DFB480000FA2)
  call void @_ZN8ap_fixedILi24ELi1EL9ap_q_mode5EL9ap_o_mode3ELi0EEC1Ed(%struct.ap_fixed* getelementptr inbounds ([8192 x %struct.ap_fixed]* @_ZL4sine, i32 0, i32 320), double 0x3FE3E2C040000BCD)
  call void @_ZN8ap_fixedILi24ELi1EL9ap_q_mode5EL9ap_o_mode3ELi0EEC1Ed(%struct.ap_fixed* getelementptr inbounds ([8192 x %struct.ap_fixed]* @_ZL4sine, i32 0, i32 321), double 0x3FE3E5CC000007F9)
  call void @_ZN8ap_fixedILi24ELi1EL9ap_q_mode5EL9ap_o_mode3ELi0EEC1Ed(%struct.ap_fixed* getelementptr inbounds ([8192 x %struct.ap_fixed]* @_ZL4sine, i32 0, i32 322), double 0x3FE3E8D780000E54)
  call void @_ZN8ap_fixedILi24ELi1EL9ap_q_mode5EL9ap_o_mode3ELi0EEC1Ed(%struct.ap_fixed* getelementptr inbounds ([8192 x %struct.ap_fixed]* @_ZL4sine, i32 0, i32 323), double 0x3FE3EBE2FFFFF180)
  call void @_ZN8ap_fixedILi24ELi1EL9ap_q_mode5EL9ap_o_mode3ELi0EEC1Ed(%struct.ap_fixed* getelementptr inbounds ([8192 x %struct.ap_fixed]* @_ZL4sine, i32 0, i32 324), double 0x3FE3EEEE4000020B)
  call void @_ZN8ap_fixedILi24ELi1EL9ap_q_mode5EL9ap_o_mode3ELi0EEC1Ed(%struct.ap_fixed* getelementptr inbounds ([8192 x %struct.ap_fixed]* @_ZL4sine, i32 0, i32 325), double 0x3FE3F1F93FFFF998)
  call void @_ZN8ap_fixedILi24ELi1EL9ap_q_mode5EL9ap_o_mode3ELi0EEC1Ed(%struct.ap_fixed* getelementptr inbounds ([8192 x %struct.ap_fixed]* @_ZL4sine, i32 0, i32 326), double 0x3FE3F5043FFFF124)
  call void @_ZN8ap_fixedILi24ELi1EL9ap_q_mode5EL9ap_o_mode3ELi0EEC1Ed(%struct.ap_fixed* getelementptr inbounds ([8192 x %struct.ap_fixed]* @_ZL4sine, i32 0, i32 327), double 0x3FE3F80EFFFFF2E0)
  call void @_ZN8ap_fixedILi24ELi1EL9ap_q_mode5EL9ap_o_mode3ELi0EEC1Ed(%struct.ap_fixed* getelementptr inbounds ([8192 x %struct.ap_fixed]* @_ZL4sine, i32 0, i32 328), double 0x3FE3FB19A0000B4C)
  call void @_ZN8ap_fixedILi24ELi1EL9ap_q_mode5EL9ap_o_mode3ELi0EEC1Ed(%struct.ap_fixed* getelementptr inbounds ([8192 x %struct.ap_fixed]* @_ZL4sine, i32 0, i32 329), double 0x3FE3FE241FFFF409)
  call void @_ZN8ap_fixedILi24ELi1EL9ap_q_mode5EL9ap_o_mode3ELi0EEC1Ed(%struct.ap_fixed* getelementptr inbounds ([8192 x %struct.ap_fixed]* @_ZL4sine, i32 0, i32 330), double 0x3FE4012E7FFFF375)
  call void @_ZN8ap_fixedILi24ELi1EL9ap_q_mode5EL9ap_o_mode3ELi0EEC1Ed(%struct.ap_fixed* getelementptr inbounds ([8192 x %struct.ap_fixed]* @_ZL4sine, i32 0, i32 331), double 0x3FE404389FFFFD12)
  call void @_ZN8ap_fixedILi24ELi1EL9ap_q_mode5EL9ap_o_mode3ELi0EEC1Ed(%struct.ap_fixed* getelementptr inbounds ([8192 x %struct.ap_fixed]* @_ZL4sine, i32 0, i32 332), double 0x3FE40742C00006AF)
  call void @_ZN8ap_fixedILi24ELi1EL9ap_q_mode5EL9ap_o_mode3ELi0EEC1Ed(%struct.ap_fixed* getelementptr inbounds ([8192 x %struct.ap_fixed]* @_ZL4sine, i32 0, i32 333), double 0x3FE40A4C80000DFC)
  call void @_ZN8ap_fixedILi24ELi1EL9ap_q_mode5EL9ap_o_mode3ELi0EEC1Ed(%struct.ap_fixed* getelementptr inbounds ([8192 x %struct.ap_fixed]* @_ZL4sine, i32 0, i32 334), double 0x3FE40D563FFFF21A)
  call void @_ZN8ap_fixedILi24ELi1EL9ap_q_mode5EL9ap_o_mode3ELi0EEC1Ed(%struct.ap_fixed* getelementptr inbounds ([8192 x %struct.ap_fixed]* @_ZL4sine, i32 0, i32 335), double 0x3FE4105FE0001017)
  call void @_ZN8ap_fixedILi24ELi1EL9ap_q_mode5EL9ap_o_mode3ELi0EEC1Ed(%struct.ap_fixed* getelementptr inbounds ([8192 x %struct.ap_fixed]* @_ZL4sine, i32 0, i32 336), double 0x3FE413693FFFF1E5)
  call void @_ZN8ap_fixedILi24ELi1EL9ap_q_mode5EL9ap_o_mode3ELi0EEC1Ed(%struct.ap_fixed* getelementptr inbounds ([8192 x %struct.ap_fixed]* @_ZL4sine, i32 0, i32 337), double 0x3FE4167280000D92)
  call void @_ZN8ap_fixedILi24ELi1EL9ap_q_mode5EL9ap_o_mode3ELi0EEC1Ed(%struct.ap_fixed* getelementptr inbounds ([8192 x %struct.ap_fixed]* @_ZL4sine, i32 0, i32 338), double 0x3FE4197B80001041)
  call void @_ZN8ap_fixedILi24ELi1EL9ap_q_mode5EL9ap_o_mode3ELi0EEC1Ed(%struct.ap_fixed* getelementptr inbounds ([8192 x %struct.ap_fixed]* @_ZL4sine, i32 0, i32 339), double 0x3FE41C847FFFEFBF)
  call void @_ZN8ap_fixedILi24ELi1EL9ap_q_mode5EL9ap_o_mode3ELi0EEC1Ed(%struct.ap_fixed* getelementptr inbounds ([8192 x %struct.ap_fixed]* @_ZL4sine, i32 0, i32 340), double 0x3FE41F8D3FFFFC9E)
  call void @_ZN8ap_fixedILi24ELi1EL9ap_q_mode5EL9ap_o_mode3ELi0EEC1Ed(%struct.ap_fixed* getelementptr inbounds ([8192 x %struct.ap_fixed]* @_ZL4sine, i32 0, i32 341), double 0x3FE42295DFFFFCFC)
  call void @_ZN8ap_fixedILi24ELi1EL9ap_q_mode5EL9ap_o_mode3ELi0EEC1Ed(%struct.ap_fixed* getelementptr inbounds ([8192 x %struct.ap_fixed]* @_ZL4sine, i32 0, i32 342), double 0x3FE4259E4000078B)
  call void @_ZN8ap_fixedILi24ELi1EL9ap_q_mode5EL9ap_o_mode3ELi0EEC1Ed(%struct.ap_fixed* getelementptr inbounds ([8192 x %struct.ap_fixed]* @_ZL4sine, i32 0, i32 343), double 0x3FE428A69FFFEEEA)
  call void @_ZN8ap_fixedILi24ELi1EL9ap_q_mode5EL9ap_o_mode3ELi0EEC1Ed(%struct.ap_fixed* getelementptr inbounds ([8192 x %struct.ap_fixed]* @_ZL4sine, i32 0, i32 344), double 0x3FE42BAEC00003A9)
  call void @_ZN8ap_fixedILi24ELi1EL9ap_q_mode5EL9ap_o_mode3ELi0EEC1Ed(%struct.ap_fixed* getelementptr inbounds ([8192 x %struct.ap_fixed]* @_ZL4sine, i32 0, i32 345), double 0x3FE42EB6C0000BE8)
  call void @_ZN8ap_fixedILi24ELi1EL9ap_q_mode5EL9ap_o_mode3ELi0EEC1Ed(%struct.ap_fixed* getelementptr inbounds ([8192 x %struct.ap_fixed]* @_ZL4sine, i32 0, i32 346), double 0x3FE431BE7FFFFB28)
  call void @_ZN8ap_fixedILi24ELi1EL9ap_q_mode5EL9ap_o_mode3ELi0EEC1Ed(%struct.ap_fixed* getelementptr inbounds ([8192 x %struct.ap_fixed]* @_ZL4sine, i32 0, i32 347), double 0x3FE434C620000117)
  call void @_ZN8ap_fixedILi24ELi1EL9ap_q_mode5EL9ap_o_mode3ELi0EEC1Ed(%struct.ap_fixed* getelementptr inbounds ([8192 x %struct.ap_fixed]* @_ZL4sine, i32 0, i32 348), double 0x3FE437CD9FFFFA87)
  call void @_ZN8ap_fixedILi24ELi1EL9ap_q_mode5EL9ap_o_mode3ELi0EEC1Ed(%struct.ap_fixed* getelementptr inbounds ([8192 x %struct.ap_fixed]* @_ZL4sine, i32 0, i32 349), double 0x3FE43AD500000AA7)
  call void @_ZN8ap_fixedILi24ELi1EL9ap_q_mode5EL9ap_o_mode3ELi0EEC1Ed(%struct.ap_fixed* getelementptr inbounds ([8192 x %struct.ap_fixed]* @_ZL4sine, i32 0, i32 350), double 0x3FE43DDC200001C7)
  call void @_ZN8ap_fixedILi24ELi1EL9ap_q_mode5EL9ap_o_mode3ELi0EEC1Ed(%struct.ap_fixed* getelementptr inbounds ([8192 x %struct.ap_fixed]* @_ZL4sine, i32 0, i32 351), double 0x3FE440E320000F97)
  call void @_ZN8ap_fixedILi24ELi1EL9ap_q_mode5EL9ap_o_mode3ELi0EEC1Ed(%struct.ap_fixed* getelementptr inbounds ([8192 x %struct.ap_fixed]* @_ZL4sine, i32 0, i32 352), double 0x3FE443EA000010E8)
  call void @_ZN8ap_fixedILi24ELi1EL9ap_q_mode5EL9ap_o_mode3ELi0EEC1Ed(%struct.ap_fixed* getelementptr inbounds ([8192 x %struct.ap_fixed]* @_ZL4sine, i32 0, i32 353), double 0x3FE446F09FFFF939)
  call void @_ZN8ap_fixedILi24ELi1EL9ap_q_mode5EL9ap_o_mode3ELi0EEC1Ed(%struct.ap_fixed* getelementptr inbounds ([8192 x %struct.ap_fixed]* @_ZL4sine, i32 0, i32 354), double 0x3FE449F71FFFF83A)
  call void @_ZN8ap_fixedILi24ELi1EL9ap_q_mode5EL9ap_o_mode3ELi0EEC1Ed(%struct.ap_fixed* getelementptr inbounds ([8192 x %struct.ap_fixed]* @_ZL4sine, i32 0, i32 355), double 0x3FE44CFD80000DEA)
  call void @_ZN8ap_fixedILi24ELi1EL9ap_q_mode5EL9ap_o_mode3ELi0EEC1Ed(%struct.ap_fixed* getelementptr inbounds ([8192 x %struct.ap_fixed]* @_ZL4sine, i32 0, i32 356), double 0x3FE45003A0000A9C)
  call void @_ZN8ap_fixedILi24ELi1EL9ap_q_mode5EL9ap_o_mode3ELi0EEC1Ed(%struct.ap_fixed* getelementptr inbounds ([8192 x %struct.ap_fixed]* @_ZL4sine, i32 0, i32 357), double 0x3FE453099FFFFACE)
  call void @_ZN8ap_fixedILi24ELi1EL9ap_q_mode5EL9ap_o_mode3ELi0EEC1Ed(%struct.ap_fixed* getelementptr inbounds ([8192 x %struct.ap_fixed]* @_ZL4sine, i32 0, i32 358), double 0x3FE4560F800001AF)
  call void @_ZN8ap_fixedILi24ELi1EL9ap_q_mode5EL9ap_o_mode3ELi0EEC1Ed(%struct.ap_fixed* getelementptr inbounds ([8192 x %struct.ap_fixed]* @_ZL4sine, i32 0, i32 359), double 0x3FE459151FFFEF91)
  call void @_ZN8ap_fixedILi24ELi1EL9ap_q_mode5EL9ap_o_mode3ELi0EEC1Ed(%struct.ap_fixed* getelementptr inbounds ([8192 x %struct.ap_fixed]* @_ZL4sine, i32 0, i32 360), double 0x3FE45C1A9FFFF423)
  call void @_ZN8ap_fixedILi24ELi1EL9ap_q_mode5EL9ap_o_mode3ELi0EEC1Ed(%struct.ap_fixed* getelementptr inbounds ([8192 x %struct.ap_fixed]* @_ZL4sine, i32 0, i32 361), double 0x3FE45F2000000F65)
  call void @_ZN8ap_fixedILi24ELi1EL9ap_q_mode5EL9ap_o_mode3ELi0EEC1Ed(%struct.ap_fixed* getelementptr inbounds ([8192 x %struct.ap_fixed]* @_ZL4sine, i32 0, i32 362), double 0x3FE462251FFFEE78)
  call void @_ZN8ap_fixedILi24ELi1EL9ap_q_mode5EL9ap_o_mode3ELi0EEC1Ed(%struct.ap_fixed* getelementptr inbounds ([8192 x %struct.ap_fixed]* @_ZL4sine, i32 0, i32 363), double 0x3FE4652A2000076A)
  call void @_ZN8ap_fixedILi24ELi1EL9ap_q_mode5EL9ap_o_mode3ELi0EEC1Ed(%struct.ap_fixed* getelementptr inbounds ([8192 x %struct.ap_fixed]* @_ZL4sine, i32 0, i32 364), double 0x3FE4682EFFFFF0AD)
  call void @_ZN8ap_fixedILi24ELi1EL9ap_q_mode5EL9ap_o_mode3ELi0EEC1Ed(%struct.ap_fixed* getelementptr inbounds ([8192 x %struct.ap_fixed]* @_ZL4sine, i32 0, i32 365), double 0x3FE46B33A000074F)
  call void @_ZN8ap_fixedILi24ELi1EL9ap_q_mode5EL9ap_o_mode3ELi0EEC1Ed(%struct.ap_fixed* getelementptr inbounds ([8192 x %struct.ap_fixed]* @_ZL4sine, i32 0, i32 366), double 0x3FE46E3820001172)
  call void @_ZN8ap_fixedILi24ELi1EL9ap_q_mode5EL9ap_o_mode3ELi0EEC1Ed(%struct.ap_fixed* getelementptr inbounds ([8192 x %struct.ap_fixed]* @_ZL4sine, i32 0, i32 367), double 0x3FE4713C80000F15)
  call void @_ZN8ap_fixedILi24ELi1EL9ap_q_mode5EL9ap_o_mode3ELi0EEC1Ed(%struct.ap_fixed* getelementptr inbounds ([8192 x %struct.ap_fixed]* @_ZL4sine, i32 0, i32 368), double 0x3FE474409FFFF3BA)
  call void @_ZN8ap_fixedILi24ELi1EL9ap_q_mode5EL9ap_o_mode3ELi0EEC1Ed(%struct.ap_fixed* getelementptr inbounds ([8192 x %struct.ap_fixed]* @_ZL4sine, i32 0, i32 369), double 0x3FE477449FFFEF0D)
  call void @_ZN8ap_fixedILi24ELi1EL9ap_q_mode5EL9ap_o_mode3ELi0EEC1Ed(%struct.ap_fixed* getelementptr inbounds ([8192 x %struct.ap_fixed]* @_ZL4sine, i32 0, i32 370), double 0x3FE47A485FFFF491)
  call void @_ZN8ap_fixedILi24ELi1EL9ap_q_mode5EL9ap_o_mode3ELi0EEC1Ed(%struct.ap_fixed* getelementptr inbounds ([8192 x %struct.ap_fixed]* @_ZL4sine, i32 0, i32 371), double 0x3FE47D4C000010C4)
  call void @_ZN8ap_fixedILi24ELi1EL9ap_q_mode5EL9ap_o_mode3ELi0EEC1Ed(%struct.ap_fixed* getelementptr inbounds ([8192 x %struct.ap_fixed]* @_ZL4sine, i32 0, i32 372), double 0x3FE4804F7FFFFD49)
  call void @_ZN8ap_fixedILi24ELi1EL9ap_q_mode5EL9ap_o_mode3ELi0EEC1Ed(%struct.ap_fixed* getelementptr inbounds ([8192 x %struct.ap_fixed]* @_ZL4sine, i32 0, i32 373), double 0x3FE48352BFFFF3FE)
  call void @_ZN8ap_fixedILi24ELi1EL9ap_q_mode5EL9ap_o_mode3ELi0EEC1Ed(%struct.ap_fixed* getelementptr inbounds ([8192 x %struct.ap_fixed]* @_ZL4sine, i32 0, i32 374), double 0x3FE48655E0000162)
  call void @_ZN8ap_fixedILi24ELi1EL9ap_q_mode5EL9ap_o_mode3ELi0EEC1Ed(%struct.ap_fixed* getelementptr inbounds ([8192 x %struct.ap_fixed]* @_ZL4sine, i32 0, i32 375), double 0x3FE48958E0000247)
  call void @_ZN8ap_fixedILi24ELi1EL9ap_q_mode5EL9ap_o_mode3ELi0EEC1Ed(%struct.ap_fixed* getelementptr inbounds ([8192 x %struct.ap_fixed]* @_ZL4sine, i32 0, i32 376), double 0x3FE48C5BA0000D5B)
  call void @_ZN8ap_fixedILi24ELi1EL9ap_q_mode5EL9ap_o_mode3ELi0EEC1Ed(%struct.ap_fixed* getelementptr inbounds ([8192 x %struct.ap_fixed]* @_ZL4sine, i32 0, i32 377), double 0x3FE48F5E40000BF1)
  call void @_ZN8ap_fixedILi24ELi1EL9ap_q_mode5EL9ap_o_mode3ELi0EEC1Ed(%struct.ap_fixed* getelementptr inbounds ([8192 x %struct.ap_fixed]* @_ZL4sine, i32 0, i32 378), double 0x3FE492609FFFF187)
  call void @_ZN8ap_fixedILi24ELi1EL9ap_q_mode5EL9ap_o_mode3ELi0EEC1Ed(%struct.ap_fixed* getelementptr inbounds ([8192 x %struct.ap_fixed]* @_ZL4sine, i32 0, i32 379), double 0x3FE49562E00010FB)
  call void @_ZN8ap_fixedILi24ELi1EL9ap_q_mode5EL9ap_o_mode3ELi0EEC1Ed(%struct.ap_fixed* getelementptr inbounds ([8192 x %struct.ap_fixed]* @_ZL4sine, i32 0, i32 380), double 0x3FE49864DFFFF442)
  call void @_ZN8ap_fixedILi24ELi1EL9ap_q_mode5EL9ap_o_mode3ELi0EEC1Ed(%struct.ap_fixed* getelementptr inbounds ([8192 x %struct.ap_fixed]* @_ZL4sine, i32 0, i32 381), double 0x3FE49B66C0001167)
  call void @_ZN8ap_fixedILi24ELi1EL9ap_q_mode5EL9ap_o_mode3ELi0EEC1Ed(%struct.ap_fixed* getelementptr inbounds ([8192 x %struct.ap_fixed]* @_ZL4sine, i32 0, i32 382), double 0x3FE49E687FFFFEDE)
  call void @_ZN8ap_fixedILi24ELi1EL9ap_q_mode5EL9ap_o_mode3ELi0EEC1Ed(%struct.ap_fixed* getelementptr inbounds ([8192 x %struct.ap_fixed]* @_ZL4sine, i32 0, i32 383), double 0x3FE4A169FFFFF684)
  call void @_ZN8ap_fixedILi24ELi1EL9ap_q_mode5EL9ap_o_mode3ELi0EEC1Ed(%struct.ap_fixed* getelementptr inbounds ([8192 x %struct.ap_fixed]* @_ZL4sine, i32 0, i32 384), double 0x3FE4A46B600004DA)
  call void @_ZN8ap_fixedILi24ELi1EL9ap_q_mode5EL9ap_o_mode3ELi0EEC1Ed(%struct.ap_fixed* getelementptr inbounds ([8192 x %struct.ap_fixed]* @_ZL4sine, i32 0, i32 385), double 0x3FE4A76CA00006B1)
  call void @_ZN8ap_fixedILi24ELi1EL9ap_q_mode5EL9ap_o_mode3ELi0EEC1Ed(%struct.ap_fixed* getelementptr inbounds ([8192 x %struct.ap_fixed]* @_ZL4sine, i32 0, i32 386), double 0x3FE4AA6D80000638)
  call void @_ZN8ap_fixedILi24ELi1EL9ap_q_mode5EL9ap_o_mode3ELi0EEC1Ed(%struct.ap_fixed* getelementptr inbounds ([8192 x %struct.ap_fixed]* @_ZL4sine, i32 0, i32 387), double 0x3FE4AD6E600005BF)
  call void @_ZN8ap_fixedILi24ELi1EL9ap_q_mode5EL9ap_o_mode3ELi0EEC1Ed(%struct.ap_fixed* getelementptr inbounds ([8192 x %struct.ap_fixed]* @_ZL4sine, i32 0, i32 388), double 0x3FE4B06F00000F76)
  call void @_ZN8ap_fixedILi24ELi1EL9ap_q_mode5EL9ap_o_mode3ELi0EEC1Ed(%struct.ap_fixed* getelementptr inbounds ([8192 x %struct.ap_fixed]* @_ZL4sine, i32 0, i32 389), double 0x3FE4B36F80000CAE)
  call void @_ZN8ap_fixedILi24ELi1EL9ap_q_mode5EL9ap_o_mode3ELi0EEC1Ed(%struct.ap_fixed* getelementptr inbounds ([8192 x %struct.ap_fixed]* @_ZL4sine, i32 0, i32 390), double 0x3FE4B66FBFFFF0E6)
  call void @_ZN8ap_fixedILi24ELi1EL9ap_q_mode5EL9ap_o_mode3ELi0EEC1Ed(%struct.ap_fixed* getelementptr inbounds ([8192 x %struct.ap_fixed]* @_ZL4sine, i32 0, i32 391), double 0x3FE4B96FE0000EFD)
  call void @_ZN8ap_fixedILi24ELi1EL9ap_q_mode5EL9ap_o_mode3ELi0EEC1Ed(%struct.ap_fixed* getelementptr inbounds ([8192 x %struct.ap_fixed]* @_ZL4sine, i32 0, i32 392), double 0x3FE4BC6FBFFFF0E6)
  call void @_ZN8ap_fixedILi24ELi1EL9ap_q_mode5EL9ap_o_mode3ELi0EEC1Ed(%struct.ap_fixed* getelementptr inbounds ([8192 x %struct.ap_fixed]* @_ZL4sine, i32 0, i32 393), double 0x3FE4BF6F80000CAE)
  call void @_ZN8ap_fixedILi24ELi1EL9ap_q_mode5EL9ap_o_mode3ELi0EEC1Ed(%struct.ap_fixed* getelementptr inbounds ([8192 x %struct.ap_fixed]* @_ZL4sine, i32 0, i32 394), double 0x3FE4C26F00000F76)
  call void @_ZN8ap_fixedILi24ELi1EL9ap_q_mode5EL9ap_o_mode3ELi0EEC1Ed(%struct.ap_fixed* getelementptr inbounds ([8192 x %struct.ap_fixed]* @_ZL4sine, i32 0, i32 395), double 0x3FE4C56E600005BF)
  call void @_ZN8ap_fixedILi24ELi1EL9ap_q_mode5EL9ap_o_mode3ELi0EEC1Ed(%struct.ap_fixed* getelementptr inbounds ([8192 x %struct.ap_fixed]* @_ZL4sine, i32 0, i32 396), double 0x3FE4C86D80000638)
  call void @_ZN8ap_fixedILi24ELi1EL9ap_q_mode5EL9ap_o_mode3ELi0EEC1Ed(%struct.ap_fixed* getelementptr inbounds ([8192 x %struct.ap_fixed]* @_ZL4sine, i32 0, i32 397), double 0x3FE4CB6C7FFFFA31)
  call void @_ZN8ap_fixedILi24ELi1EL9ap_q_mode5EL9ap_o_mode3ELi0EEC1Ed(%struct.ap_fixed* getelementptr inbounds ([8192 x %struct.ap_fixed]* @_ZL4sine, i32 0, i32 398), double 0x3FE4CE6B600004DA)
  call void @_ZN8ap_fixedILi24ELi1EL9ap_q_mode5EL9ap_o_mode3ELi0EEC1Ed(%struct.ap_fixed* getelementptr inbounds ([8192 x %struct.ap_fixed]* @_ZL4sine, i32 0, i32 399), double 0x3FE4D169FFFFF684)
  call void @_ZN8ap_fixedILi24ELi1EL9ap_q_mode5EL9ap_o_mode3ELi0EEC1Ed(%struct.ap_fixed* getelementptr inbounds ([8192 x %struct.ap_fixed]* @_ZL4sine, i32 0, i32 400), double 0x3FE4D4685FFFF25E)
  call void @_ZN8ap_fixedILi24ELi1EL9ap_q_mode5EL9ap_o_mode3ELi0EEC1Ed(%struct.ap_fixed* getelementptr inbounds ([8192 x %struct.ap_fixed]* @_ZL4sine, i32 0, i32 401), double 0x3FE4D766A00004E8)
  call void @_ZN8ap_fixedILi24ELi1EL9ap_q_mode5EL9ap_o_mode3ELi0EEC1Ed(%struct.ap_fixed* getelementptr inbounds ([8192 x %struct.ap_fixed]* @_ZL4sine, i32 0, i32 402), double 0x3FE4DA64C0000AF2)
  call void @_ZN8ap_fixedILi24ELi1EL9ap_q_mode5EL9ap_o_mode3ELi0EEC1Ed(%struct.ap_fixed* getelementptr inbounds ([8192 x %struct.ap_fixed]* @_ZL4sine, i32 0, i32 403), double 0x3FE4DD629FFFF7FC)
  call void @_ZN8ap_fixedILi24ELi1EL9ap_q_mode5EL9ap_o_mode3ELi0EEC1Ed(%struct.ap_fixed* getelementptr inbounds ([8192 x %struct.ap_fixed]* @_ZL4sine, i32 0, i32 404), double 0x3FE4E0603FFFEF37)
  call void @_ZN8ap_fixedILi24ELi1EL9ap_q_mode5EL9ap_o_mode3ELi0EEC1Ed(%struct.ap_fixed* getelementptr inbounds ([8192 x %struct.ap_fixed]* @_ZL4sine, i32 0, i32 405), double 0x3FE4E35DBFFFFD22)
  call void @_ZN8ap_fixedILi24ELi1EL9ap_q_mode5EL9ap_o_mode3ELi0EEC1Ed(%struct.ap_fixed* getelementptr inbounds ([8192 x %struct.ap_fixed]* @_ZL4sine, i32 0, i32 406), double 0x3FE4E65B1FFFFE8C)
  call void @_ZN8ap_fixedILi24ELi1EL9ap_q_mode5EL9ap_o_mode3ELi0EEC1Ed(%struct.ap_fixed* getelementptr inbounds ([8192 x %struct.ap_fixed]* @_ZL4sine, i32 0, i32 407), double 0x3FE4E95840000A27)
  call void @_ZN8ap_fixedILi24ELi1EL9ap_q_mode5EL9ap_o_mode3ELi0EEC1Ed(%struct.ap_fixed* getelementptr inbounds ([8192 x %struct.ap_fixed]* @_ZL4sine, i32 0, i32 408), double 0x3FE4EC551FFFFCC3)
  call void @_ZN8ap_fixedILi24ELi1EL9ap_q_mode5EL9ap_o_mode3ELi0EEC1Ed(%struct.ap_fixed* getelementptr inbounds ([8192 x %struct.ap_fixed]* @_ZL4sine, i32 0, i32 409), double 0x3FE4EF51E000060E)
  call void @_ZN8ap_fixedILi24ELi1EL9ap_q_mode5EL9ap_o_mode3ELi0EEC1Ed(%struct.ap_fixed* getelementptr inbounds ([8192 x %struct.ap_fixed]* @_ZL4sine, i32 0, i32 410), double 0x3FE4F24E800002DA)
  call void @_ZN8ap_fixedILi24ELi1EL9ap_q_mode5EL9ap_o_mode3ELi0EEC1Ed(%struct.ap_fixed* getelementptr inbounds ([8192 x %struct.ap_fixed]* @_ZL4sine, i32 0, i32 411), double 0x3FE4F54ABFFFFD56)
  call void @_ZN8ap_fixedILi24ELi1EL9ap_q_mode5EL9ap_o_mode3ELi0EEC1Ed(%struct.ap_fixed* getelementptr inbounds ([8192 x %struct.ap_fixed]* @_ZL4sine, i32 0, i32 412), double 0x3FE4F846FFFFF7D3)
  call void @_ZN8ap_fixedILi24ELi1EL9ap_q_mode5EL9ap_o_mode3ELi0EEC1Ed(%struct.ap_fixed* getelementptr inbounds ([8192 x %struct.ap_fixed]* @_ZL4sine, i32 0, i32 413), double 0x3FE4FB42FFFFFC7F)
  call void @_ZN8ap_fixedILi24ELi1EL9ap_q_mode5EL9ap_o_mode3ELi0EEC1Ed(%struct.ap_fixed* getelementptr inbounds ([8192 x %struct.ap_fixed]* @_ZL4sine, i32 0, i32 414), double 0x3FE4FE3EC0000B5B)
  call void @_ZN8ap_fixedILi24ELi1EL9ap_q_mode5EL9ap_o_mode3ELi0EEC1Ed(%struct.ap_fixed* getelementptr inbounds ([8192 x %struct.ap_fixed]* @_ZL4sine, i32 0, i32 415), double 0x3FE5013A60000DB8)
  call void @_ZN8ap_fixedILi24ELi1EL9ap_q_mode5EL9ap_o_mode3ELi0EEC1Ed(%struct.ap_fixed* getelementptr inbounds ([8192 x %struct.ap_fixed]* @_ZL4sine, i32 0, i32 416), double 0x3FE50435BFFFF715)
  call void @_ZN8ap_fixedILi24ELi1EL9ap_q_mode5EL9ap_o_mode3ELi0EEC1Ed(%struct.ap_fixed* getelementptr inbounds ([8192 x %struct.ap_fixed]* @_ZL4sine, i32 0, i32 417), double 0x3FE50730FFFFF723)
  call void @_ZN8ap_fixedILi24ELi1EL9ap_q_mode5EL9ap_o_mode3ELi0EEC1Ed(%struct.ap_fixed* getelementptr inbounds ([8192 x %struct.ap_fixed]* @_ZL4sine, i32 0, i32 418), double 0x3FE50A2C00000160)
  call void @_ZN8ap_fixedILi24ELi1EL9ap_q_mode5EL9ap_o_mode3ELi0EEC1Ed(%struct.ap_fixed* getelementptr inbounds ([8192 x %struct.ap_fixed]* @_ZL4sine, i32 0, i32 419), double 0x3FE50D26DFFFFF1E)
  call void @_ZN8ap_fixedILi24ELi1EL9ap_q_mode5EL9ap_o_mode3ELi0EEC1Ed(%struct.ap_fixed* getelementptr inbounds ([8192 x %struct.ap_fixed]* @_ZL4sine, i32 0, i32 420), double 0x3FE510218000070B)
  call void @_ZN8ap_fixedILi24ELi1EL9ap_q_mode5EL9ap_o_mode3ELi0EEC1Ed(%struct.ap_fixed* getelementptr inbounds ([8192 x %struct.ap_fixed]* @_ZL4sine, i32 0, i32 421), double 0x3FE5131BDFFFF5FA)
  call void @_ZN8ap_fixedILi24ELi1EL9ap_q_mode5EL9ap_o_mode3ELi0EEC1Ed(%struct.ap_fixed* getelementptr inbounds ([8192 x %struct.ap_fixed]* @_ZL4sine, i32 0, i32 422), double 0x3FE516161FFFFB98)
  call void @_ZN8ap_fixedILi24ELi1EL9ap_q_mode5EL9ap_o_mode3ELi0EEC1Ed(%struct.ap_fixed* getelementptr inbounds ([8192 x %struct.ap_fixed]* @_ZL4sine, i32 0, i32 423), double 0x3FE5191020000B66)
  call void @_ZN8ap_fixedILi24ELi1EL9ap_q_mode5EL9ap_o_mode3ELi0EEC1Ed(%struct.ap_fixed* getelementptr inbounds ([8192 x %struct.ap_fixed]* @_ZL4sine, i32 0, i32 424), double 0x3FE51C0A00000EB5)
  call void @_ZN8ap_fixedILi24ELi1EL9ap_q_mode5EL9ap_o_mode3ELi0EEC1Ed(%struct.ap_fixed* getelementptr inbounds ([8192 x %struct.ap_fixed]* @_ZL4sine, i32 0, i32 425), double 0x3FE51F039FFFF904)
  call void @_ZN8ap_fixedILi24ELi1EL9ap_q_mode5EL9ap_o_mode3ELi0EEC1Ed(%struct.ap_fixed* getelementptr inbounds ([8192 x %struct.ap_fixed]* @_ZL4sine, i32 0, i32 426), double 0x3FE521FD1FFFFA03)
  call void @_ZN8ap_fixedILi24ELi1EL9ap_q_mode5EL9ap_o_mode3ELi0EEC1Ed(%struct.ap_fixed* getelementptr inbounds ([8192 x %struct.ap_fixed]* @_ZL4sine, i32 0, i32 427), double 0x3FE524F660000532)
  call void @_ZN8ap_fixedILi24ELi1EL9ap_q_mode5EL9ap_o_mode3ELi0EEC1Ed(%struct.ap_fixed* getelementptr inbounds ([8192 x %struct.ap_fixed]* @_ZL4sine, i32 0, i32 428), double 0x3FE527EF5FFFF762)
  call void @_ZN8ap_fixedILi24ELi1EL9ap_q_mode5EL9ap_o_mode3ELi0EEC1Ed(%struct.ap_fixed* getelementptr inbounds ([8192 x %struct.ap_fixed]* @_ZL4sine, i32 0, i32 429), double 0x3FE52AE840000042)
  call void @_ZN8ap_fixedILi24ELi1EL9ap_q_mode5EL9ap_o_mode3ELi0EEC1Ed(%struct.ap_fixed* getelementptr inbounds ([8192 x %struct.ap_fixed]* @_ZL4sine, i32 0, i32 430), double 0x3FE52DE0FFFFFCA2)
  call void @_ZN8ap_fixedILi24ELi1EL9ap_q_mode5EL9ap_o_mode3ELi0EEC1Ed(%struct.ap_fixed* getelementptr inbounds ([8192 x %struct.ap_fixed]* @_ZL4sine, i32 0, i32 431), double 0x3FE530D95FFFF6B2)
  call void @_ZN8ap_fixedILi24ELi1EL9ap_q_mode5EL9ap_o_mode3ELi0EEC1Ed(%struct.ap_fixed* getelementptr inbounds ([8192 x %struct.ap_fixed]* @_ZL4sine, i32 0, i32 432), double 0x3FE533D1A0000773)
  call void @_ZN8ap_fixedILi24ELi1EL9ap_q_mode5EL9ap_o_mode3ELi0EEC1Ed(%struct.ap_fixed* getelementptr inbounds ([8192 x %struct.ap_fixed]* @_ZL4sine, i32 0, i32 433), double 0x3FE536C9C0000BB3)
  call void @_ZN8ap_fixedILi24ELi1EL9ap_q_mode5EL9ap_o_mode3ELi0EEC1Ed(%struct.ap_fixed* getelementptr inbounds ([8192 x %struct.ap_fixed]* @_ZL4sine, i32 0, i32 434), double 0x3FE539C19FFFF6F4)
  call void @_ZN8ap_fixedILi24ELi1EL9ap_q_mode5EL9ap_o_mode3ELi0EEC1Ed(%struct.ap_fixed* getelementptr inbounds ([8192 x %struct.ap_fixed]* @_ZL4sine, i32 0, i32 435), double 0x3FE53CB940000F95)
  call void @_ZN8ap_fixedILi24ELi1EL9ap_q_mode5EL9ap_o_mode3ELi0EEC1Ed(%struct.ap_fixed* getelementptr inbounds ([8192 x %struct.ap_fixed]* @_ZL4sine, i32 0, i32 436), double 0x3FE53FB0BFFFF887)
  call void @_ZN8ap_fixedILi24ELi1EL9ap_q_mode5EL9ap_o_mode3ELi0EEC1Ed(%struct.ap_fixed* getelementptr inbounds ([8192 x %struct.ap_fixed]* @_ZL4sine, i32 0, i32 437), double 0x3FE542A800000ED8)
  call void @_ZN8ap_fixedILi24ELi1EL9ap_q_mode5EL9ap_o_mode3ELi0EEC1Ed(%struct.ap_fixed* getelementptr inbounds ([8192 x %struct.ap_fixed]* @_ZL4sine, i32 0, i32 438), double 0x3FE5459F00000C2A)
  call void @_ZN8ap_fixedILi24ELi1EL9ap_q_mode5EL9ap_o_mode3ELi0EEC1Ed(%struct.ap_fixed* getelementptr inbounds ([8192 x %struct.ap_fixed]* @_ZL4sine, i32 0, i32 439), double 0x3FE54895DFFFFCFC)
  call void @_ZN8ap_fixedILi24ELi1EL9ap_q_mode5EL9ap_o_mode3ELi0EEC1Ed(%struct.ap_fixed* getelementptr inbounds ([8192 x %struct.ap_fixed]* @_ZL4sine, i32 0, i32 440), double 0x3FE54B8C7FFFF7FF)
  call void @_ZN8ap_fixedILi24ELi1EL9ap_q_mode5EL9ap_o_mode3ELi0EEC1Ed(%struct.ap_fixed* getelementptr inbounds ([8192 x %struct.ap_fixed]* @_ZL4sine, i32 0, i32 441), double 0x3FE54E83000009B0)
  call void @_ZN8ap_fixedILi24ELi1EL9ap_q_mode5EL9ap_o_mode3ELi0EEC1Ed(%struct.ap_fixed* getelementptr inbounds ([8192 x %struct.ap_fixed]* @_ZL4sine, i32 0, i32 442), double 0x3FE5517940000263)
  call void @_ZN8ap_fixedILi24ELi1EL9ap_q_mode5EL9ap_o_mode3ELi0EEC1Ed(%struct.ap_fixed* getelementptr inbounds ([8192 x %struct.ap_fixed]* @_ZL4sine, i32 0, i32 443), double 0x3FE5546F40000546)
  call void @_ZN8ap_fixedILi24ELi1EL9ap_q_mode5EL9ap_o_mode3ELi0EEC1Ed(%struct.ap_fixed* getelementptr inbounds ([8192 x %struct.ap_fixed]* @_ZL4sine, i32 0, i32 444), double 0x3FE55764FFFFEF2A)
  call void @_ZN8ap_fixedILi24ELi1EL9ap_q_mode5EL9ap_o_mode3ELi0EEC1Ed(%struct.ap_fixed* getelementptr inbounds ([8192 x %struct.ap_fixed]* @_ZL4sine, i32 0, i32 445), double 0x3FE55A5A9FFFEFBD)
  call void @_ZN8ap_fixedILi24ELi1EL9ap_q_mode5EL9ap_o_mode3ELi0EEC1Ed(%struct.ap_fixed* getelementptr inbounds ([8192 x %struct.ap_fixed]* @_ZL4sine, i32 0, i32 446), double 0x3FE55D5020000700)
  call void @_ZN8ap_fixedILi24ELi1EL9ap_q_mode5EL9ap_o_mode3ELi0EEC1Ed(%struct.ap_fixed* getelementptr inbounds ([8192 x %struct.ap_fixed]* @_ZL4sine, i32 0, i32 447), double 0x3FE560453FFFF8C4)
  call void @_ZN8ap_fixedILi24ELi1EL9ap_q_mode5EL9ap_o_mode3ELi0EEC1Ed(%struct.ap_fixed* getelementptr inbounds ([8192 x %struct.ap_fixed]* @_ZL4sine, i32 0, i32 448), double 0x3FE5633A40000138)
  call void @_ZN8ap_fixedILi24ELi1EL9ap_q_mode5EL9ap_o_mode3ELi0EEC1Ed(%struct.ap_fixed* getelementptr inbounds ([8192 x %struct.ap_fixed]* @_ZL4sine, i32 0, i32 449), double 0x3FE5662F1FFFFD2D)
  call void @_ZN8ap_fixedILi24ELi1EL9ap_q_mode5EL9ap_o_mode3ELi0EEC1Ed(%struct.ap_fixed* getelementptr inbounds ([8192 x %struct.ap_fixed]* @_ZL4sine, i32 0, i32 450), double 0x3FE569239FFFF6D1)
  call void @_ZN8ap_fixedILi24ELi1EL9ap_q_mode5EL9ap_o_mode3ELi0EEC1Ed(%struct.ap_fixed* getelementptr inbounds ([8192 x %struct.ap_fixed]* @_ZL4sine, i32 0, i32 451), double 0x3FE56C1800000726)
  call void @_ZN8ap_fixedILi24ELi1EL9ap_q_mode5EL9ap_o_mode3ELi0EEC1Ed(%struct.ap_fixed* getelementptr inbounds ([8192 x %struct.ap_fixed]* @_ZL4sine, i32 0, i32 452), double 0x3FE56F0C40000AFA)
  call void @_ZN8ap_fixedILi24ELi1EL9ap_q_mode5EL9ap_o_mode3ELi0EEC1Ed(%struct.ap_fixed* getelementptr inbounds ([8192 x %struct.ap_fixed]* @_ZL4sine, i32 0, i32 453), double 0x3FE5720020000C80)
  call void @_ZN8ap_fixedILi24ELi1EL9ap_q_mode5EL9ap_o_mode3ELi0EEC1Ed(%struct.ap_fixed* getelementptr inbounds ([8192 x %struct.ap_fixed]* @_ZL4sine, i32 0, i32 454), double 0x3FE574F3E0000185)
  call void @_ZN8ap_fixedILi24ELi1EL9ap_q_mode5EL9ap_o_mode3ELi0EEC1Ed(%struct.ap_fixed* getelementptr inbounds ([8192 x %struct.ap_fixed]* @_ZL4sine, i32 0, i32 455), double 0x3FE577E780000D3A)
  call void @_ZN8ap_fixedILi24ELi1EL9ap_q_mode5EL9ap_o_mode3ELi0EEC1Ed(%struct.ap_fixed* getelementptr inbounds ([8192 x %struct.ap_fixed]* @_ZL4sine, i32 0, i32 456), double 0x3FE57ADABFFFF371)
  call void @_ZN8ap_fixedILi24ELi1EL9ap_q_mode5EL9ap_o_mode3ELi0EEC1Ed(%struct.ap_fixed* getelementptr inbounds ([8192 x %struct.ap_fixed]* @_ZL4sine, i32 0, i32 457), double 0x3FE57DCDDFFFF057)
  call void @_ZN8ap_fixedILi24ELi1EL9ap_q_mode5EL9ap_o_mode3ELi0EEC1Ed(%struct.ap_fixed* getelementptr inbounds ([8192 x %struct.ap_fixed]* @_ZL4sine, i32 0, i32 458), double 0x3FE580C0E00003ED)
  call void @_ZN8ap_fixedILi24ELi1EL9ap_q_mode5EL9ap_o_mode3ELi0EEC1Ed(%struct.ap_fixed* getelementptr inbounds ([8192 x %struct.ap_fixed]* @_ZL4sine, i32 0, i32 459), double 0x3FE583B37FFFF204)
  call void @_ZN8ap_fixedILi24ELi1EL9ap_q_mode5EL9ap_o_mode3ELi0EEC1Ed(%struct.ap_fixed* getelementptr inbounds ([8192 x %struct.ap_fixed]* @_ZL4sine, i32 0, i32 460), double 0x3FE586A5FFFFF6CB)
  call void @_ZN8ap_fixedILi24ELi1EL9ap_q_mode5EL9ap_o_mode3ELi0EEC1Ed(%struct.ap_fixed* getelementptr inbounds ([8192 x %struct.ap_fixed]* @_ZL4sine, i32 0, i32 461), double 0x3FE58998400005C1)
  call void @_ZN8ap_fixedILi24ELi1EL9ap_q_mode5EL9ap_o_mode3ELi0EEC1Ed(%struct.ap_fixed* getelementptr inbounds ([8192 x %struct.ap_fixed]* @_ZL4sine, i32 0, i32 462), double 0x3FE58C8A60000838)
  call void @_ZN8ap_fixedILi24ELi1EL9ap_q_mode5EL9ap_o_mode3ELi0EEC1Ed(%struct.ap_fixed* getelementptr inbounds ([8192 x %struct.ap_fixed]* @_ZL4sine, i32 0, i32 463), double 0x3FE58F7C20000860)
  call void @_ZN8ap_fixedILi24ELi1EL9ap_q_mode5EL9ap_o_mode3ELi0EEC1Ed(%struct.ap_fixed* getelementptr inbounds ([8192 x %struct.ap_fixed]* @_ZL4sine, i32 0, i32 464), double 0x3FE5926DBFFFFC08)
  call void @_ZN8ap_fixedILi24ELi1EL9ap_q_mode5EL9ap_o_mode3ELi0EEC1Ed(%struct.ap_fixed* getelementptr inbounds ([8192 x %struct.ap_fixed]* @_ZL4sine, i32 0, i32 465), double 0x3FE5955F40000660)
  call void @_ZN8ap_fixedILi24ELi1EL9ap_q_mode5EL9ap_o_mode3ELi0EEC1Ed(%struct.ap_fixed* getelementptr inbounds ([8192 x %struct.ap_fixed]* @_ZL4sine, i32 0, i32 466), double 0x3FE5985060000E68)
  call void @_ZN8ap_fixedILi24ELi1EL9ap_q_mode5EL9ap_o_mode3ELi0EEC1Ed(%struct.ap_fixed* getelementptr inbounds ([8192 x %struct.ap_fixed]* @_ZL4sine, i32 0, i32 467), double 0x3FE59B41600009F0)
  call void @_ZN8ap_fixedILi24ELi1EL9ap_q_mode5EL9ap_o_mode3ELi0EEC1Ed(%struct.ap_fixed* getelementptr inbounds ([8192 x %struct.ap_fixed]* @_ZL4sine, i32 0, i32 468), double 0x3FE59E3220000FA9)
  call void @_ZN8ap_fixedILi24ELi1EL9ap_q_mode5EL9ap_o_mode3ELi0EEC1Ed(%struct.ap_fixed* getelementptr inbounds ([8192 x %struct.ap_fixed]* @_ZL4sine, i32 0, i32 469), double 0x3FE5A122C00008E2)
  call void @_ZN8ap_fixedILi24ELi1EL9ap_q_mode5EL9ap_o_mode3ELi0EEC1Ed(%struct.ap_fixed* getelementptr inbounds ([8192 x %struct.ap_fixed]* @_ZL4sine, i32 0, i32 470), double 0x3FE5A412FFFFFFCB)
  call void @_ZN8ap_fixedILi24ELi1EL9ap_q_mode5EL9ap_o_mode3ELi0EEC1Ed(%struct.ap_fixed* getelementptr inbounds ([8192 x %struct.ap_fixed]* @_ZL4sine, i32 0, i32 471), double 0x3FE5A70320000D64)
  call void @_ZN8ap_fixedILi24ELi1EL9ap_q_mode5EL9ap_o_mode3ELi0EEC1Ed(%struct.ap_fixed* getelementptr inbounds ([8192 x %struct.ap_fixed]* @_ZL4sine, i32 0, i32 472), double 0x3FE5A9F3000001FE)
  call void @_ZN8ap_fixedILi24ELi1EL9ap_q_mode5EL9ap_o_mode3ELi0EEC1Ed(%struct.ap_fixed* getelementptr inbounds ([8192 x %struct.ap_fixed]* @_ZL4sine, i32 0, i32 473), double 0x3FE5ACE2C0000D48)
  call void @_ZN8ap_fixedILi24ELi1EL9ap_q_mode5EL9ap_o_mode3ELi0EEC1Ed(%struct.ap_fixed* getelementptr inbounds ([8192 x %struct.ap_fixed]* @_ZL4sine, i32 0, i32 474), double 0x3FE5AFD23FFFFF92)
  call void @_ZN8ap_fixedILi24ELi1EL9ap_q_mode5EL9ap_o_mode3ELi0EEC1Ed(%struct.ap_fixed* getelementptr inbounds ([8192 x %struct.ap_fixed]* @_ZL4sine, i32 0, i32 475), double 0x3FE5B2C17FFFFC0C)
  call void @_ZN8ap_fixedILi24ELi1EL9ap_q_mode5EL9ap_o_mode3ELi0EEC1Ed(%struct.ap_fixed* getelementptr inbounds ([8192 x %struct.ap_fixed]* @_ZL4sine, i32 0, i32 476), double 0x3FE5B5B0800002B7)
  call void @_ZN8ap_fixedILi24ELi1EL9ap_q_mode5EL9ap_o_mode3ELi0EEC1Ed(%struct.ap_fixed* getelementptr inbounds ([8192 x %struct.ap_fixed]* @_ZL4sine, i32 0, i32 477), double 0x3FE5B89F3FFFF062)
  call void @_ZN8ap_fixedILi24ELi1EL9ap_q_mode5EL9ap_o_mode3ELi0EEC1Ed(%struct.ap_fixed* getelementptr inbounds ([8192 x %struct.ap_fixed]* @_ZL4sine, i32 0, i32 478), double 0x3FE5BB8DDFFFF4BD)
  call void @_ZN8ap_fixedILi24ELi1EL9ap_q_mode5EL9ap_o_mode3ELi0EEC1Ed(%struct.ap_fixed* getelementptr inbounds ([8192 x %struct.ap_fixed]* @_ZL4sine, i32 0, i32 479), double 0x3FE5BE7C40000348)
  call void @_ZN8ap_fixedILi24ELi1EL9ap_q_mode5EL9ap_o_mode3ELi0EEC1Ed(%struct.ap_fixed* getelementptr inbounds ([8192 x %struct.ap_fixed]* @_ZL4sine, i32 0, i32 480), double 0x3FE5C16A5FFFF8D4)
  call void @_ZN8ap_fixedILi24ELi1EL9ap_q_mode5EL9ap_o_mode3ELi0EEC1Ed(%struct.ap_fixed* getelementptr inbounds ([8192 x %struct.ap_fixed]* @_ZL4sine, i32 0, i32 481), double 0x3FE5C4583FFFF890)
  call void @_ZN8ap_fixedILi24ELi1EL9ap_q_mode5EL9ap_o_mode3ELi0EEC1Ed(%struct.ap_fixed* getelementptr inbounds ([8192 x %struct.ap_fixed]* @_ZL4sine, i32 0, i32 482), double 0x3FE5C74600000EFB)
  call void @_ZN8ap_fixedILi24ELi1EL9ap_q_mode5EL9ap_o_mode3ELi0EEC1Ed(%struct.ap_fixed* getelementptr inbounds ([8192 x %struct.ap_fixed]* @_ZL4sine, i32 0, i32 483), double 0x3FE5CA3380000C67)
  call void @_ZN8ap_fixedILi24ELi1EL9ap_q_mode5EL9ap_o_mode3ELi0EEC1Ed(%struct.ap_fixed* getelementptr inbounds ([8192 x %struct.ap_fixed]* @_ZL4sine, i32 0, i32 484), double 0x3FE5CD20BFFFF0D5)
  call void @_ZN8ap_fixedILi24ELi1EL9ap_q_mode5EL9ap_o_mode3ELi0EEC1Ed(%struct.ap_fixed* getelementptr inbounds ([8192 x %struct.ap_fixed]* @_ZL4sine, i32 0, i32 485), double 0x3FE5D00DC00002A1)
  call void @_ZN8ap_fixedILi24ELi1EL9ap_q_mode5EL9ap_o_mode3ELi0EEC1Ed(%struct.ap_fixed* getelementptr inbounds ([8192 x %struct.ap_fixed]* @_ZL4sine, i32 0, i32 486), double 0x3FE5D2FA7FFFFB6E)
  call void @_ZN8ap_fixedILi24ELi1EL9ap_q_mode5EL9ap_o_mode3ELi0EEC1Ed(%struct.ap_fixed* getelementptr inbounds ([8192 x %struct.ap_fixed]* @_ZL4sine, i32 0, i32 487), double 0x3FE5D5E720000AEB)
  call void @_ZN8ap_fixedILi24ELi1EL9ap_q_mode5EL9ap_o_mode3ELi0EEC1Ed(%struct.ap_fixed* getelementptr inbounds ([8192 x %struct.ap_fixed]* @_ZL4sine, i32 0, i32 488), double 0x3FE5D8D380000169)
  call void @_ZN8ap_fixedILi24ELi1EL9ap_q_mode5EL9ap_o_mode3ELi0EEC1Ed(%struct.ap_fixed* getelementptr inbounds ([8192 x %struct.ap_fixed]* @_ZL4sine, i32 0, i32 489), double 0x3FE5DBBFA0000216)
  call void @_ZN8ap_fixedILi24ELi1EL9ap_q_mode5EL9ap_o_mode3ELi0EEC1Ed(%struct.ap_fixed* getelementptr inbounds ([8192 x %struct.ap_fixed]* @_ZL4sine, i32 0, i32 490), double 0x3FE5DEAB80000CF4)
  call void @_ZN8ap_fixedILi24ELi1EL9ap_q_mode5EL9ap_o_mode3ELi0EEC1Ed(%struct.ap_fixed* getelementptr inbounds ([8192 x %struct.ap_fixed]* @_ZL4sine, i32 0, i32 491), double 0x3FE5E19740000B52)
  call void @_ZN8ap_fixedILi24ELi1EL9ap_q_mode5EL9ap_o_mode3ELi0EEC1Ed(%struct.ap_fixed* getelementptr inbounds ([8192 x %struct.ap_fixed]* @_ZL4sine, i32 0, i32 492), double 0x3FE5E482A0000761)
  call void @_ZN8ap_fixedILi24ELi1EL9ap_q_mode5EL9ap_o_mode3ELi0EEC1Ed(%struct.ap_fixed* getelementptr inbounds ([8192 x %struct.ap_fixed]* @_ZL4sine, i32 0, i32 493), double 0x3FE5E76DDFFFF6F0)
  call void @_ZN8ap_fixedILi24ELi1EL9ap_q_mode5EL9ap_o_mode3ELi0EEC1Ed(%struct.ap_fixed* getelementptr inbounds ([8192 x %struct.ap_fixed]* @_ZL4sine, i32 0, i32 494), double 0x3FE5EA58DFFFF0AF)
  call void @_ZN8ap_fixedILi24ELi1EL9ap_q_mode5EL9ap_o_mode3ELi0EEC1Ed(%struct.ap_fixed* getelementptr inbounds ([8192 x %struct.ap_fixed]* @_ZL4sine, i32 0, i32 495), double 0x3FE5ED439FFFF49E)
  call void @_ZN8ap_fixedILi24ELi1EL9ap_q_mode5EL9ap_o_mode3ELi0EEC1Ed(%struct.ap_fixed* getelementptr inbounds ([8192 x %struct.ap_fixed]* @_ZL4sine, i32 0, i32 496), double 0x3FE5F02E200002BD)
  call void @_ZN8ap_fixedILi24ELi1EL9ap_q_mode5EL9ap_o_mode3ELi0EEC1Ed(%struct.ap_fixed* getelementptr inbounds ([8192 x %struct.ap_fixed]* @_ZL4sine, i32 0, i32 497), double 0x3FE5F3188000045D)
  call void @_ZN8ap_fixedILi24ELi1EL9ap_q_mode5EL9ap_o_mode3ELi0EEC1Ed(%struct.ap_fixed* getelementptr inbounds ([8192 x %struct.ap_fixed]* @_ZL4sine, i32 0, i32 498), double 0x3FE5F602A000102D)
  call void @_ZN8ap_fixedILi24ELi1EL9ap_q_mode5EL9ap_o_mode3ELi0EEC1Ed(%struct.ap_fixed* getelementptr inbounds ([8192 x %struct.ap_fixed]* @_ZL4sine, i32 0, i32 499), double 0x3FE5F8EC5FFFF67E)
  call void @_ZN8ap_fixedILi24ELi1EL9ap_q_mode5EL9ap_o_mode3ELi0EEC1Ed(%struct.ap_fixed* getelementptr inbounds ([8192 x %struct.ap_fixed]* @_ZL4sine, i32 0, i32 500), double 0x3FE5FBD5FFFFF37E)
  call void @_ZN8ap_fixedILi24ELi1EL9ap_q_mode5EL9ap_o_mode3ELi0EEC1Ed(%struct.ap_fixed* getelementptr inbounds ([8192 x %struct.ap_fixed]* @_ZL4sine, i32 0, i32 501), double 0x3FE5FEBF8000072E)
  call void @_ZN8ap_fixedILi24ELi1EL9ap_q_mode5EL9ap_o_mode3ELi0EEC1Ed(%struct.ap_fixed* getelementptr inbounds ([8192 x %struct.ap_fixed]* @_ZL4sine, i32 0, i32 502), double 0x3FE601A89FFFF560)
  call void @_ZN8ap_fixedILi24ELi1EL9ap_q_mode5EL9ap_o_mode3ELi0EEC1Ed(%struct.ap_fixed* getelementptr inbounds ([8192 x %struct.ap_fixed]* @_ZL4sine, i32 0, i32 503), double 0x3FE60491800010F0)
  call void @_ZN8ap_fixedILi24ELi1EL9ap_q_mode5EL9ap_o_mode3ELi0EEC1Ed(%struct.ap_fixed* getelementptr inbounds ([8192 x %struct.ap_fixed]* @_ZL4sine, i32 0, i32 504), double 0x3FE6077A3FFFFCD2)
  call void @_ZN8ap_fixedILi24ELi1EL9ap_q_mode5EL9ap_o_mode3ELi0EEC1Ed(%struct.ap_fixed* getelementptr inbounds ([8192 x %struct.ap_fixed]* @_ZL4sine, i32 0, i32 505), double 0x3FE60A62BFFFF2E4)
  call void @_ZN8ap_fixedILi24ELi1EL9ap_q_mode5EL9ap_o_mode3ELi0EEC1Ed(%struct.ap_fixed* getelementptr inbounds ([8192 x %struct.ap_fixed]* @_ZL4sine, i32 0, i32 506), double 0x3FE60D4AFFFFF326)
  call void @_ZN8ap_fixedILi24ELi1EL9ap_q_mode5EL9ap_o_mode3ELi0EEC1Ed(%struct.ap_fixed* getelementptr inbounds ([8192 x %struct.ap_fixed]* @_ZL4sine, i32 0, i32 507), double 0x3FE61032FFFFFD98)
  call void @_ZN8ap_fixedILi24ELi1EL9ap_q_mode5EL9ap_o_mode3ELi0EEC1Ed(%struct.ap_fixed* getelementptr inbounds ([8192 x %struct.ap_fixed]* @_ZL4sine, i32 0, i32 508), double 0x3FE6131ABFFFEF0B)
  call void @_ZN8ap_fixedILi24ELi1EL9ap_q_mode5EL9ap_o_mode3ELi0EEC1Ed(%struct.ap_fixed* getelementptr inbounds ([8192 x %struct.ap_fixed]* @_ZL4sine, i32 0, i32 509), double 0x3FE6160240000DDD)
  call void @_ZN8ap_fixedILi24ELi1EL9ap_q_mode5EL9ap_o_mode3ELi0EEC1Ed(%struct.ap_fixed* getelementptr inbounds ([8192 x %struct.ap_fixed]* @_ZL4sine, i32 0, i32 510), double 0x3FE618E97FFFF081)
  call void @_ZN8ap_fixedILi24ELi1EL9ap_q_mode5EL9ap_o_mode3ELi0EEC1Ed(%struct.ap_fixed* getelementptr inbounds ([8192 x %struct.ap_fixed]* @_ZL4sine, i32 0, i32 511), double 0x3FE61BD0A0000D04)
  call void @_ZN8ap_fixedILi24ELi1EL9ap_q_mode5EL9ap_o_mode3ELi0EEC1Ed(%struct.ap_fixed* getelementptr inbounds ([8192 x %struct.ap_fixed]* @_ZL4sine, i32 0, i32 512), double 0x3FE61EB780001087)
  call void @_ZN8ap_fixedILi24ELi1EL9ap_q_mode5EL9ap_o_mode3ELi0EEC1Ed(%struct.ap_fixed* getelementptr inbounds ([8192 x %struct.ap_fixed]* @_ZL4sine, i32 0, i32 513), double 0x3FE6219DFFFFEE8C)
  call void @_ZN8ap_fixedILi24ELi1EL9ap_q_mode5EL9ap_o_mode3ELi0EEC1Ed(%struct.ap_fixed* getelementptr inbounds ([8192 x %struct.ap_fixed]* @_ZL4sine, i32 0, i32 514), double 0x3FE624846000066F)
  call void @_ZN8ap_fixedILi24ELi1EL9ap_q_mode5EL9ap_o_mode3ELi0EEC1Ed(%struct.ap_fixed* getelementptr inbounds ([8192 x %struct.ap_fixed]* @_ZL4sine, i32 0, i32 515), double 0x3FE6276A80000553)
  call void @_ZN8ap_fixedILi24ELi1EL9ap_q_mode5EL9ap_o_mode3ELi0EEC1Ed(%struct.ap_fixed* getelementptr inbounds ([8192 x %struct.ap_fixed]* @_ZL4sine, i32 0, i32 516), double 0x3FE62A5060000E68)
  call void @_ZN8ap_fixedILi24ELi1EL9ap_q_mode5EL9ap_o_mode3ELi0EEC1Ed(%struct.ap_fixed* getelementptr inbounds ([8192 x %struct.ap_fixed]* @_ZL4sine, i32 0, i32 517), double 0x3FE62D35FFFFFE7D)
  call void @_ZN8ap_fixedILi24ELi1EL9ap_q_mode5EL9ap_o_mode3ELi0EEC1Ed(%struct.ap_fixed* getelementptr inbounds ([8192 x %struct.ap_fixed]* @_ZL4sine, i32 0, i32 518), double 0x3FE6301B80000542)
  call void @_ZN8ap_fixedILi24ELi1EL9ap_q_mode5EL9ap_o_mode3ELi0EEC1Ed(%struct.ap_fixed* getelementptr inbounds ([8192 x %struct.ap_fixed]* @_ZL4sine, i32 0, i32 519), double 0x3FE63300A00009B7)
  call void @_ZN8ap_fixedILi24ELi1EL9ap_q_mode5EL9ap_o_mode3ELi0EEC1Ed(%struct.ap_fixed* getelementptr inbounds ([8192 x %struct.ap_fixed]* @_ZL4sine, i32 0, i32 520), double 0x3FE635E5A00001AD)
  call void @_ZN8ap_fixedILi24ELi1EL9ap_q_mode5EL9ap_o_mode3ELi0EEC1Ed(%struct.ap_fixed* getelementptr inbounds ([8192 x %struct.ap_fixed]* @_ZL4sine, i32 0, i32 521), double 0x3FE638CA3FFFF753)
  call void @_ZN8ap_fixedILi24ELi1EL9ap_q_mode5EL9ap_o_mode3ELi0EEC1Ed(%struct.ap_fixed* getelementptr inbounds ([8192 x %struct.ap_fixed]* @_ZL4sine, i32 0, i32 522), double 0x3FE63BAEC00003A9)
  call void @_ZN8ap_fixedILi24ELi1EL9ap_q_mode5EL9ap_o_mode3ELi0EEC1Ed(%struct.ap_fixed* getelementptr inbounds ([8192 x %struct.ap_fixed]* @_ZL4sine, i32 0, i32 523), double 0x3FE63E92E0000DAF)
  call void @_ZN8ap_fixedILi24ELi1EL9ap_q_mode5EL9ap_o_mode3ELi0EEC1Ed(%struct.ap_fixed* getelementptr inbounds ([8192 x %struct.ap_fixed]* @_ZL4sine, i32 0, i32 524), double 0x3FE64176E0000B36)
  call void @_ZN8ap_fixedILi24ELi1EL9ap_q_mode5EL9ap_o_mode3ELi0EEC1Ed(%struct.ap_fixed* getelementptr inbounds ([8192 x %struct.ap_fixed]* @_ZL4sine, i32 0, i32 525), double 0x3FE6445A9FFFEFBD)
  call void @_ZN8ap_fixedILi24ELi1EL9ap_q_mode5EL9ap_o_mode3ELi0EEC1Ed(%struct.ap_fixed* getelementptr inbounds ([8192 x %struct.ap_fixed]* @_ZL4sine, i32 0, i32 526), double 0x3FE6473E200001A4)
  call void @_ZN8ap_fixedILi24ELi1EL9ap_q_mode5EL9ap_o_mode3ELi0EEC1Ed(%struct.ap_fixed* getelementptr inbounds ([8192 x %struct.ap_fixed]* @_ZL4sine, i32 0, i32 527), double 0x3FE64A215FFFFA8C)
  call void @_ZN8ap_fixedILi24ELi1EL9ap_q_mode5EL9ap_o_mode3ELi0EEC1Ed(%struct.ap_fixed* getelementptr inbounds ([8192 x %struct.ap_fixed]* @_ZL4sine, i32 0, i32 528), double 0x3FE64D045FFFFDA3)
  call void @_ZN8ap_fixedILi24ELi1EL9ap_q_mode5EL9ap_o_mode3ELi0EEC1Ed(%struct.ap_fixed* getelementptr inbounds ([8192 x %struct.ap_fixed]* @_ZL4sine, i32 0, i32 529), double 0x3FE64FE720000AEB)
  call void @_ZN8ap_fixedILi24ELi1EL9ap_q_mode5EL9ap_o_mode3ELi0EEC1Ed(%struct.ap_fixed* getelementptr inbounds ([8192 x %struct.ap_fixed]* @_ZL4sine, i32 0, i32 530), double 0x3FE652C99FFFFF33)
  call void @_ZN8ap_fixedILi24ELi1EL9ap_q_mode5EL9ap_o_mode3ELi0EEC1Ed(%struct.ap_fixed* getelementptr inbounds ([8192 x %struct.ap_fixed]* @_ZL4sine, i32 0, i32 531), double 0x3FE655AC00000A2C)
  call void @_ZN8ap_fixedILi24ELi1EL9ap_q_mode5EL9ap_o_mode3ELi0EEC1Ed(%struct.ap_fixed* getelementptr inbounds ([8192 x %struct.ap_fixed]* @_ZL4sine, i32 0, i32 532), double 0x3FE6588DFFFFEFA5)
  call void @_ZN8ap_fixedILi24ELi1EL9ap_q_mode5EL9ap_o_mode3ELi0EEC1Ed(%struct.ap_fixed* getelementptr inbounds ([8192 x %struct.ap_fixed]* @_ZL4sine, i32 0, i32 533), double 0x3FE65B6FC000027E)
  call void @_ZN8ap_fixedILi24ELi1EL9ap_q_mode5EL9ap_o_mode3ELi0EEC1Ed(%struct.ap_fixed* getelementptr inbounds ([8192 x %struct.ap_fixed]* @_ZL4sine, i32 0, i32 534), double 0x3FE65E513FFFFC57)
  call void @_ZN8ap_fixedILi24ELi1EL9ap_q_mode5EL9ap_o_mode3ELi0EEC1Ed(%struct.ap_fixed* getelementptr inbounds ([8192 x %struct.ap_fixed]* @_ZL4sine, i32 0, i32 535), double 0x3FE66132A0000CE0)
  call void @_ZN8ap_fixedILi24ELi1EL9ap_q_mode5EL9ap_o_mode3ELi0EEC1Ed(%struct.ap_fixed* getelementptr inbounds ([8192 x %struct.ap_fixed]* @_ZL4sine, i32 0, i32 536), double 0x3FE664139FFFF7EB)
  call void @_ZN8ap_fixedILi24ELi1EL9ap_q_mode5EL9ap_o_mode3ELi0EEC1Ed(%struct.ap_fixed* getelementptr inbounds ([8192 x %struct.ap_fixed]* @_ZL4sine, i32 0, i32 537), double 0x3FE666F47FFFF9A5)
  call void @_ZN8ap_fixedILi24ELi1EL9ap_q_mode5EL9ap_o_mode3ELi0EEC1Ed(%struct.ap_fixed* getelementptr inbounds ([8192 x %struct.ap_fixed]* @_ZL4sine, i32 0, i32 538), double 0x3FE669D4FFFFF90F)
  call void @_ZN8ap_fixedILi24ELi1EL9ap_q_mode5EL9ap_o_mode3ELi0EEC1Ed(%struct.ap_fixed* getelementptr inbounds ([8192 x %struct.ap_fixed]* @_ZL4sine, i32 0, i32 539), double 0x3FE66CB560000F29)
  call void @_ZN8ap_fixedILi24ELi1EL9ap_q_mode5EL9ap_o_mode3ELi0EEC1Ed(%struct.ap_fixed* getelementptr inbounds ([8192 x %struct.ap_fixed]* @_ZL4sine, i32 0, i32 540), double 0x3FE66F955FFFFFC5)
  call void @_ZN8ap_fixedILi24ELi1EL9ap_q_mode5EL9ap_o_mode3ELi0EEC1Ed(%struct.ap_fixed* getelementptr inbounds ([8192 x %struct.ap_fixed]* @_ZL4sine, i32 0, i32 541), double 0x3FE6727540000710)
  call void @_ZN8ap_fixedILi24ELi1EL9ap_q_mode5EL9ap_o_mode3ELi0EEC1Ed(%struct.ap_fixed* getelementptr inbounds ([8192 x %struct.ap_fixed]* @_ZL4sine, i32 0, i32 542), double 0x3FE67554C0000C0B)
  call void @_ZN8ap_fixedILi24ELi1EL9ap_q_mode5EL9ap_o_mode3ELi0EEC1Ed(%struct.ap_fixed* getelementptr inbounds ([8192 x %struct.ap_fixed]* @_ZL4sine, i32 0, i32 543), double 0x3FE6783420000487)
  call void @_ZN8ap_fixedILi24ELi1EL9ap_q_mode5EL9ap_o_mode3ELi0EEC1Ed(%struct.ap_fixed* getelementptr inbounds ([8192 x %struct.ap_fixed]* @_ZL4sine, i32 0, i32 544), double 0x3FE67B131FFFFAB3)
  call void @_ZN8ap_fixedILi24ELi1EL9ap_q_mode5EL9ap_o_mode3ELi0EEC1Ed(%struct.ap_fixed* getelementptr inbounds ([8192 x %struct.ap_fixed]* @_ZL4sine, i32 0, i32 545), double 0x3FE67DF20000078F)
  call void @_ZN8ap_fixedILi24ELi1EL9ap_q_mode5EL9ap_o_mode3ELi0EEC1Ed(%struct.ap_fixed* getelementptr inbounds ([8192 x %struct.ap_fixed]* @_ZL4sine, i32 0, i32 546), double 0x3FE680D09FFFFB6C)
  call void @_ZN8ap_fixedILi24ELi1EL9ap_q_mode5EL9ap_o_mode3ELi0EEC1Ed(%struct.ap_fixed* getelementptr inbounds ([8192 x %struct.ap_fixed]* @_ZL4sine, i32 0, i32 547), double 0x3FE683AEE0001028)
  call void @_ZN8ap_fixedILi24ELi1EL9ap_q_mode5EL9ap_o_mode3ELi0EEC1Ed(%struct.ap_fixed* getelementptr inbounds ([8192 x %struct.ap_fixed]* @_ZL4sine, i32 0, i32 548), double 0x3FE6868CFFFFF536)
  call void @_ZN8ap_fixedILi24ELi1EL9ap_q_mode5EL9ap_o_mode3ELi0EEC1Ed(%struct.ap_fixed* getelementptr inbounds ([8192 x %struct.ap_fixed]* @_ZL4sine, i32 0, i32 549), double 0x3FE6896ABFFFFB23)
  call void @_ZN8ap_fixedILi24ELi1EL9ap_q_mode5EL9ap_o_mode3ELi0EEC1Ed(%struct.ap_fixed* getelementptr inbounds ([8192 x %struct.ap_fixed]* @_ZL4sine, i32 0, i32 550), double 0x3FE68C485FFFF491)
  call void @_ZN8ap_fixedILi24ELi1EL9ap_q_mode5EL9ap_o_mode3ELi0EEC1Ed(%struct.ap_fixed* getelementptr inbounds ([8192 x %struct.ap_fixed]* @_ZL4sine, i32 0, i32 551), double 0x3FE68F25A0000EDF)
  call void @_ZN8ap_fixedILi24ELi1EL9ap_q_mode5EL9ap_o_mode3ELi0EEC1Ed(%struct.ap_fixed* getelementptr inbounds ([8192 x %struct.ap_fixed]* @_ZL4sine, i32 0, i32 552), double 0x3FE69202BFFFF97D)
  call void @_ZN8ap_fixedILi24ELi1EL9ap_q_mode5EL9ap_o_mode3ELi0EEC1Ed(%struct.ap_fixed* getelementptr inbounds ([8192 x %struct.ap_fixed]* @_ZL4sine, i32 0, i32 553), double 0x3FE694DF800004FB)
  call void @_ZN8ap_fixedILi24ELi1EL9ap_q_mode5EL9ap_o_mode3ELi0EEC1Ed(%struct.ap_fixed* getelementptr inbounds ([8192 x %struct.ap_fixed]* @_ZL4sine, i32 0, i32 554), double 0x3FE697BC200003FA)
  call void @_ZN8ap_fixedILi24ELi1EL9ap_q_mode5EL9ap_o_mode3ELi0EEC1Ed(%struct.ap_fixed* getelementptr inbounds ([8192 x %struct.ap_fixed]* @_ZL4sine, i32 0, i32 555), double 0x3FE69A98600000A9)
  call void @_ZN8ap_fixedILi24ELi1EL9ap_q_mode5EL9ap_o_mode3ELi0EEC1Ed(%struct.ap_fixed* getelementptr inbounds ([8192 x %struct.ap_fixed]* @_ZL4sine, i32 0, i32 556), double 0x3FE69D747FFFF0D9)
  call void @_ZN8ap_fixedILi24ELi1EL9ap_q_mode5EL9ap_o_mode3ELi0EEC1Ed(%struct.ap_fixed* getelementptr inbounds ([8192 x %struct.ap_fixed]* @_ZL4sine, i32 0, i32 557), double 0x3FE6A050400001E8)
  call void @_ZN8ap_fixedILi24ELi1EL9ap_q_mode5EL9ap_o_mode3ELi0EEC1Ed(%struct.ap_fixed* getelementptr inbounds ([8192 x %struct.ap_fixed]* @_ZL4sine, i32 0, i32 558), double 0x3FE6A32BBFFFF9F8)
  call void @_ZN8ap_fixedILi24ELi1EL9ap_q_mode5EL9ap_o_mode3ELi0EEC1Ed(%struct.ap_fixed* getelementptr inbounds ([8192 x %struct.ap_fixed]* @_ZL4sine, i32 0, i32 559), double 0x3FE6A607200008B8)
  call void @_ZN8ap_fixedILi24ELi1EL9ap_q_mode5EL9ap_o_mode3ELi0EEC1Ed(%struct.ap_fixed* getelementptr inbounds ([8192 x %struct.ap_fixed]* @_ZL4sine, i32 0, i32 560), double 0x3FE6A8E21FFFF1F9)
  call void @_ZN8ap_fixedILi24ELi1EL9ap_q_mode5EL9ap_o_mode3ELi0EEC1Ed(%struct.ap_fixed* getelementptr inbounds ([8192 x %struct.ap_fixed]* @_ZL4sine, i32 0, i32 561), double 0x3FE6ABBCE0000899)
  call void @_ZN8ap_fixedILi24ELi1EL9ap_q_mode5EL9ap_o_mode3ELi0EEC1Ed(%struct.ap_fixed* getelementptr inbounds ([8192 x %struct.ap_fixed]* @_ZL4sine, i32 0, i32 562), double 0x3FE6AE976000063A)
  call void @_ZN8ap_fixedILi24ELi1EL9ap_q_mode5EL9ap_o_mode3ELi0EEC1Ed(%struct.ap_fixed* getelementptr inbounds ([8192 x %struct.ap_fixed]* @_ZL4sine, i32 0, i32 563), double 0x3FE6B171A0000E0B)
  call void @_ZN8ap_fixedILi24ELi1EL9ap_q_mode5EL9ap_o_mode3ELi0EEC1Ed(%struct.ap_fixed* getelementptr inbounds ([8192 x %struct.ap_fixed]* @_ZL4sine, i32 0, i32 564), double 0x3FE6B44B9FFFFCDD)
  call void @_ZN8ap_fixedILi24ELi1EL9ap_q_mode5EL9ap_o_mode3ELi0EEC1Ed(%struct.ap_fixed* getelementptr inbounds ([8192 x %struct.ap_fixed]* @_ZL4sine, i32 0, i32 565), double 0x3FE6B7255FFFF5DF)
  call void @_ZN8ap_fixedILi24ELi1EL9ap_q_mode5EL9ap_o_mode3ELi0EEC1Ed(%struct.ap_fixed* getelementptr inbounds ([8192 x %struct.ap_fixed]* @_ZL4sine, i32 0, i32 566), double 0x3FE6B9FEDFFFF911)
  call void @_ZN8ap_fixedILi24ELi1EL9ap_q_mode5EL9ap_o_mode3ELi0EEC1Ed(%struct.ap_fixed* getelementptr inbounds ([8192 x %struct.ap_fixed]* @_ZL4sine, i32 0, i32 567), double 0x3FE6BCD820000673)
  call void @_ZN8ap_fixedILi24ELi1EL9ap_q_mode5EL9ap_o_mode3ELi0EEC1Ed(%struct.ap_fixed* getelementptr inbounds ([8192 x %struct.ap_fixed]* @_ZL4sine, i32 0, i32 568), double 0x3FE6BFB100001186)
  call void @_ZN8ap_fixedILi24ELi1EL9ap_q_mode5EL9ap_o_mode3ELi0EEC1Ed(%struct.ap_fixed* getelementptr inbounds ([8192 x %struct.ap_fixed]* @_ZL4sine, i32 0, i32 569), double 0x3FE6C289C0001019)
  call void @_ZN8ap_fixedILi24ELi1EL9ap_q_mode5EL9ap_o_mode3ELi0EEC1Ed(%struct.ap_fixed* getelementptr inbounds ([8192 x %struct.ap_fixed]* @_ZL4sine, i32 0, i32 570), double 0x3FE6C56220000C5C)
  call void @_ZN8ap_fixedILi24ELi1EL9ap_q_mode5EL9ap_o_mode3ELi0EEC1Ed(%struct.ap_fixed* getelementptr inbounds ([8192 x %struct.ap_fixed]* @_ZL4sine, i32 0, i32 571), double 0x3FE6C83A5FFFFC20)
  call void @_ZN8ap_fixedILi24ELi1EL9ap_q_mode5EL9ap_o_mode3ELi0EEC1Ed(%struct.ap_fixed* getelementptr inbounds ([8192 x %struct.ap_fixed]* @_ZL4sine, i32 0, i32 572), double 0x3FE6CB1240000CC4)
  call void @_ZN8ap_fixedILi24ELi1EL9ap_q_mode5EL9ap_o_mode3ELi0EEC1Ed(%struct.ap_fixed* getelementptr inbounds ([8192 x %struct.ap_fixed]* @_ZL4sine, i32 0, i32 573), double 0x3FE6CDEA000010E8)
  call void @_ZN8ap_fixedILi24ELi1EL9ap_q_mode5EL9ap_o_mode3ELi0EEC1Ed(%struct.ap_fixed* getelementptr inbounds ([8192 x %struct.ap_fixed]* @_ZL4sine, i32 0, i32 574), double 0x3FE6D0C15FFFEF8D)
  call void @_ZN8ap_fixedILi24ELi1EL9ap_q_mode5EL9ap_o_mode3ELi0EEC1Ed(%struct.ap_fixed* getelementptr inbounds ([8192 x %struct.ap_fixed]* @_ZL4sine, i32 0, i32 575), double 0x3FE6D3987FFFFB91)
  call void @_ZN8ap_fixedILi24ELi1EL9ap_q_mode5EL9ap_o_mode3ELi0EEC1Ed(%struct.ap_fixed* getelementptr inbounds ([8192 x %struct.ap_fixed]* @_ZL4sine, i32 0, i32 576), double 0x3FE6D66F5FFFEE97)
  call void @_ZN8ap_fixedILi24ELi1EL9ap_q_mode5EL9ap_o_mode3ELi0EEC1Ed(%struct.ap_fixed* getelementptr inbounds ([8192 x %struct.ap_fixed]* @_ZL4sine, i32 0, i32 577), double 0x3FE6D94600000EFB)
  call void @_ZN8ap_fixedILi24ELi1EL9ap_q_mode5EL9ap_o_mode3ELi0EEC1Ed(%struct.ap_fixed* getelementptr inbounds ([8192 x %struct.ap_fixed]* @_ZL4sine, i32 0, i32 578), double 0x3FE6DC1C400009E1)
  call void @_ZN8ap_fixedILi24ELi1EL9ap_q_mode5EL9ap_o_mode3ELi0EEC1Ed(%struct.ap_fixed* getelementptr inbounds ([8192 x %struct.ap_fixed]* @_ZL4sine, i32 0, i32 579), double 0x3FE6DEF25FFFF847)
  call void @_ZN8ap_fixedILi24ELi1EL9ap_q_mode5EL9ap_o_mode3ELi0EEC1Ed(%struct.ap_fixed* getelementptr inbounds ([8192 x %struct.ap_fixed]* @_ZL4sine, i32 0, i32 580), double 0x3FE6E1C83FFFF0DD)
  call void @_ZN8ap_fixedILi24ELi1EL9ap_q_mode5EL9ap_o_mode3ELi0EEC1Ed(%struct.ap_fixed* getelementptr inbounds ([8192 x %struct.ap_fixed]* @_ZL4sine, i32 0, i32 581), double 0x3FE6E49DC0000A53)
  call void @_ZN8ap_fixedILi24ELi1EL9ap_q_mode5EL9ap_o_mode3ELi0EEC1Ed(%struct.ap_fixed* getelementptr inbounds ([8192 x %struct.ap_fixed]* @_ZL4sine, i32 0, i32 582), double 0x3FE6E77300000ACA)
  call void @_ZN8ap_fixedILi24ELi1EL9ap_q_mode5EL9ap_o_mode3ELi0EEC1Ed(%struct.ap_fixed* getelementptr inbounds ([8192 x %struct.ap_fixed]* @_ZL4sine, i32 0, i32 583), double 0x3FE6EA47FFFFF242)
  call void @_ZN8ap_fixedILi24ELi1EL9ap_q_mode5EL9ap_o_mode3ELi0EEC1Ed(%struct.ap_fixed* getelementptr inbounds ([8192 x %struct.ap_fixed]* @_ZL4sine, i32 0, i32 584), double 0x3FE6ED1CC0000718)
  call void @_ZN8ap_fixedILi24ELi1EL9ap_q_mode5EL9ap_o_mode3ELi0EEC1Ed(%struct.ap_fixed* getelementptr inbounds ([8192 x %struct.ap_fixed]* @_ZL4sine, i32 0, i32 585), double 0x3FE6EFF1400002F0)
  call void @_ZN8ap_fixedILi24ELi1EL9ap_q_mode5EL9ap_o_mode3ELi0EEC1Ed(%struct.ap_fixed* getelementptr inbounds ([8192 x %struct.ap_fixed]* @_ZL4sine, i32 0, i32 586), double 0x3FE6F2C5800008F8)
  call void @_ZN8ap_fixedILi24ELi1EL9ap_q_mode5EL9ap_o_mode3ELi0EEC1Ed(%struct.ap_fixed* getelementptr inbounds ([8192 x %struct.ap_fixed]* @_ZL4sine, i32 0, i32 587), double 0x3FE6F5997FFFF600)
  call void @_ZN8ap_fixedILi24ELi1EL9ap_q_mode5EL9ap_o_mode3ELi0EEC1Ed(%struct.ap_fixed* getelementptr inbounds ([8192 x %struct.ap_fixed]* @_ZL4sine, i32 0, i32 588), double 0x3FE6F86D200003E9)
  call void @_ZN8ap_fixedILi24ELi1EL9ap_q_mode5EL9ap_o_mode3ELi0EEC1Ed(%struct.ap_fixed* getelementptr inbounds ([8192 x %struct.ap_fixed]* @_ZL4sine, i32 0, i32 589), double 0x3FE6FB407FFFF8D2)
  call void @_ZN8ap_fixedILi24ELi1EL9ap_q_mode5EL9ap_o_mode3ELi0EEC1Ed(%struct.ap_fixed* getelementptr inbounds ([8192 x %struct.ap_fixed]* @_ZL4sine, i32 0, i32 590), double 0x3FE6FE13C000046A)
  call void @_ZN8ap_fixedILi24ELi1EL9ap_q_mode5EL9ap_o_mode3ELi0EEC1Ed(%struct.ap_fixed* getelementptr inbounds ([8192 x %struct.ap_fixed]* @_ZL4sine, i32 0, i32 591), double 0x3FE700E6A0000DB3)
  call void @_ZN8ap_fixedILi24ELi1EL9ap_q_mode5EL9ap_o_mode3ELi0EEC1Ed(%struct.ap_fixed* getelementptr inbounds ([8192 x %struct.ap_fixed]* @_ZL4sine, i32 0, i32 592), double 0x3FE703B91FFFF17E)
  call void @_ZN8ap_fixedILi24ELi1EL9ap_q_mode5EL9ap_o_mode3ELi0EEC1Ed(%struct.ap_fixed* getelementptr inbounds ([8192 x %struct.ap_fixed]* @_ZL4sine, i32 0, i32 593), double 0x3FE7068B80000F27)
  call void @_ZN8ap_fixedILi24ELi1EL9ap_q_mode5EL9ap_o_mode3ELi0EEC1Ed(%struct.ap_fixed* getelementptr inbounds ([8192 x %struct.ap_fixed]* @_ZL4sine, i32 0, i32 594), double 0x3FE7095D9FFFF0A2)
  call void @_ZN8ap_fixedILi24ELi1EL9ap_q_mode5EL9ap_o_mode3ELi0EEC1Ed(%struct.ap_fixed* getelementptr inbounds ([8192 x %struct.ap_fixed]* @_ZL4sine, i32 0, i32 595), double 0x3FE70C2F5FFFF2FC)
  call void @_ZN8ap_fixedILi24ELi1EL9ap_q_mode5EL9ap_o_mode3ELi0EEC1Ed(%struct.ap_fixed* getelementptr inbounds ([8192 x %struct.ap_fixed]* @_ZL4sine, i32 0, i32 596), double 0x3FE70F00DFFFFF87)
  call void @_ZN8ap_fixedILi24ELi1EL9ap_q_mode5EL9ap_o_mode3ELi0EEC1Ed(%struct.ap_fixed* getelementptr inbounds ([8192 x %struct.ap_fixed]* @_ZL4sine, i32 0, i32 597), double 0x3FE711D21FFFF312)
  call void @_ZN8ap_fixedILi24ELi1EL9ap_q_mode5EL9ap_o_mode3ELi0EEC1Ed(%struct.ap_fixed* getelementptr inbounds ([8192 x %struct.ap_fixed]* @_ZL4sine, i32 0, i32 598), double 0x3FE714A31FFFF0CE)
  call void @_ZN8ap_fixedILi24ELi1EL9ap_q_mode5EL9ap_o_mode3ELi0EEC1Ed(%struct.ap_fixed* getelementptr inbounds ([8192 x %struct.ap_fixed]* @_ZL4sine, i32 0, i32 599), double 0x3FE71773DFFFF8B9)
  call void @_ZN8ap_fixedILi24ELi1EL9ap_q_mode5EL9ap_o_mode3ELi0EEC1Ed(%struct.ap_fixed* getelementptr inbounds ([8192 x %struct.ap_fixed]* @_ZL4sine, i32 0, i32 600), double 0x3FE71A443FFFFE55)
  call void @_ZN8ap_fixedILi24ELi1EL9ap_q_mode5EL9ap_o_mode3ELi0EEC1Ed(%struct.ap_fixed* getelementptr inbounds ([8192 x %struct.ap_fixed]* @_ZL4sine, i32 0, i32 601), double 0x3FE71D1460000E21)
  call void @_ZN8ap_fixedILi24ELi1EL9ap_q_mode5EL9ap_o_mode3ELi0EEC1Ed(%struct.ap_fixed* getelementptr inbounds ([8192 x %struct.ap_fixed]* @_ZL4sine, i32 0, i32 602), double 0x3FE71FE4400004EE)
  call void @_ZN8ap_fixedILi24ELi1EL9ap_q_mode5EL9ap_o_mode3ELi0EEC1Ed(%struct.ap_fixed* getelementptr inbounds ([8192 x %struct.ap_fixed]* @_ZL4sine, i32 0, i32 603), double 0x3FE722B3E00005EB)
  call void @_ZN8ap_fixedILi24ELi1EL9ap_q_mode5EL9ap_o_mode3ELi0EEC1Ed(%struct.ap_fixed* getelementptr inbounds ([8192 x %struct.ap_fixed]* @_ZL4sine, i32 0, i32 604), double 0x3FE7258340001118)
  call void @_ZN8ap_fixedILi24ELi1EL9ap_q_mode5EL9ap_o_mode3ELi0EEC1Ed(%struct.ap_fixed* getelementptr inbounds ([8192 x %struct.ap_fixed]* @_ZL4sine, i32 0, i32 605), double 0x3FE7285260000346)
  call void @_ZN8ap_fixedILi24ELi1EL9ap_q_mode5EL9ap_o_mode3ELi0EEC1Ed(%struct.ap_fixed* getelementptr inbounds ([8192 x %struct.ap_fixed]* @_ZL4sine, i32 0, i32 606), double 0x3FE72B211FFFF324)
  call void @_ZN8ap_fixedILi24ELi1EL9ap_q_mode5EL9ap_o_mode3ELi0EEC1Ed(%struct.ap_fixed* getelementptr inbounds ([8192 x %struct.ap_fixed]* @_ZL4sine, i32 0, i32 607), double 0x3FE72DEFA0001062)
  call void @_ZN8ap_fixedILi24ELi1EL9ap_q_mode5EL9ap_o_mode3ELi0EEC1Ed(%struct.ap_fixed* getelementptr inbounds ([8192 x %struct.ap_fixed]* @_ZL4sine, i32 0, i32 608), double 0x3FE730BDDFFFF171)
  call void @_ZN8ap_fixedILi24ELi1EL9ap_q_mode5EL9ap_o_mode3ELi0EEC1Ed(%struct.ap_fixed* getelementptr inbounds ([8192 x %struct.ap_fixed]* @_ZL4sine, i32 0, i32 609), double 0x3FE7338BBFFFF35F)
  call void @_ZN8ap_fixedILi24ELi1EL9ap_q_mode5EL9ap_o_mode3ELi0EEC1Ed(%struct.ap_fixed* getelementptr inbounds ([8192 x %struct.ap_fixed]* @_ZL4sine, i32 0, i32 610), double 0x3FE7365980000BFE)
  call void @_ZN8ap_fixedILi24ELi1EL9ap_q_mode5EL9ap_o_mode3ELi0EEC1Ed(%struct.ap_fixed* getelementptr inbounds ([8192 x %struct.ap_fixed]* @_ZL4sine, i32 0, i32 611), double 0x3FE73926DFFFFF1E)
  call void @_ZN8ap_fixedILi24ELi1EL9ap_q_mode5EL9ap_o_mode3ELi0EEC1Ed(%struct.ap_fixed* getelementptr inbounds ([8192 x %struct.ap_fixed]* @_ZL4sine, i32 0, i32 612), double 0x3FE73BF3FFFFFC6D)
  call void @_ZN8ap_fixedILi24ELi1EL9ap_q_mode5EL9ap_o_mode3ELi0EEC1Ed(%struct.ap_fixed* getelementptr inbounds ([8192 x %struct.ap_fixed]* @_ZL4sine, i32 0, i32 613), double 0x3FE73EC0E00003ED)
  call void @_ZN8ap_fixedILi24ELi1EL9ap_q_mode5EL9ap_o_mode3ELi0EEC1Ed(%struct.ap_fixed* getelementptr inbounds ([8192 x %struct.ap_fixed]* @_ZL4sine, i32 0, i32 614), double 0x3FE7418D6000091D)
  call void @_ZN8ap_fixedILi24ELi1EL9ap_q_mode5EL9ap_o_mode3ELi0EEC1Ed(%struct.ap_fixed* getelementptr inbounds ([8192 x %struct.ap_fixed]* @_ZL4sine, i32 0, i32 615), double 0x3FE74459C00001CE)
  call void @_ZN8ap_fixedILi24ELi1EL9ap_q_mode5EL9ap_o_mode3ELi0EEC1Ed(%struct.ap_fixed* getelementptr inbounds ([8192 x %struct.ap_fixed]* @_ZL4sine, i32 0, i32 616), double 0x3FE74725BFFFF82F)
  call void @_ZN8ap_fixedILi24ELi1EL9ap_q_mode5EL9ap_o_mode3ELi0EEC1Ed(%struct.ap_fixed* getelementptr inbounds ([8192 x %struct.ap_fixed]* @_ZL4sine, i32 0, i32 617), double 0x3FE749F160000F70)
  call void @_ZN8ap_fixedILi24ELi1EL9ap_q_mode5EL9ap_o_mode3ELi0EEC1Ed(%struct.ap_fixed* getelementptr inbounds ([8192 x %struct.ap_fixed]* @_ZL4sine, i32 0, i32 618), double 0x3FE74CBCDFFFF702)
  call void @_ZN8ap_fixedILi24ELi1EL9ap_q_mode5EL9ap_o_mode3ELi0EEC1Ed(%struct.ap_fixed* getelementptr inbounds ([8192 x %struct.ap_fixed]* @_ZL4sine, i32 0, i32 619), double 0x3FE74F87FFFFFF73)
  call void @_ZN8ap_fixedILi24ELi1EL9ap_q_mode5EL9ap_o_mode3ELi0EEC1Ed(%struct.ap_fixed* getelementptr inbounds ([8192 x %struct.ap_fixed]* @_ZL4sine, i32 0, i32 620), double 0x3FE75252DFFFEEE6)
  call void @_ZN8ap_fixedILi24ELi1EL9ap_q_mode5EL9ap_o_mode3ELi0EEC1Ed(%struct.ap_fixed* getelementptr inbounds ([8192 x %struct.ap_fixed]* @_ZL4sine, i32 0, i32 621), double 0x3FE7551D80000BB7)
  call void @_ZN8ap_fixedILi24ELi1EL9ap_q_mode5EL9ap_o_mode3ELi0EEC1Ed(%struct.ap_fixed* getelementptr inbounds ([8192 x %struct.ap_fixed]* @_ZL4sine, i32 0, i32 622), double 0x3FE757E7E0000F8A)
  call void @_ZN8ap_fixedILi24ELi1EL9ap_q_mode5EL9ap_o_mode3ELi0EEC1Ed(%struct.ap_fixed* getelementptr inbounds ([8192 x %struct.ap_fixed]* @_ZL4sine, i32 0, i32 623), double 0x3FE75AB1E000110D)
  call void @_ZN8ap_fixedILi24ELi1EL9ap_q_mode5EL9ap_o_mode3ELi0EEC1Ed(%struct.ap_fixed* getelementptr inbounds ([8192 x %struct.ap_fixed]* @_ZL4sine, i32 0, i32 624), double 0x3FE75D7B9FFFF991)
  call void @_ZN8ap_fixedILi24ELi1EL9ap_q_mode5EL9ap_o_mode3ELi0EEC1Ed(%struct.ap_fixed* getelementptr inbounds ([8192 x %struct.ap_fixed]* @_ZL4sine, i32 0, i32 625), double 0x3FE7604520000F74)
  call void @_ZN8ap_fixedILi24ELi1EL9ap_q_mode5EL9ap_o_mode3ELi0EEC1Ed(%struct.ap_fixed* getelementptr inbounds ([8192 x %struct.ap_fixed]* @_ZL4sine, i32 0, i32 626), double 0x3FE7630E3FFFFFD8)
  call void @_ZN8ap_fixedILi24ELi1EL9ap_q_mode5EL9ap_o_mode3ELi0EEC1Ed(%struct.ap_fixed* getelementptr inbounds ([8192 x %struct.ap_fixed]* @_ZL4sine, i32 0, i32 627), double 0x3FE765D71FFFFA6D)
  call void @_ZN8ap_fixedILi24ELi1EL9ap_q_mode5EL9ap_o_mode3ELi0EEC1Ed(%struct.ap_fixed* getelementptr inbounds ([8192 x %struct.ap_fixed]* @_ZL4sine, i32 0, i32 628), double 0x3FE7689FBFFFFF31)
  call void @_ZN8ap_fixedILi24ELi1EL9ap_q_mode5EL9ap_o_mode3ELi0EEC1Ed(%struct.ap_fixed* getelementptr inbounds ([8192 x %struct.ap_fixed]* @_ZL4sine, i32 0, i32 629), double 0x3FE76B6820000E26)
  call void @_ZN8ap_fixedILi24ELi1EL9ap_q_mode5EL9ap_o_mode3ELi0EEC1Ed(%struct.ap_fixed* getelementptr inbounds ([8192 x %struct.ap_fixed]* @_ZL4sine, i32 0, i32 630), double 0x3FE76E301FFFF79C)
  call void @_ZN8ap_fixedILi24ELi1EL9ap_q_mode5EL9ap_o_mode3ELi0EEC1Ed(%struct.ap_fixed* getelementptr inbounds ([8192 x %struct.ap_fixed]* @_ZL4sine, i32 0, i32 631), double 0x3FE770F7E0000E71)
  call void @_ZN8ap_fixedILi24ELi1EL9ap_q_mode5EL9ap_o_mode3ELi0EEC1Ed(%struct.ap_fixed* getelementptr inbounds ([8192 x %struct.ap_fixed]* @_ZL4sine, i32 0, i32 632), double 0x3FE773BF60000C46)
  call void @_ZN8ap_fixedILi24ELi1EL9ap_q_mode5EL9ap_o_mode3ELi0EEC1Ed(%struct.ap_fixed* getelementptr inbounds ([8192 x %struct.ap_fixed]* @_ZL4sine, i32 0, i32 633), double 0x3FE776869FFFF11D)
  call void @_ZN8ap_fixedILi24ELi1EL9ap_q_mode5EL9ap_o_mode3ELi0EEC1Ed(%struct.ap_fixed* getelementptr inbounds ([8192 x %struct.ap_fixed]* @_ZL4sine, i32 0, i32 634), double 0x3FE7794D7FFFF6D3)
  call void @_ZN8ap_fixedILi24ELi1EL9ap_q_mode5EL9ap_o_mode3ELi0EEC1Ed(%struct.ap_fixed* getelementptr inbounds ([8192 x %struct.ap_fixed]* @_ZL4sine, i32 0, i32 635), double 0x3FE77C14200006BA)
  call void @_ZN8ap_fixedILi24ELi1EL9ap_q_mode5EL9ap_o_mode3ELi0EEC1Ed(%struct.ap_fixed* getelementptr inbounds ([8192 x %struct.ap_fixed]* @_ZL4sine, i32 0, i32 636), double 0x3FE77EDA5FFFF121)
  call void @_ZN8ap_fixedILi24ELi1EL9ap_q_mode5EL9ap_o_mode3ELi0EEC1Ed(%struct.ap_fixed* getelementptr inbounds ([8192 x %struct.ap_fixed]* @_ZL4sine, i32 0, i32 637), double 0x3FE781A0600008E8)
  call void @_ZN8ap_fixedILi24ELi1EL9ap_q_mode5EL9ap_o_mode3ELi0EEC1Ed(%struct.ap_fixed* getelementptr inbounds ([8192 x %struct.ap_fixed]* @_ZL4sine, i32 0, i32 638), double 0x3FE78466200007B0)
  call void @_ZN8ap_fixedILi24ELi1EL9ap_q_mode5EL9ap_o_mode3ELi0EEC1Ed(%struct.ap_fixed* getelementptr inbounds ([8192 x %struct.ap_fixed]* @_ZL4sine, i32 0, i32 639), double 0x3FE7872BA00010A8)
  call void @_ZN8ap_fixedILi24ELi1EL9ap_q_mode5EL9ap_o_mode3ELi0EEC1Ed(%struct.ap_fixed* getelementptr inbounds ([8192 x %struct.ap_fixed]* @_ZL4sine, i32 0, i32 640), double 0x3FE789F0BFFFF421)
  call void @_ZN8ap_fixedILi24ELi1EL9ap_q_mode5EL9ap_o_mode3ELi0EEC1Ed(%struct.ap_fixed* getelementptr inbounds ([8192 x %struct.ap_fixed]* @_ZL4sine, i32 0, i32 641), double 0x3FE78CB5A00004F9)
  call void @_ZN8ap_fixedILi24ELi1EL9ap_q_mode5EL9ap_o_mode3ELi0EEC1Ed(%struct.ap_fixed* getelementptr inbounds ([8192 x %struct.ap_fixed]* @_ZL4sine, i32 0, i32 642), double 0x3FE78F7A3FFFFCD2)
  call void @_ZN8ap_fixedILi24ELi1EL9ap_q_mode5EL9ap_o_mode3ELi0EEC1Ed(%struct.ap_fixed* getelementptr inbounds ([8192 x %struct.ap_fixed]* @_ZL4sine, i32 0, i32 643), double 0x3FE7923E7FFFF25C)
  call void @_ZN8ap_fixedILi24ELi1EL9ap_q_mode5EL9ap_o_mode3ELi0EEC1Ed(%struct.ap_fixed* getelementptr inbounds ([8192 x %struct.ap_fixed]* @_ZL4sine, i32 0, i32 644), double 0x3FE795027FFFF216)
  call void @_ZN8ap_fixedILi24ELi1EL9ap_q_mode5EL9ap_o_mode3ELi0EEC1Ed(%struct.ap_fixed* getelementptr inbounds ([8192 x %struct.ap_fixed]* @_ZL4sine, i32 0, i32 645), double 0x3FE797C63FFFFBFF)
  call void @_ZN8ap_fixedILi24ELi1EL9ap_q_mode5EL9ap_o_mode3ELi0EEC1Ed(%struct.ap_fixed* getelementptr inbounds ([8192 x %struct.ap_fixed]* @_ZL4sine, i32 0, i32 646), double 0x3FE79A89A0000399)
  call void @_ZN8ap_fixedILi24ELi1EL9ap_q_mode5EL9ap_o_mode3ELi0EEC1Ed(%struct.ap_fixed* getelementptr inbounds ([8192 x %struct.ap_fixed]* @_ZL4sine, i32 0, i32 647), double 0x3FE79D4CBFFFF234)
  call void @_ZN8ap_fixedILi24ELi1EL9ap_q_mode5EL9ap_o_mode3ELi0EEC1Ed(%struct.ap_fixed* getelementptr inbounds ([8192 x %struct.ap_fixed]* @_ZL4sine, i32 0, i32 648), double 0x3FE7A00FA0000E2F)
  call void @_ZN8ap_fixedILi24ELi1EL9ap_q_mode5EL9ap_o_mode3ELi0EEC1Ed(%struct.ap_fixed* getelementptr inbounds ([8192 x %struct.ap_fixed]* @_ZL4sine, i32 0, i32 649), double 0x3FE7A2D2200004AA)
  call void @_ZN8ap_fixedILi24ELi1EL9ap_q_mode5EL9ap_o_mode3ELi0EEC1Ed(%struct.ap_fixed* getelementptr inbounds ([8192 x %struct.ap_fixed]* @_ZL4sine, i32 0, i32 650), double 0x3FE7A59460000556)
  call void @_ZN8ap_fixedILi24ELi1EL9ap_q_mode5EL9ap_o_mode3ELi0EEC1Ed(%struct.ap_fixed* getelementptr inbounds ([8192 x %struct.ap_fixed]* @_ZL4sine, i32 0, i32 651), double 0x3FE7A85660001031)
  call void @_ZN8ap_fixedILi24ELi1EL9ap_q_mode5EL9ap_o_mode3ELi0EEC1Ed(%struct.ap_fixed* getelementptr inbounds ([8192 x %struct.ap_fixed]* @_ZL4sine, i32 0, i32 652), double 0x3FE7AB17FFFFF58E)
  call void @_ZN8ap_fixedILi24ELi1EL9ap_q_mode5EL9ap_o_mode3ELi0EEC1Ed(%struct.ap_fixed* getelementptr inbounds ([8192 x %struct.ap_fixed]* @_ZL4sine, i32 0, i32 653), double 0x3FE7ADD96000084A)
  call void @_ZN8ap_fixedILi24ELi1EL9ap_q_mode5EL9ap_o_mode3ELi0EEC1Ed(%struct.ap_fixed* getelementptr inbounds ([8192 x %struct.ap_fixed]* @_ZL4sine, i32 0, i32 654), double 0x3FE7B09A5FFFF587)
  call void @_ZN8ap_fixedILi24ELi1EL9ap_q_mode5EL9ap_o_mode3ELi0EEC1Ed(%struct.ap_fixed* getelementptr inbounds ([8192 x %struct.ap_fixed]* @_ZL4sine, i32 0, i32 655), double 0x3FE7B35B20001024)
  call void @_ZN8ap_fixedILi24ELi1EL9ap_q_mode5EL9ap_o_mode3ELi0EEC1Ed(%struct.ap_fixed* getelementptr inbounds ([8192 x %struct.ap_fixed]* @_ZL4sine, i32 0, i32 656), double 0x3FE7B61B9FFFEE92)
  call void @_ZN8ap_fixedILi24ELi1EL9ap_q_mode5EL9ap_o_mode3ELi0EEC1Ed(%struct.ap_fixed* getelementptr inbounds ([8192 x %struct.ap_fixed]* @_ZL4sine, i32 0, i32 657), double 0x3FE7B8DBC000110F)
  call void @_ZN8ap_fixedILi24ELi1EL9ap_q_mode5EL9ap_o_mode3ELi0EEC1Ed(%struct.ap_fixed* getelementptr inbounds ([8192 x %struct.ap_fixed]* @_ZL4sine, i32 0, i32 658), double 0x3FE7BB9B9FFFF75E)
  call void @_ZN8ap_fixedILi24ELi1EL9ap_q_mode5EL9ap_o_mode3ELi0EEC1Ed(%struct.ap_fixed* getelementptr inbounds ([8192 x %struct.ap_fixed]* @_ZL4sine, i32 0, i32 659), double 0x3FE7BE5B40000B0C)
  call void @_ZN8ap_fixedILi24ELi1EL9ap_q_mode5EL9ap_o_mode3ELi0EEC1Ed(%struct.ap_fixed* getelementptr inbounds ([8192 x %struct.ap_fixed]* @_ZL4sine, i32 0, i32 660), double 0x3FE7C11A7FFFF93B)
  call void @_ZN8ap_fixedILi24ELi1EL9ap_q_mode5EL9ap_o_mode3ELi0EEC1Ed(%struct.ap_fixed* getelementptr inbounds ([8192 x %struct.ap_fixed]* @_ZL4sine, i32 0, i32 661), double 0x3FE7C3D97FFFF19A)
  call void @_ZN8ap_fixedILi24ELi1EL9ap_q_mode5EL9ap_o_mode3ELi0EEC1Ed(%struct.ap_fixed* getelementptr inbounds ([8192 x %struct.ap_fixed]* @_ZL4sine, i32 0, i32 662), double 0x3FE7C69820000AD9)
  call void @_ZN8ap_fixedILi24ELi1EL9ap_q_mode5EL9ap_o_mode3ELi0EEC1Ed(%struct.ap_fixed* getelementptr inbounds ([8192 x %struct.ap_fixed]* @_ZL4sine, i32 0, i32 663), double 0x3FE7C95680000B19)
  call void @_ZN8ap_fixedILi24ELi1EL9ap_q_mode5EL9ap_o_mode3ELi0EEC1Ed(%struct.ap_fixed* getelementptr inbounds ([8192 x %struct.ap_fixed]* @_ZL4sine, i32 0, i32 664), double 0x3FE7CC149FFFF25A)
  call void @_ZN8ap_fixedILi24ELi1EL9ap_q_mode5EL9ap_o_mode3ELi0EEC1Ed(%struct.ap_fixed* getelementptr inbounds ([8192 x %struct.ap_fixed]* @_ZL4sine, i32 0, i32 665), double 0x3FE7CED25FFFFA7A)
  call void @_ZN8ap_fixedILi24ELi1EL9ap_q_mode5EL9ap_o_mode3ELi0EEC1Ed(%struct.ap_fixed* getelementptr inbounds ([8192 x %struct.ap_fixed]* @_ZL4sine, i32 0, i32 666), double 0x3FE7D18FE0000CCA)
  call void @_ZN8ap_fixedILi24ELi1EL9ap_q_mode5EL9ap_o_mode3ELi0EEC1Ed(%struct.ap_fixed* getelementptr inbounds ([8192 x %struct.ap_fixed]* @_ZL4sine, i32 0, i32 667), double 0x3FE7D44D2000061C)
  call void @_ZN8ap_fixedILi24ELi1EL9ap_q_mode5EL9ap_o_mode3ELi0EEC1Ed(%struct.ap_fixed* getelementptr inbounds ([8192 x %struct.ap_fixed]* @_ZL4sine, i32 0, i32 668), double 0x3FE7D709FFFFFD1D)
  call void @_ZN8ap_fixedILi24ELi1EL9ap_q_mode5EL9ap_o_mode3ELi0EEC1Ed(%struct.ap_fixed* getelementptr inbounds ([8192 x %struct.ap_fixed]* @_ZL4sine, i32 0, i32 669), double 0x3FE7D9C67FFFF1CF)
  call void @_ZN8ap_fixedILi24ELi1EL9ap_q_mode5EL9ap_o_mode3ELi0EEC1Ed(%struct.ap_fixed* getelementptr inbounds ([8192 x %struct.ap_fixed]* @_ZL4sine, i32 0, i32 670), double 0x3FE7DC82BFFFF0B1)
  call void @_ZN8ap_fixedILi24ELi1EL9ap_q_mode5EL9ap_o_mode3ELi0EEC1Ed(%struct.ap_fixed* getelementptr inbounds ([8192 x %struct.ap_fixed]* @_ZL4sine, i32 0, i32 671), double 0x3FE7DF3EBFFFF9C4)
  call void @_ZN8ap_fixedILi24ELi1EL9ap_q_mode5EL9ap_o_mode3ELi0EEC1Ed(%struct.ap_fixed* getelementptr inbounds ([8192 x %struct.ap_fixed]* @_ZL4sine, i32 0, i32 672), double 0x3FE7E1FA60000086)
  call void @_ZN8ap_fixedILi24ELi1EL9ap_q_mode5EL9ap_o_mode3ELi0EEC1Ed(%struct.ap_fixed* getelementptr inbounds ([8192 x %struct.ap_fixed]* @_ZL4sine, i32 0, i32 673), double 0x3FE7E4B5C0001179)
  call void @_ZN8ap_fixedILi24ELi1EL9ap_q_mode5EL9ap_o_mode3ELi0EEC1Ed(%struct.ap_fixed* getelementptr inbounds ([8192 x %struct.ap_fixed]* @_ZL4sine, i32 0, i32 674), double 0x3FE7E770E000096C)
  call void @_ZN8ap_fixedILi24ELi1EL9ap_q_mode5EL9ap_o_mode3ELi0EEC1Ed(%struct.ap_fixed* getelementptr inbounds ([8192 x %struct.ap_fixed]* @_ZL4sine, i32 0, i32 675), double 0x3FE7EA2B9FFFFF10)
  call void @_ZN8ap_fixedILi24ELi1EL9ap_q_mode5EL9ap_o_mode3ELi0EEC1Ed(%struct.ap_fixed* getelementptr inbounds ([8192 x %struct.ap_fixed]* @_ZL4sine, i32 0, i32 676), double 0x3FE7ECE5FFFFF265)
  call void @_ZN8ap_fixedILi24ELi1EL9ap_q_mode5EL9ap_o_mode3ELi0EEC1Ed(%struct.ap_fixed* getelementptr inbounds ([8192 x %struct.ap_fixed]* @_ZL4sine, i32 0, i32 677), double 0x3FE7EFA03FFFFC69)
  call void @_ZN8ap_fixedILi24ELi1EL9ap_q_mode5EL9ap_o_mode3ELi0EEC1Ed(%struct.ap_fixed* getelementptr inbounds ([8192 x %struct.ap_fixed]* @_ZL4sine, i32 0, i32 678), double 0x3FE7F259FFFFF79E)
  call void @_ZN8ap_fixedILi24ELi1EL9ap_q_mode5EL9ap_o_mode3ELi0EEC1Ed(%struct.ap_fixed* getelementptr inbounds ([8192 x %struct.ap_fixed]* @_ZL4sine, i32 0, i32 679), double 0x3FE7F513A0000982)
  call void @_ZN8ap_fixedILi24ELi1EL9ap_q_mode5EL9ap_o_mode3ELi0EEC1Ed(%struct.ap_fixed* getelementptr inbounds ([8192 x %struct.ap_fixed]* @_ZL4sine, i32 0, i32 680), double 0x3FE7F7CCC0000C98)
  call void @_ZN8ap_fixedILi24ELi1EL9ap_q_mode5EL9ap_o_mode3ELi0EEC1Ed(%struct.ap_fixed* getelementptr inbounds ([8192 x %struct.ap_fixed]* @_ZL4sine, i32 0, i32 681), double 0x3FE7FA85C000032E)
  call void @_ZN8ap_fixedILi24ELi1EL9ap_q_mode5EL9ap_o_mode3ELi0EEC1Ed(%struct.ap_fixed* getelementptr inbounds ([8192 x %struct.ap_fixed]* @_ZL4sine, i32 0, i32 682), double 0x3FE7FD3E5FFFF774)
  call void @_ZN8ap_fixedILi24ELi1EL9ap_q_mode5EL9ap_o_mode3ELi0EEC1Ed(%struct.ap_fixed* getelementptr inbounds ([8192 x %struct.ap_fixed]* @_ZL4sine, i32 0, i32 683), double 0x3FE7FFF6A0000C9A)
  call void @_ZN8ap_fixedILi24ELi1EL9ap_q_mode5EL9ap_o_mode3ELi0EEC1Ed(%struct.ap_fixed* getelementptr inbounds ([8192 x %struct.ap_fixed]* @_ZL4sine, i32 0, i32 684), double 0x3FE802AEA00008C1)
  call void @_ZN8ap_fixedILi24ELi1EL9ap_q_mode5EL9ap_o_mode3ELi0EEC1Ed(%struct.ap_fixed* getelementptr inbounds ([8192 x %struct.ap_fixed]* @_ZL4sine, i32 0, i32 685), double 0x3FE8056640000298)
  call void @_ZN8ap_fixedILi24ELi1EL9ap_q_mode5EL9ap_o_mode3ELi0EEC1Ed(%struct.ap_fixed* getelementptr inbounds ([8192 x %struct.ap_fixed]* @_ZL4sine, i32 0, i32 686), double 0x3FE8081DBFFFEFF0)
  call void @_ZN8ap_fixedILi24ELi1EL9ap_q_mode5EL9ap_o_mode3ELi0EEC1Ed(%struct.ap_fixed* getelementptr inbounds ([8192 x %struct.ap_fixed]* @_ZL4sine, i32 0, i32 687), double 0x3FE80AD4BFFFF1A8)
  call void @_ZN8ap_fixedILi24ELi1EL9ap_q_mode5EL9ap_o_mode3ELi0EEC1Ed(%struct.ap_fixed* getelementptr inbounds ([8192 x %struct.ap_fixed]* @_ZL4sine, i32 0, i32 688), double 0x3FE80D8B7FFFFD8F)
  call void @_ZN8ap_fixedILi24ELi1EL9ap_q_mode5EL9ap_o_mode3ELi0EEC1Ed(%struct.ap_fixed* getelementptr inbounds ([8192 x %struct.ap_fixed]* @_ZL4sine, i32 0, i32 689), double 0x3FE81041FFFFF078)
  call void @_ZN8ap_fixedILi24ELi1EL9ap_q_mode5EL9ap_o_mode3ELi0EEC1Ed(%struct.ap_fixed* getelementptr inbounds ([8192 x %struct.ap_fixed]* @_ZL4sine, i32 0, i32 690), double 0x3FE812F820000441)
  call void @_ZN8ap_fixedILi24ELi1EL9ap_q_mode5EL9ap_o_mode3ELi0EEC1Ed(%struct.ap_fixed* getelementptr inbounds ([8192 x %struct.ap_fixed]* @_ZL4sine, i32 0, i32 691), double 0x3FE815ADDFFFF28A)
  call void @_ZN8ap_fixedILi24ELi1EL9ap_q_mode5EL9ap_o_mode3ELi0EEC1Ed(%struct.ap_fixed* getelementptr inbounds ([8192 x %struct.ap_fixed]* @_ZL4sine, i32 0, i32 692), double 0x3FE818637FFFF783)
  call void @_ZN8ap_fixedILi24ELi1EL9ap_q_mode5EL9ap_o_mode3ELi0EEC1Ed(%struct.ap_fixed* getelementptr inbounds ([8192 x %struct.ap_fixed]* @_ZL4sine, i32 0, i32 693), double 0x3FE81B18A00010DD)
  call void @_ZN8ap_fixedILi24ELi1EL9ap_q_mode5EL9ap_o_mode3ELi0EEC1Ed(%struct.ap_fixed* getelementptr inbounds ([8192 x %struct.ap_fixed]* @_ZL4sine, i32 0, i32 694), double 0x3FE81DCD80001137)
  call void @_ZN8ap_fixedILi24ELi1EL9ap_q_mode5EL9ap_o_mode3ELi0EEC1Ed(%struct.ap_fixed* getelementptr inbounds ([8192 x %struct.ap_fixed]* @_ZL4sine, i32 0, i32 695), double 0x3FE820821FFFF892)
  call void @_ZN8ap_fixedILi24ELi1EL9ap_q_mode5EL9ap_o_mode3ELi0EEC1Ed(%struct.ap_fixed* getelementptr inbounds ([8192 x %struct.ap_fixed]* @_ZL4sine, i32 0, i32 696), double 0x3FE82336600000CD)
  call void @_ZN8ap_fixedILi24ELi1EL9ap_q_mode5EL9ap_o_mode3ELi0EEC1Ed(%struct.ap_fixed* getelementptr inbounds ([8192 x %struct.ap_fixed]* @_ZL4sine, i32 0, i32 697), double 0x3FE825EA5FFFF008)
  call void @_ZN8ap_fixedILi24ELi1EL9ap_q_mode5EL9ap_o_mode3ELi0EEC1Ed(%struct.ap_fixed* getelementptr inbounds ([8192 x %struct.ap_fixed]* @_ZL4sine, i32 0, i32 698), double 0x3FE8289E00000023)
  call void @_ZN8ap_fixedILi24ELi1EL9ap_q_mode5EL9ap_o_mode3ELi0EEC1Ed(%struct.ap_fixed* getelementptr inbounds ([8192 x %struct.ap_fixed]* @_ZL4sine, i32 0, i32 699), double 0x3FE82B5140000DEF)
  call void @_ZN8ap_fixedILi24ELi1EL9ap_q_mode5EL9ap_o_mode3ELi0EEC1Ed(%struct.ap_fixed* getelementptr inbounds ([8192 x %struct.ap_fixed]* @_ZL4sine, i32 0, i32 700), double 0x3FE82E0460000F3B)
  call void @_ZN8ap_fixedILi24ELi1EL9ap_q_mode5EL9ap_o_mode3ELi0EEC1Ed(%struct.ap_fixed* getelementptr inbounds ([8192 x %struct.ap_fixed]* @_ZL4sine, i32 0, i32 701), double 0x3FE830B7000001B8)
  call void @_ZN8ap_fixedILi24ELi1EL9ap_q_mode5EL9ap_o_mode3ELi0EEC1Ed(%struct.ap_fixed* getelementptr inbounds ([8192 x %struct.ap_fixed]* @_ZL4sine, i32 0, i32 702), double 0x3FE833695FFFFE65)
  call void @_ZN8ap_fixedILi24ELi1EL9ap_q_mode5EL9ap_o_mode3ELi0EEC1Ed(%struct.ap_fixed* getelementptr inbounds ([8192 x %struct.ap_fixed]* @_ZL4sine, i32 0, i32 703), double 0x3FE8361B80000542)
  call void @_ZN8ap_fixedILi24ELi1EL9ap_q_mode5EL9ap_o_mode3ELi0EEC1Ed(%struct.ap_fixed* getelementptr inbounds ([8192 x %struct.ap_fixed]* @_ZL4sine, i32 0, i32 704), double 0x3FE838CD400009CF)
  call void @_ZN8ap_fixedILi24ELi1EL9ap_q_mode5EL9ap_o_mode3ELi0EEC1Ed(%struct.ap_fixed* getelementptr inbounds ([8192 x %struct.ap_fixed]* @_ZL4sine, i32 0, i32 705), double 0x3FE83B7EA0000C0D)
  call void @_ZN8ap_fixedILi24ELi1EL9ap_q_mode5EL9ap_o_mode3ELi0EEC1Ed(%struct.ap_fixed* getelementptr inbounds ([8192 x %struct.ap_fixed]* @_ZL4sine, i32 0, i32 706), double 0x3FE83E2FBFFFF54C)
  call void @_ZN8ap_fixedILi24ELi1EL9ap_q_mode5EL9ap_o_mode3ELi0EEC1Ed(%struct.ap_fixed* getelementptr inbounds ([8192 x %struct.ap_fixed]* @_ZL4sine, i32 0, i32 707), double 0x3FE840E07FFFFF6A)
  call void @_ZN8ap_fixedILi24ELi1EL9ap_q_mode5EL9ap_o_mode3ELi0EEC1Ed(%struct.ap_fixed* getelementptr inbounds ([8192 x %struct.ap_fixed]* @_ZL4sine, i32 0, i32 708), double 0x3FE84390FFFFF08A)
  call void @_ZN8ap_fixedILi24ELi1EL9ap_q_mode5EL9ap_o_mode3ELi0EEC1Ed(%struct.ap_fixed* getelementptr inbounds ([8192 x %struct.ap_fixed]* @_ZL4sine, i32 0, i32 709), double 0x3FE8464120000289)
  call void @_ZN8ap_fixedILi24ELi1EL9ap_q_mode5EL9ap_o_mode3ELi0EEC1Ed(%struct.ap_fixed* getelementptr inbounds ([8192 x %struct.ap_fixed]* @_ZL4sine, i32 0, i32 710), double 0x3FE848F0FFFFFB89)
  call void @_ZN8ap_fixedILi24ELi1EL9ap_q_mode5EL9ap_o_mode3ELi0EEC1Ed(%struct.ap_fixed* getelementptr inbounds ([8192 x %struct.ap_fixed]* @_ZL4sine, i32 0, i32 711), double 0x3FE84BA07FFFF239)
  call void @_ZN8ap_fixedILi24ELi1EL9ap_q_mode5EL9ap_o_mode3ELi0EEC1Ed(%struct.ap_fixed* getelementptr inbounds ([8192 x %struct.ap_fixed]* @_ZL4sine, i32 0, i32 712), double 0x3FE84E4FBFFFF319)
  call void @_ZN8ap_fixedILi24ELi1EL9ap_q_mode5EL9ap_o_mode3ELi0EEC1Ed(%struct.ap_fixed* getelementptr inbounds ([8192 x %struct.ap_fixed]* @_ZL4sine, i32 0, i32 713), double 0x3FE850FE9FFFF1AA)
  call void @_ZN8ap_fixedILi24ELi1EL9ap_q_mode5EL9ap_o_mode3ELi0EEC1Ed(%struct.ap_fixed* getelementptr inbounds ([8192 x %struct.ap_fixed]* @_ZL4sine, i32 0, i32 714), double 0x3FE853AD3FFFFA6B)
  call void @_ZN8ap_fixedILi24ELi1EL9ap_q_mode5EL9ap_o_mode3ELi0EEC1Ed(%struct.ap_fixed* getelementptr inbounds ([8192 x %struct.ap_fixed]* @_ZL4sine, i32 0, i32 715), double 0x3FE8565B800000DC)
  call void @_ZN8ap_fixedILi24ELi1EL9ap_q_mode5EL9ap_o_mode3ELi0EEC1Ed(%struct.ap_fixed* getelementptr inbounds ([8192 x %struct.ap_fixed]* @_ZL4sine, i32 0, i32 716), double 0x3FE85909600004FE)
  call void @_ZN8ap_fixedILi24ELi1EL9ap_q_mode5EL9ap_o_mode3ELi0EEC1Ed(%struct.ap_fixed* getelementptr inbounds ([8192 x %struct.ap_fixed]* @_ZL4sine, i32 0, i32 717), double 0x3FE85BB6FFFFF020)
  call void @_ZN8ap_fixedILi24ELi1EL9ap_q_mode5EL9ap_o_mode3ELi0EEC1Ed(%struct.ap_fixed* getelementptr inbounds ([8192 x %struct.ap_fixed]* @_ZL4sine, i32 0, i32 718), double 0x3FE85E643FFFFC22)
  call void @_ZN8ap_fixedILi24ELi1EL9ap_q_mode5EL9ap_o_mode3ELi0EEC1Ed(%struct.ap_fixed* getelementptr inbounds ([8192 x %struct.ap_fixed]* @_ZL4sine, i32 0, i32 719), double 0x3FE861113FFFEF26)
  call void @_ZN8ap_fixedILi24ELi1EL9ap_q_mode5EL9ap_o_mode3ELi0EEC1Ed(%struct.ap_fixed* getelementptr inbounds ([8192 x %struct.ap_fixed]* @_ZL4sine, i32 0, i32 720), double 0x3FE863BDE0000308)
  call void @_ZN8ap_fixedILi24ELi1EL9ap_q_mode5EL9ap_o_mode3ELi0EEC1Ed(%struct.ap_fixed* getelementptr inbounds ([8192 x %struct.ap_fixed]* @_ZL4sine, i32 0, i32 721), double 0x3FE8666A1FFFF16C)
  call void @_ZN8ap_fixedILi24ELi1EL9ap_q_mode5EL9ap_o_mode3ELi0EEC1Ed(%struct.ap_fixed* getelementptr inbounds ([8192 x %struct.ap_fixed]* @_ZL4sine, i32 0, i32 722), double 0x3FE8691620000D30)
  call void @_ZN8ap_fixedILi24ELi1EL9ap_q_mode5EL9ap_o_mode3ELi0EEC1Ed(%struct.ap_fixed* getelementptr inbounds ([8192 x %struct.ap_fixed]* @_ZL4sine, i32 0, i32 723), double 0x3FE86BC1C0000374)
  call void @_ZN8ap_fixedILi24ELi1EL9ap_q_mode5EL9ap_o_mode3ELi0EEC1Ed(%struct.ap_fixed* getelementptr inbounds ([8192 x %struct.ap_fixed]* @_ZL4sine, i32 0, i32 724), double 0x3FE86E6D200003E9)
  call void @_ZN8ap_fixedILi24ELi1EL9ap_q_mode5EL9ap_o_mode3ELi0EEC1Ed(%struct.ap_fixed* getelementptr inbounds ([8192 x %struct.ap_fixed]* @_ZL4sine, i32 0, i32 725), double 0x3FE871182000020E)
  call void @_ZN8ap_fixedILi24ELi1EL9ap_q_mode5EL9ap_o_mode3ELi0EEC1Ed(%struct.ap_fixed* getelementptr inbounds ([8192 x %struct.ap_fixed]* @_ZL4sine, i32 0, i32 726), double 0x3FE873C2E0000A63)
  call void @_ZN8ap_fixedILi24ELi1EL9ap_q_mode5EL9ap_o_mode3ELi0EEC1Ed(%struct.ap_fixed* getelementptr inbounds ([8192 x %struct.ap_fixed]* @_ZL4sine, i32 0, i32 727), double 0x3FE8766D200003E9)
  call void @_ZN8ap_fixedILi24ELi1EL9ap_q_mode5EL9ap_o_mode3ELi0EEC1Ed(%struct.ap_fixed* getelementptr inbounds ([8192 x %struct.ap_fixed]* @_ZL4sine, i32 0, i32 728), double 0x3FE879173FFFF0EF)
  call void @_ZN8ap_fixedILi24ELi1EL9ap_q_mode5EL9ap_o_mode3ELi0EEC1Ed(%struct.ap_fixed* getelementptr inbounds ([8192 x %struct.ap_fixed]* @_ZL4sine, i32 0, i32 729), double 0x3FE87BC0DFFFF255)
  call void @_ZN8ap_fixedILi24ELi1EL9ap_q_mode5EL9ap_o_mode3ELi0EEC1Ed(%struct.ap_fixed* getelementptr inbounds ([8192 x %struct.ap_fixed]* @_ZL4sine, i32 0, i32 730), double 0x3FE87E6A60000A6B)
  call void @_ZN8ap_fixedILi24ELi1EL9ap_q_mode5EL9ap_o_mode3ELi0EEC1Ed(%struct.ap_fixed* getelementptr inbounds ([8192 x %struct.ap_fixed]* @_ZL4sine, i32 0, i32 731), double 0x3FE881135FFFF083)
  call void @_ZN8ap_fixedILi24ELi1EL9ap_q_mode5EL9ap_o_mode3ELi0EEC1Ed(%struct.ap_fixed* getelementptr inbounds ([8192 x %struct.ap_fixed]* @_ZL4sine, i32 0, i32 732), double 0x3FE883BC200003FA)
  call void @_ZN8ap_fixedILi24ELi1EL9ap_q_mode5EL9ap_o_mode3ELi0EEC1Ed(%struct.ap_fixed* getelementptr inbounds ([8192 x %struct.ap_fixed]* @_ZL4sine, i32 0, i32 733), double 0x3FE886647FFFF1F2)
  call void @_ZN8ap_fixedILi24ELi1EL9ap_q_mode5EL9ap_o_mode3ELi0EEC1Ed(%struct.ap_fixed* getelementptr inbounds ([8192 x %struct.ap_fixed]* @_ZL4sine, i32 0, i32 734), double 0x3FE8890CA0000D4A)
  call void @_ZN8ap_fixedILi24ELi1EL9ap_q_mode5EL9ap_o_mode3ELi0EEC1Ed(%struct.ap_fixed* getelementptr inbounds ([8192 x %struct.ap_fixed]* @_ZL4sine, i32 0, i32 735), double 0x3FE88BB460000323)
  call void @_ZN8ap_fixedILi24ELi1EL9ap_q_mode5EL9ap_o_mode3ELi0EEC1Ed(%struct.ap_fixed* getelementptr inbounds ([8192 x %struct.ap_fixed]* @_ZL4sine, i32 0, i32 736), double 0x3FE88E5BBFFFF6AC)
  call void @_ZN8ap_fixedILi24ELi1EL9ap_q_mode5EL9ap_o_mode3ELi0EEC1Ed(%struct.ap_fixed* getelementptr inbounds ([8192 x %struct.ap_fixed]* @_ZL4sine, i32 0, i32 737), double 0x3FE89102DFFFF465)
  call void @_ZN8ap_fixedILi24ELi1EL9ap_q_mode5EL9ap_o_mode3ELi0EEC1Ed(%struct.ap_fixed* getelementptr inbounds ([8192 x %struct.ap_fixed]* @_ZL4sine, i32 0, i32 738), double 0x3FE893A99FFFEFCF)
  call void @_ZN8ap_fixedILi24ELi1EL9ap_q_mode5EL9ap_o_mode3ELi0EEC1Ed(%struct.ap_fixed* getelementptr inbounds ([8192 x %struct.ap_fixed]* @_ZL4sine, i32 0, i32 739), double 0x3FE8965000000C18)
  call void @_ZN8ap_fixedILi24ELi1EL9ap_q_mode5EL9ap_o_mode3ELi0EEC1Ed(%struct.ap_fixed* getelementptr inbounds ([8192 x %struct.ap_fixed]* @_ZL4sine, i32 0, i32 740), double 0x3FE898F620000F62)
  call void @_ZN8ap_fixedILi24ELi1EL9ap_q_mode5EL9ap_o_mode3ELi0EEC1Ed(%struct.ap_fixed* getelementptr inbounds ([8192 x %struct.ap_fixed]* @_ZL4sine, i32 0, i32 741), double 0x3FE89B9BE000105D)
  call void @_ZN8ap_fixedILi24ELi1EL9ap_q_mode5EL9ap_o_mode3ELi0EEC1Ed(%struct.ap_fixed* getelementptr inbounds ([8192 x %struct.ap_fixed]* @_ZL4sine, i32 0, i32 742), double 0x3FE89E4140000F08)
  call void @_ZN8ap_fixedILi24ELi1EL9ap_q_mode5EL9ap_o_mode3ELi0EEC1Ed(%struct.ap_fixed* getelementptr inbounds ([8192 x %struct.ap_fixed]* @_ZL4sine, i32 0, i32 743), double 0x3FE8A0E65FFFF4B4)
  call void @_ZN8ap_fixedILi24ELi1EL9ap_q_mode5EL9ap_o_mode3ELi0EEC1Ed(%struct.ap_fixed* getelementptr inbounds ([8192 x %struct.ap_fixed]* @_ZL4sine, i32 0, i32 744), double 0x3FE8A38B1FFFFB40)
  call void @_ZN8ap_fixedILi24ELi1EL9ap_q_mode5EL9ap_o_mode3ELi0EEC1Ed(%struct.ap_fixed* getelementptr inbounds ([8192 x %struct.ap_fixed]* @_ZL4sine, i32 0, i32 745), double 0x3FE8A62FA0000BFC)
  call void @_ZN8ap_fixedILi24ELi1EL9ap_q_mode5EL9ap_o_mode3ELi0EEC1Ed(%struct.ap_fixed* getelementptr inbounds ([8192 x %struct.ap_fixed]* @_ZL4sine, i32 0, i32 746), double 0x3FE8A8D3BFFFF739)
  call void @_ZN8ap_fixedILi24ELi1EL9ap_q_mode5EL9ap_o_mode3ELi0EEC1Ed(%struct.ap_fixed* getelementptr inbounds ([8192 x %struct.ap_fixed]* @_ZL4sine, i32 0, i32 747), double 0x3FE8AB7780000355)
  call void @_ZN8ap_fixedILi24ELi1EL9ap_q_mode5EL9ap_o_mode3ELi0EEC1Ed(%struct.ap_fixed* getelementptr inbounds ([8192 x %struct.ap_fixed]* @_ZL4sine, i32 0, i32 748), double 0x3FE8AE1AE0000D22)
  call void @_ZN8ap_fixedILi24ELi1EL9ap_q_mode5EL9ap_o_mode3ELi0EEC1Ed(%struct.ap_fixed* getelementptr inbounds ([8192 x %struct.ap_fixed]* @_ZL4sine, i32 0, i32 749), double 0x3FE8B0BDFFFFFDF0)
  call void @_ZN8ap_fixedILi24ELi1EL9ap_q_mode5EL9ap_o_mode3ELi0EEC1Ed(%struct.ap_fixed* getelementptr inbounds ([8192 x %struct.ap_fixed]* @_ZL4sine, i32 0, i32 750), double 0x3FE8B360C0000F9E)
  call void @_ZN8ap_fixedILi24ELi1EL9ap_q_mode5EL9ap_o_mode3ELi0EEC1Ed(%struct.ap_fixed* getelementptr inbounds ([8192 x %struct.ap_fixed]* @_ZL4sine, i32 0, i32 751), double 0x3FE8B6031FFFFBCD)
  call void @_ZN8ap_fixedILi24ELi1EL9ap_q_mode5EL9ap_o_mode3ELi0EEC1Ed(%struct.ap_fixed* getelementptr inbounds ([8192 x %struct.ap_fixed]* @_ZL4sine, i32 0, i32 752), double 0x3FE8B8A53FFFF22C)
  call void @_ZN8ap_fixedILi24ELi1EL9ap_q_mode5EL9ap_o_mode3ELi0EEC1Ed(%struct.ap_fixed* getelementptr inbounds ([8192 x %struct.ap_fixed]* @_ZL4sine, i32 0, i32 753), double 0x3FE8BB470000096A)
  call void @_ZN8ap_fixedILi24ELi1EL9ap_q_mode5EL9ap_o_mode3ELi0EEC1Ed(%struct.ap_fixed* getelementptr inbounds ([8192 x %struct.ap_fixed]* @_ZL4sine, i32 0, i32 754), double 0x3FE8BDE8800007AA)
  call void @_ZN8ap_fixedILi24ELi1EL9ap_q_mode5EL9ap_o_mode3ELi0EEC1Ed(%struct.ap_fixed* getelementptr inbounds ([8192 x %struct.ap_fixed]* @_ZL4sine, i32 0, i32 755), double 0x3FE8C0897FFFF71A)
  call void @_ZN8ap_fixedILi24ELi1EL9ap_q_mode5EL9ap_o_mode3ELi0EEC1Ed(%struct.ap_fixed* getelementptr inbounds ([8192 x %struct.ap_fixed]* @_ZL4sine, i32 0, i32 756), double 0x3FE8C32A3FFFF0BA)
  call void @_ZN8ap_fixedILi24ELi1EL9ap_q_mode5EL9ap_o_mode3ELi0EEC1Ed(%struct.ap_fixed* getelementptr inbounds ([8192 x %struct.ap_fixed]* @_ZL4sine, i32 0, i32 757), double 0x3FE8C5CABFFFF48B)
  call void @_ZN8ap_fixedILi24ELi1EL9ap_q_mode5EL9ap_o_mode3ELi0EEC1Ed(%struct.ap_fixed* getelementptr inbounds ([8192 x %struct.ap_fixed]* @_ZL4sine, i32 0, i32 758), double 0x3FE8C86AC0000CBB)
  call void @_ZN8ap_fixedILi24ELi1EL9ap_q_mode5EL9ap_o_mode3ELi0EEC1Ed(%struct.ap_fixed* getelementptr inbounds ([8192 x %struct.ap_fixed]* @_ZL4sine, i32 0, i32 759), double 0x3FE8CB0A80000BEC)
  call void @_ZN8ap_fixedILi24ELi1EL9ap_q_mode5EL9ap_o_mode3ELi0EEC1Ed(%struct.ap_fixed* getelementptr inbounds ([8192 x %struct.ap_fixed]* @_ZL4sine, i32 0, i32 760), double 0x3FE8CDA9E00008CE)
  call void @_ZN8ap_fixedILi24ELi1EL9ap_q_mode5EL9ap_o_mode3ELi0EEC1Ed(%struct.ap_fixed* getelementptr inbounds ([8192 x %struct.ap_fixed]* @_ZL4sine, i32 0, i32 761), double 0x3FE8D04900000FE0)
  call void @_ZN8ap_fixedILi24ELi1EL9ap_q_mode5EL9ap_o_mode3ELi0EEC1Ed(%struct.ap_fixed* getelementptr inbounds ([8192 x %struct.ap_fixed]* @_ZL4sine, i32 0, i32 762), double 0x3FE8D2E7A0000822)
  call void @_ZN8ap_fixedILi24ELi1EL9ap_q_mode5EL9ap_o_mode3ELi0EEC1Ed(%struct.ap_fixed* getelementptr inbounds ([8192 x %struct.ap_fixed]* @_ZL4sine, i32 0, i32 763), double 0x3FE8D5861FFFF3E6)
  call void @_ZN8ap_fixedILi24ELi1EL9ap_q_mode5EL9ap_o_mode3ELi0EEC1Ed(%struct.ap_fixed* getelementptr inbounds ([8192 x %struct.ap_fixed]* @_ZL4sine, i32 0, i32 764), double 0x3FE8D8241FFFF409)
  call void @_ZN8ap_fixedILi24ELi1EL9ap_q_mode5EL9ap_o_mode3ELi0EEC1Ed(%struct.ap_fixed* getelementptr inbounds ([8192 x %struct.ap_fixed]* @_ZL4sine, i32 0, i32 765), double 0x3FE8DAC1BFFFF1DC)
  call void @_ZN8ap_fixedILi24ELi1EL9ap_q_mode5EL9ap_o_mode3ELi0EEC1Ed(%struct.ap_fixed* getelementptr inbounds ([8192 x %struct.ap_fixed]* @_ZL4sine, i32 0, i32 766), double 0x3FE8DD5F1FFFF9E0)
  call void @_ZN8ap_fixedILi24ELi1EL9ap_q_mode5EL9ap_o_mode3ELi0EEC1Ed(%struct.ap_fixed* getelementptr inbounds ([8192 x %struct.ap_fixed]* @_ZL4sine, i32 0, i32 767), double 0x3FE8DFFC1FFFFF94)
  call void @_ZN8ap_fixedILi24ELi1EL9ap_q_mode5EL9ap_o_mode3ELi0EEC1Ed(%struct.ap_fixed* getelementptr inbounds ([8192 x %struct.ap_fixed]* @_ZL4sine, i32 0, i32 768), double 0x3FE8E298E0000F78)
  call void @_ZN8ap_fixedILi24ELi1EL9ap_q_mode5EL9ap_o_mode3ELi0EEC1Ed(%struct.ap_fixed* getelementptr inbounds ([8192 x %struct.ap_fixed]* @_ZL4sine, i32 0, i32 769), double 0x3FE8E5352000108E)
  call void @_ZN8ap_fixedILi24ELi1EL9ap_q_mode5EL9ap_o_mode3ELi0EEC1Ed(%struct.ap_fixed* getelementptr inbounds ([8192 x %struct.ap_fixed]* @_ZL4sine, i32 0, i32 770), double 0x3FE8E7D11FFFF8A3)
  call void @_ZN8ap_fixedILi24ELi1EL9ap_q_mode5EL9ap_o_mode3ELi0EEC1Ed(%struct.ap_fixed* getelementptr inbounds ([8192 x %struct.ap_fixed]* @_ZL4sine, i32 0, i32 771), double 0x3FE8EA6CC0000199)
  call void @_ZN8ap_fixedILi24ELi1EL9ap_q_mode5EL9ap_o_mode3ELi0EEC1Ed(%struct.ap_fixed* getelementptr inbounds ([8192 x %struct.ap_fixed]* @_ZL4sine, i32 0, i32 772), double 0x3FE8ED081FFFF18F)
  call void @_ZN8ap_fixedILi24ELi1EL9ap_q_mode5EL9ap_o_mode3ELi0EEC1Ed(%struct.ap_fixed* getelementptr inbounds ([8192 x %struct.ap_fixed]* @_ZL4sine, i32 0, i32 773), double 0x3FE8EFA320000266)
  call void @_ZN8ap_fixedILi24ELi1EL9ap_q_mode5EL9ap_o_mode3ELi0EEC1Ed(%struct.ap_fixed* getelementptr inbounds ([8192 x %struct.ap_fixed]* @_ZL4sine, i32 0, i32 774), double 0x3FE8F23DA000046C)
  call void @_ZN8ap_fixedILi24ELi1EL9ap_q_mode5EL9ap_o_mode3ELi0EEC1Ed(%struct.ap_fixed* getelementptr inbounds ([8192 x %struct.ap_fixed]* @_ZL4sine, i32 0, i32 775), double 0x3FE8F4D7FFFFF9F4)
  call void @_ZN8ap_fixedILi24ELi1EL9ap_q_mode5EL9ap_o_mode3ELi0EEC1Ed(%struct.ap_fixed* getelementptr inbounds ([8192 x %struct.ap_fixed]* @_ZL4sine, i32 0, i32 776), double 0x3FE8F771E00003DB)
  call void @_ZN8ap_fixedILi24ELi1EL9ap_q_mode5EL9ap_o_mode3ELi0EEC1Ed(%struct.ap_fixed* getelementptr inbounds ([8192 x %struct.ap_fixed]* @_ZL4sine, i32 0, i32 777), double 0x3FE8FA0B7FFFF4C4)
  call void @_ZN8ap_fixedILi24ELi1EL9ap_q_mode5EL9ap_o_mode3ELi0EEC1Ed(%struct.ap_fixed* getelementptr inbounds ([8192 x %struct.ap_fixed]* @_ZL4sine, i32 0, i32 778), double 0x3FE8FCA49FFFFA0C)
  call void @_ZN8ap_fixedILi24ELi1EL9ap_q_mode5EL9ap_o_mode3ELi0EEC1Ed(%struct.ap_fixed* getelementptr inbounds ([8192 x %struct.ap_fixed]* @_ZL4sine, i32 0, i32 779), double 0x3FE8FF3D9FFFF2D5)
  call void @_ZN8ap_fixedILi24ELi1EL9ap_q_mode5EL9ap_o_mode3ELi0EEC1Ed(%struct.ap_fixed* getelementptr inbounds ([8192 x %struct.ap_fixed]* @_ZL4sine, i32 0, i32 780), double 0x3FE901D61FFFFFFE)
  call void @_ZN8ap_fixedILi24ELi1EL9ap_q_mode5EL9ap_o_mode3ELi0EEC1Ed(%struct.ap_fixed* getelementptr inbounds ([8192 x %struct.ap_fixed]* @_ZL4sine, i32 0, i32 781), double 0x3FE9046E40000AD7)
  call void @_ZN8ap_fixedILi24ELi1EL9ap_q_mode5EL9ap_o_mode3ELi0EEC1Ed(%struct.ap_fixed* getelementptr inbounds ([8192 x %struct.ap_fixed]* @_ZL4sine, i32 0, i32 782), double 0x3FE907061FFFFCB1)
  call void @_ZN8ap_fixedILi24ELi1EL9ap_q_mode5EL9ap_o_mode3ELi0EEC1Ed(%struct.ap_fixed* getelementptr inbounds ([8192 x %struct.ap_fixed]* @_ZL4sine, i32 0, i32 783), double 0x3FE9099DA0000F6B)
  call void @_ZN8ap_fixedILi24ELi1EL9ap_q_mode5EL9ap_o_mode3ELi0EEC1Ed(%struct.ap_fixed* getelementptr inbounds ([8192 x %struct.ap_fixed]* @_ZL4sine, i32 0, i32 784), double 0x3FE90C34BFFFFCA6)
  call void @_ZN8ap_fixedILi24ELi1EL9ap_q_mode5EL9ap_o_mode3ELi0EEC1Ed(%struct.ap_fixed* getelementptr inbounds ([8192 x %struct.ap_fixed]* @_ZL4sine, i32 0, i32 785), double 0x3FE90ECB9FFFF412)
  call void @_ZN8ap_fixedILi24ELi1EL9ap_q_mode5EL9ap_o_mode3ELi0EEC1Ed(%struct.ap_fixed* getelementptr inbounds ([8192 x %struct.ap_fixed]* @_ZL4sine, i32 0, i32 786), double 0x3FE91161FFFFFFDD)
  call void @_ZN8ap_fixedILi24ELi1EL9ap_q_mode5EL9ap_o_mode3ELi0EEC1Ed(%struct.ap_fixed* getelementptr inbounds ([8192 x %struct.ap_fixed]* @_ZL4sine, i32 0, i32 787), double 0x3FE913F81FFFF2A9)
  call void @_ZN8ap_fixedILi24ELi1EL9ap_q_mode5EL9ap_o_mode3ELi0EEC1Ed(%struct.ap_fixed* getelementptr inbounds ([8192 x %struct.ap_fixed]* @_ZL4sine, i32 0, i32 788), double 0x3FE9168DE0000655)
  call void @_ZN8ap_fixedILi24ELi1EL9ap_q_mode5EL9ap_o_mode3ELi0EEC1Ed(%struct.ap_fixed* getelementptr inbounds ([8192 x %struct.ap_fixed]* @_ZL4sine, i32 0, i32 789), double 0x3FE9192360000101)
  call void @_ZN8ap_fixedILi24ELi1EL9ap_q_mode5EL9ap_o_mode3ELi0EEC1Ed(%struct.ap_fixed* getelementptr inbounds ([8192 x %struct.ap_fixed]* @_ZL4sine, i32 0, i32 790), double 0x3FE91BB86000100E)
  call void @_ZN8ap_fixedILi24ELi1EL9ap_q_mode5EL9ap_o_mode3ELi0EEC1Ed(%struct.ap_fixed* getelementptr inbounds ([8192 x %struct.ap_fixed]* @_ZL4sine, i32 0, i32 791), double 0x3FE91E4D2000061C)
  call void @_ZN8ap_fixedILi24ELi1EL9ap_q_mode5EL9ap_o_mode3ELi0EEC1Ed(%struct.ap_fixed* getelementptr inbounds ([8192 x %struct.ap_fixed]* @_ZL4sine, i32 0, i32 792), double 0x3FE920E160001089)
  call void @_ZN8ap_fixedILi24ELi1EL9ap_q_mode5EL9ap_o_mode3ELi0EEC1Ed(%struct.ap_fixed* getelementptr inbounds ([8192 x %struct.ap_fixed]* @_ZL4sine, i32 0, i32 793), double 0x3FE92375600001F8)
  call void @_ZN8ap_fixedILi24ELi1EL9ap_q_mode5EL9ap_o_mode3ELi0EEC1Ed(%struct.ap_fixed* getelementptr inbounds ([8192 x %struct.ap_fixed]* @_ZL4sine, i32 0, i32 794), double 0x3FE926091FFFFD96)
  call void @_ZN8ap_fixedILi24ELi1EL9ap_q_mode5EL9ap_o_mode3ELi0EEC1Ed(%struct.ap_fixed* getelementptr inbounds ([8192 x %struct.ap_fixed]* @_ZL4sine, i32 0, i32 795), double 0x3FE9289C60000D95)
  call void @_ZN8ap_fixedILi24ELi1EL9ap_q_mode5EL9ap_o_mode3ELi0EEC1Ed(%struct.ap_fixed* getelementptr inbounds ([8192 x %struct.ap_fixed]* @_ZL4sine, i32 0, i32 796), double 0x3FE92B2F60000494)
  call void @_ZN8ap_fixedILi24ELi1EL9ap_q_mode5EL9ap_o_mode3ELi0EEC1Ed(%struct.ap_fixed* getelementptr inbounds ([8192 x %struct.ap_fixed]* @_ZL4sine, i32 0, i32 797), double 0x3FE92DC1E0000FF4)
  call void @_ZN8ap_fixedILi24ELi1EL9ap_q_mode5EL9ap_o_mode3ELi0EEC1Ed(%struct.ap_fixed* getelementptr inbounds ([8192 x %struct.ap_fixed]* @_ZL4sine, i32 0, i32 798), double 0x3FE9305420000254)
  call void @_ZN8ap_fixedILi24ELi1EL9ap_q_mode5EL9ap_o_mode3ELi0EEC1Ed(%struct.ap_fixed* getelementptr inbounds ([8192 x %struct.ap_fixed]* @_ZL4sine, i32 0, i32 799), double 0x3FE932E5FFFFF265)
  call void @_ZN8ap_fixedILi24ELi1EL9ap_q_mode5EL9ap_o_mode3ELi0EEC1Ed(%struct.ap_fixed* getelementptr inbounds ([8192 x %struct.ap_fixed]* @_ZL4sine, i32 0, i32 800), double 0x3FE9357780000355)
  call void @_ZN8ap_fixedILi24ELi1EL9ap_q_mode5EL9ap_o_mode3ELi0EEC1Ed(%struct.ap_fixed* getelementptr inbounds ([8192 x %struct.ap_fixed]* @_ZL4sine, i32 0, i32 801), double 0x3FE93808BFFFFB47)
  call void @_ZN8ap_fixedILi24ELi1EL9ap_q_mode5EL9ap_o_mode3ELi0EEC1Ed(%struct.ap_fixed* getelementptr inbounds ([8192 x %struct.ap_fixed]* @_ZL4sine, i32 0, i32 802), double 0x3FE93A9980000798)
  call void @_ZN8ap_fixedILi24ELi1EL9ap_q_mode5EL9ap_o_mode3ELi0EEC1Ed(%struct.ap_fixed* getelementptr inbounds ([8192 x %struct.ap_fixed]* @_ZL4sine, i32 0, i32 803), double 0x3FE93D29FFFFFAEA)
  call void @_ZN8ap_fixedILi24ELi1EL9ap_q_mode5EL9ap_o_mode3ELi0EEC1Ed(%struct.ap_fixed* getelementptr inbounds ([8192 x %struct.ap_fixed]* @_ZL4sine, i32 0, i32 804), double 0x3FE93FBA20000F1C)
  call void @_ZN8ap_fixedILi24ELi1EL9ap_q_mode5EL9ap_o_mode3ELi0EEC1Ed(%struct.ap_fixed* getelementptr inbounds ([8192 x %struct.ap_fixed]* @_ZL4sine, i32 0, i32 805), double 0x3FE94249DFFFFDCF)
  call void @_ZN8ap_fixedILi24ELi1EL9ap_q_mode5EL9ap_o_mode3ELi0EEC1Ed(%struct.ap_fixed* getelementptr inbounds ([8192 x %struct.ap_fixed]* @_ZL4sine, i32 0, i32 806), double 0x3FE944D940000D62)
  call void @_ZN8ap_fixedILi24ELi1EL9ap_q_mode5EL9ap_o_mode3ELi0EEC1Ed(%struct.ap_fixed* getelementptr inbounds ([8192 x %struct.ap_fixed]* @_ZL4sine, i32 0, i32 807), double 0x3FE947683FFFF776)
  call void @_ZN8ap_fixedILi24ELi1EL9ap_q_mode5EL9ap_o_mode3ELi0EEC1Ed(%struct.ap_fixed* getelementptr inbounds ([8192 x %struct.ap_fixed]* @_ZL4sine, i32 0, i32 808), double 0x3FE949F700000EEA)
  call void @_ZN8ap_fixedILi24ELi1EL9ap_q_mode5EL9ap_o_mode3ELi0EEC1Ed(%struct.ap_fixed* getelementptr inbounds ([8192 x %struct.ap_fixed]* @_ZL4sine, i32 0, i32 809), double 0x3FE94C853FFFF45F)
  call void @_ZN8ap_fixedILi24ELi1EL9ap_q_mode5EL9ap_o_mode3ELi0EEC1Ed(%struct.ap_fixed* getelementptr inbounds ([8192 x %struct.ap_fixed]* @_ZL4sine, i32 0, i32 810), double 0x3FE94F1340000733)
  call void @_ZN8ap_fixedILi24ELi1EL9ap_q_mode5EL9ap_o_mode3ELi0EEC1Ed(%struct.ap_fixed* getelementptr inbounds ([8192 x %struct.ap_fixed]* @_ZL4sine, i32 0, i32 811), double 0x3FE951A0DFFFF488)
  call void @_ZN8ap_fixedILi24ELi1EL9ap_q_mode5EL9ap_o_mode3ELi0EEC1Ed(%struct.ap_fixed* getelementptr inbounds ([8192 x %struct.ap_fixed]* @_ZL4sine, i32 0, i32 812), double 0x3FE9542E200002BD)
  call void @_ZN8ap_fixedILi24ELi1EL9ap_q_mode5EL9ap_o_mode3ELi0EEC1Ed(%struct.ap_fixed* getelementptr inbounds ([8192 x %struct.ap_fixed]* @_ZL4sine, i32 0, i32 813), double 0x3FE956BB00000EA3)
  call void @_ZN8ap_fixedILi24ELi1EL9ap_q_mode5EL9ap_o_mode3ELi0EEC1Ed(%struct.ap_fixed* getelementptr inbounds ([8192 x %struct.ap_fixed]* @_ZL4sine, i32 0, i32 814), double 0x3FE959477FFFF50A)
  call void @_ZN8ap_fixedILi24ELi1EL9ap_q_mode5EL9ap_o_mode3ELi0EEC1Ed(%struct.ap_fixed* getelementptr inbounds ([8192 x %struct.ap_fixed]* @_ZL4sine, i32 0, i32 815), double 0x3FE95BD3C00008D0)
  call void @_ZN8ap_fixedILi24ELi1EL9ap_q_mode5EL9ap_o_mode3ELi0EEC1Ed(%struct.ap_fixed* getelementptr inbounds ([8192 x %struct.ap_fixed]* @_ZL4sine, i32 0, i32 816), double 0x3FE95E5F80000DC7)
  call void @_ZN8ap_fixedILi24ELi1EL9ap_q_mode5EL9ap_o_mode3ELi0EEC1Ed(%struct.ap_fixed* getelementptr inbounds ([8192 x %struct.ap_fixed]* @_ZL4sine, i32 0, i32 817), double 0x3FE960EAFFFFF9BF)
  call void @_ZN8ap_fixedILi24ELi1EL9ap_q_mode5EL9ap_o_mode3ELi0EEC1Ed(%struct.ap_fixed* getelementptr inbounds ([8192 x %struct.ap_fixed]* @_ZL4sine, i32 0, i32 818), double 0x3FE96375FFFFFA17)
  call void @_ZN8ap_fixedILi24ELi1EL9ap_q_mode5EL9ap_o_mode3ELi0EEC1Ed(%struct.ap_fixed* getelementptr inbounds ([8192 x %struct.ap_fixed]* @_ZL4sine, i32 0, i32 819), double 0x3FE96600C000049F)
  call void @_ZN8ap_fixedILi24ELi1EL9ap_q_mode5EL9ap_o_mode3ELi0EEC1Ed(%struct.ap_fixed* getelementptr inbounds ([8192 x %struct.ap_fixed]* @_ZL4sine, i32 0, i32 820), double 0x3FE9688B20000CD8)
  call void @_ZN8ap_fixedILi24ELi1EL9ap_q_mode5EL9ap_o_mode3ELi0EEC1Ed(%struct.ap_fixed* getelementptr inbounds ([8192 x %struct.ap_fixed]* @_ZL4sine, i32 0, i32 821), double 0x3FE96B151FFFEF91)
  call void @_ZN8ap_fixedILi24ELi1EL9ap_q_mode5EL9ap_o_mode3ELi0EEC1Ed(%struct.ap_fixed* getelementptr inbounds ([8192 x %struct.ap_fixed]* @_ZL4sine, i32 0, i32 822), double 0x3FE96D9EBFFFF32B)
  call void @_ZN8ap_fixedILi24ELi1EL9ap_q_mode5EL9ap_o_mode3ELi0EEC1Ed(%struct.ap_fixed* getelementptr inbounds ([8192 x %struct.ap_fixed]* @_ZL4sine, i32 0, i32 823), double 0x3FE97027FFFFF475)
  call void @_ZN8ap_fixedILi24ELi1EL9ap_q_mode5EL9ap_o_mode3ELi0EEC1Ed(%struct.ap_fixed* getelementptr inbounds ([8192 x %struct.ap_fixed]* @_ZL4sine, i32 0, i32 824), double 0x3FE972B0FFFFFFEE)
  call void @_ZN8ap_fixedILi24ELi1EL9ap_q_mode5EL9ap_o_mode3ELi0EEC1Ed(%struct.ap_fixed* getelementptr inbounds ([8192 x %struct.ap_fixed]* @_ZL4sine, i32 0, i32 825), double 0x3FE975397FFFFC99)
  call void @_ZN8ap_fixedILi24ELi1EL9ap_q_mode5EL9ap_o_mode3ELi0EEC1Ed(%struct.ap_fixed* getelementptr inbounds ([8192 x %struct.ap_fixed]* @_ZL4sine, i32 0, i32 826), double 0x3FE977C19FFFF6F4)
  call void @_ZN8ap_fixedILi24ELi1EL9ap_q_mode5EL9ap_o_mode3ELi0EEC1Ed(%struct.ap_fixed* getelementptr inbounds ([8192 x %struct.ap_fixed]* @_ZL4sine, i32 0, i32 827), double 0x3FE97A497FFFFB80)
  call void @_ZN8ap_fixedILi24ELi1EL9ap_q_mode5EL9ap_o_mode3ELi0EEC1Ed(%struct.ap_fixed* getelementptr inbounds ([8192 x %struct.ap_fixed]* @_ZL4sine, i32 0, i32 828), double 0x3FE97CD0FFFFFDBB)
  call void @_ZN8ap_fixedILi24ELi1EL9ap_q_mode5EL9ap_o_mode3ELi0EEC1Ed(%struct.ap_fixed* getelementptr inbounds ([8192 x %struct.ap_fixed]* @_ZL4sine, i32 0, i32 829), double 0x3FE97F57FFFFF128)
  call void @_ZN8ap_fixedILi24ELi1EL9ap_q_mode5EL9ap_o_mode3ELi0EEC1Ed(%struct.ap_fixed* getelementptr inbounds ([8192 x %struct.ap_fixed]* @_ZL4sine, i32 0, i32 830), double 0x3FE981DEBFFFEEC5)
  call void @_ZN8ap_fixedILi24ELi1EL9ap_q_mode5EL9ap_o_mode3ELi0EEC1Ed(%struct.ap_fixed* getelementptr inbounds ([8192 x %struct.ap_fixed]* @_ZL4sine, i32 0, i32 831), double 0x3FE9846520000D41)
  call void @_ZN8ap_fixedILi24ELi1EL9ap_q_mode5EL9ap_o_mode3ELi0EEC1Ed(%struct.ap_fixed* getelementptr inbounds ([8192 x %struct.ap_fixed]* @_ZL4sine, i32 0, i32 832), double 0x3FE986EB2000063F)
  call void @_ZN8ap_fixedILi24ELi1EL9ap_q_mode5EL9ap_o_mode3ELi0EEC1Ed(%struct.ap_fixed* getelementptr inbounds ([8192 x %struct.ap_fixed]* @_ZL4sine, i32 0, i32 833), double 0x3FE98970BFFFFCED)
  call void @_ZN8ap_fixedILi24ELi1EL9ap_q_mode5EL9ap_o_mode3ELi0EEC1Ed(%struct.ap_fixed* getelementptr inbounds ([8192 x %struct.ap_fixed]* @_ZL4sine, i32 0, i32 834), double 0x3FE98BF5FFFFF14B)
  call void @_ZN8ap_fixedILi24ELi1EL9ap_q_mode5EL9ap_o_mode3ELi0EEC1Ed(%struct.ap_fixed* getelementptr inbounds ([8192 x %struct.ap_fixed]* @_ZL4sine, i32 0, i32 835), double 0x3FE98E7AE0000689)
  call void @_ZN8ap_fixedILi24ELi1EL9ap_q_mode5EL9ap_o_mode3ELi0EEC1Ed(%struct.ap_fixed* getelementptr inbounds ([8192 x %struct.ap_fixed]* @_ZL4sine, i32 0, i32 836), double 0x3FE990FF5FFFF649)
  call void @_ZN8ap_fixedILi24ELi1EL9ap_q_mode5EL9ap_o_mode3ELi0EEC1Ed(%struct.ap_fixed* getelementptr inbounds ([8192 x %struct.ap_fixed]* @_ZL4sine, i32 0, i32 837), double 0x3FE99383800006E8)
  call void @_ZN8ap_fixedILi24ELi1EL9ap_q_mode5EL9ap_o_mode3ELi0EEC1Ed(%struct.ap_fixed* getelementptr inbounds ([8192 x %struct.ap_fixed]* @_ZL4sine, i32 0, i32 838), double 0x3FE996073FFFF208)
  call void @_ZN8ap_fixedILi24ELi1EL9ap_q_mode5EL9ap_o_mode3ELi0EEC1Ed(%struct.ap_fixed* getelementptr inbounds ([8192 x %struct.ap_fixed]* @_ZL4sine, i32 0, i32 839), double 0x3FE9988AC0000A88)
  call void @_ZN8ap_fixedILi24ELi1EL9ap_q_mode5EL9ap_o_mode3ELi0EEC1Ed(%struct.ap_fixed* getelementptr inbounds ([8192 x %struct.ap_fixed]* @_ZL4sine, i32 0, i32 840), double 0x3FE99B0DBFFFF109)
  call void @_ZN8ap_fixedILi24ELi1EL9ap_q_mode5EL9ap_o_mode3ELi0EEC1Ed(%struct.ap_fixed* getelementptr inbounds ([8192 x %struct.ap_fixed]* @_ZL4sine, i32 0, i32 841), double 0x3FE99D905FFFF86A)
  call void @_ZN8ap_fixedILi24ELi1EL9ap_q_mode5EL9ap_o_mode3ELi0EEC1Ed(%struct.ap_fixed* getelementptr inbounds ([8192 x %struct.ap_fixed]* @_ZL4sine, i32 0, i32 842), double 0x3FE9A012C00009FB)
  call void @_ZN8ap_fixedILi24ELi1EL9ap_q_mode5EL9ap_o_mode3ELi0EEC1Ed(%struct.ap_fixed* getelementptr inbounds ([8192 x %struct.ap_fixed]* @_ZL4sine, i32 0, i32 843), double 0x3FE9A294A0000CBD)
  call void @_ZN8ap_fixedILi24ELi1EL9ap_q_mode5EL9ap_o_mode3ELi0EEC1Ed(%struct.ap_fixed* getelementptr inbounds ([8192 x %struct.ap_fixed]* @_ZL4sine, i32 0, i32 844), double 0x3FE9A5163FFFF680)
  call void @_ZN8ap_fixedILi24ELi1EL9ap_q_mode5EL9ap_o_mode3ELi0EEC1Ed(%struct.ap_fixed* getelementptr inbounds ([8192 x %struct.ap_fixed]* @_ZL4sine, i32 0, i32 845), double 0x3FE9A7975FFFF4A3)
  call void @_ZN8ap_fixedILi24ELi1EL9ap_q_mode5EL9ap_o_mode3ELi0EEC1Ed(%struct.ap_fixed* getelementptr inbounds ([8192 x %struct.ap_fixed]* @_ZL4sine, i32 0, i32 846), double 0x3FE9AA183FFFFCF6)
  call void @_ZN8ap_fixedILi24ELi1EL9ap_q_mode5EL9ap_o_mode3ELi0EEC1Ed(%struct.ap_fixed* getelementptr inbounds ([8192 x %struct.ap_fixed]* @_ZL4sine, i32 0, i32 847), double 0x3FE9AC989FFFF679)
  call void @_ZN8ap_fixedILi24ELi1EL9ap_q_mode5EL9ap_o_mode3ELi0EEC1Ed(%struct.ap_fixed* getelementptr inbounds ([8192 x %struct.ap_fixed]* @_ZL4sine, i32 0, i32 848), double 0x3FE9AF18BFFFFA2D)
  call void @_ZN8ap_fixedILi24ELi1EL9ap_q_mode5EL9ap_o_mode3ELi0EEC1Ed(%struct.ap_fixed* getelementptr inbounds ([8192 x %struct.ap_fixed]* @_ZL4sine, i32 0, i32 849), double 0x3FE9B1987FFFFB91)
  call void @_ZN8ap_fixedILi24ELi1EL9ap_q_mode5EL9ap_o_mode3ELi0EEC1Ed(%struct.ap_fixed* getelementptr inbounds ([8192 x %struct.ap_fixed]* @_ZL4sine, i32 0, i32 850), double 0x3FE9B417C0001156)
  call void @_ZN8ap_fixedILi24ELi1EL9ap_q_mode5EL9ap_o_mode3ELi0EEC1Ed(%struct.ap_fixed* getelementptr inbounds ([8192 x %struct.ap_fixed]* @_ZL4sine, i32 0, i32 851), double 0x3FE9B696C0000E1B)
  call void @_ZN8ap_fixedILi24ELi1EL9ap_q_mode5EL9ap_o_mode3ELi0EEC1Ed(%struct.ap_fixed* getelementptr inbounds ([8192 x %struct.ap_fixed]* @_ZL4sine, i32 0, i32 852), double 0x3FE9B9153FFFFC11)
  call void @_ZN8ap_fixedILi24ELi1EL9ap_q_mode5EL9ap_o_mode3ELi0EEC1Ed(%struct.ap_fixed* getelementptr inbounds ([8192 x %struct.ap_fixed]* @_ZL4sine, i32 0, i32 853), double 0x3FE9BB937FFFF437)
  call void @_ZN8ap_fixedILi24ELi1EL9ap_q_mode5EL9ap_o_mode3ELi0EEC1Ed(%struct.ap_fixed* getelementptr inbounds ([8192 x %struct.ap_fixed]* @_ZL4sine, i32 0, i32 854), double 0x3FE9BE1160000D3D)
  call void @_ZN8ap_fixedILi24ELi1EL9ap_q_mode5EL9ap_o_mode3ELi0EEC1Ed(%struct.ap_fixed* getelementptr inbounds ([8192 x %struct.ap_fixed]* @_ZL4sine, i32 0, i32 855), double 0x3FE9C08EBFFFF444)
  call void @_ZN8ap_fixedILi24ELi1EL9ap_q_mode5EL9ap_o_mode3ELi0EEC1Ed(%struct.ap_fixed* getelementptr inbounds ([8192 x %struct.ap_fixed]* @_ZL4sine, i32 0, i32 856), double 0x3FE9C30BE00008AB)
  call void @_ZN8ap_fixedILi24ELi1EL9ap_q_mode5EL9ap_o_mode3ELi0EEC1Ed(%struct.ap_fixed* getelementptr inbounds ([8192 x %struct.ap_fixed]* @_ZL4sine, i32 0, i32 857), double 0x3FE9C5889FFFF793)
  call void @_ZN8ap_fixedILi24ELi1EL9ap_q_mode5EL9ap_o_mode3ELi0EEC1Ed(%struct.ap_fixed* getelementptr inbounds ([8192 x %struct.ap_fixed]* @_ZL4sine, i32 0, i32 858), double 0x3FE9C804DFFFFADB)
  call void @_ZN8ap_fixedILi24ELi1EL9ap_q_mode5EL9ap_o_mode3ELi0EEC1Ed(%struct.ap_fixed* getelementptr inbounds ([8192 x %struct.ap_fixed]* @_ZL4sine, i32 0, i32 859), double 0x3FE9CA80E0000853)
  call void @_ZN8ap_fixedILi24ELi1EL9ap_q_mode5EL9ap_o_mode3ELi0EEC1Ed(%struct.ap_fixed* getelementptr inbounds ([8192 x %struct.ap_fixed]* @_ZL4sine, i32 0, i32 860), double 0x3FE9CCFC600006FC)
  call void @_ZN8ap_fixedILi24ELi1EL9ap_q_mode5EL9ap_o_mode3ELi0EEC1Ed(%struct.ap_fixed* getelementptr inbounds ([8192 x %struct.ap_fixed]* @_ZL4sine, i32 0, i32 861), double 0x3FE9CF77A0000FD5)
  call void @_ZN8ap_fixedILi24ELi1EL9ap_q_mode5EL9ap_o_mode3ELi0EEC1Ed(%struct.ap_fixed* getelementptr inbounds ([8192 x %struct.ap_fixed]* @_ZL4sine, i32 0, i32 862), double 0x3FE9D1F2600009DF)
  call void @_ZN8ap_fixedILi24ELi1EL9ap_q_mode5EL9ap_o_mode3ELi0EEC1Ed(%struct.ap_fixed* getelementptr inbounds ([8192 x %struct.ap_fixed]* @_ZL4sine, i32 0, i32 863), double 0x3FE9D46CE0000E19)
  call void @_ZN8ap_fixedILi24ELi1EL9ap_q_mode5EL9ap_o_mode3ELi0EEC1Ed(%struct.ap_fixed* getelementptr inbounds ([8192 x %struct.ap_fixed]* @_ZL4sine, i32 0, i32 864), double 0x3FE9D6E6E0000383)
  call void @_ZN8ap_fixedILi24ELi1EL9ap_q_mode5EL9ap_o_mode3ELi0EEC1Ed(%struct.ap_fixed* getelementptr inbounds ([8192 x %struct.ap_fixed]* @_ZL4sine, i32 0, i32 865), double 0x3FE9D960A000031E)
  call void @_ZN8ap_fixedILi24ELi1EL9ap_q_mode5EL9ap_o_mode3ELi0EEC1Ed(%struct.ap_fixed* getelementptr inbounds ([8192 x %struct.ap_fixed]* @_ZL4sine, i32 0, i32 866), double 0x3FE9DBD9DFFFF3EA)
  call void @_ZN8ap_fixedILi24ELi1EL9ap_q_mode5EL9ap_o_mode3ELi0EEC1Ed(%struct.ap_fixed* getelementptr inbounds ([8192 x %struct.ap_fixed]* @_ZL4sine, i32 0, i32 867), double 0x3FE9DE52DFFFEEE6)
  call void @_ZN8ap_fixedILi24ELi1EL9ap_q_mode5EL9ap_o_mode3ELi0EEC1Ed(%struct.ap_fixed* getelementptr inbounds ([8192 x %struct.ap_fixed]* @_ZL4sine, i32 0, i32 868), double 0x3FE9E0CB5FFFFE42)
  call void @_ZN8ap_fixedILi24ELi1EL9ap_q_mode5EL9ap_o_mode3ELi0EEC1Ed(%struct.ap_fixed* getelementptr inbounds ([8192 x %struct.ap_fixed]* @_ZL4sine, i32 0, i32 869), double 0x3FE9E34380000B4E)
  call void @_ZN8ap_fixedILi24ELi1EL9ap_q_mode5EL9ap_o_mode3ELi0EEC1Ed(%struct.ap_fixed* getelementptr inbounds ([8192 x %struct.ap_fixed]* @_ZL4sine, i32 0, i32 870), double 0x3FE9E5BB5FFFFF5B)
  call void @_ZN8ap_fixedILi24ELi1EL9ap_q_mode5EL9ap_o_mode3ELi0EEC1Ed(%struct.ap_fixed* getelementptr inbounds ([8192 x %struct.ap_fixed]* @_ZL4sine, i32 0, i32 871), double 0x3FE9E832C00007C8)
  call void @_ZN8ap_fixedILi24ELi1EL9ap_q_mode5EL9ap_o_mode3ELi0EEC1Ed(%struct.ap_fixed* getelementptr inbounds ([8192 x %struct.ap_fixed]* @_ZL4sine, i32 0, i32 872), double 0x3FE9EAA9C0000DE6)
  call void @_ZN8ap_fixedILi24ELi1EL9ap_q_mode5EL9ap_o_mode3ELi0EEC1Ed(%struct.ap_fixed* getelementptr inbounds ([8192 x %struct.ap_fixed]* @_ZL4sine, i32 0, i32 873), double 0x3FE9ED205FFFEE85)
  call void @_ZN8ap_fixedILi24ELi1EL9ap_q_mode5EL9ap_o_mode3ELi0EEC1Ed(%struct.ap_fixed* getelementptr inbounds ([8192 x %struct.ap_fixed]* @_ZL4sine, i32 0, i32 874), double 0x3FE9EF969FFFF004)
  call void @_ZN8ap_fixedILi24ELi1EL9ap_q_mode5EL9ap_o_mode3ELi0EEC1Ed(%struct.ap_fixed* getelementptr inbounds ([8192 x %struct.ap_fixed]* @_ZL4sine, i32 0, i32 875), double 0x3FE9F20C7FFFEF33)
  call void @_ZN8ap_fixedILi24ELi1EL9ap_q_mode5EL9ap_o_mode3ELi0EEC1Ed(%struct.ap_fixed* getelementptr inbounds ([8192 x %struct.ap_fixed]* @_ZL4sine, i32 0, i32 876), double 0x3FE9F48200000F41)
  call void @_ZN8ap_fixedILi24ELi1EL9ap_q_mode5EL9ap_o_mode3ELi0EEC1Ed(%struct.ap_fixed* getelementptr inbounds ([8192 x %struct.ap_fixed]* @_ZL4sine, i32 0, i32 877), double 0x3FE9F6F7200009D1)
  call void @_ZN8ap_fixedILi24ELi1EL9ap_q_mode5EL9ap_o_mode3ELi0EEC1Ed(%struct.ap_fixed* getelementptr inbounds ([8192 x %struct.ap_fixed]* @_ZL4sine, i32 0, i32 878), double 0x3FE9F96BBFFFF592)
  call void @_ZN8ap_fixedILi24ELi1EL9ap_q_mode5EL9ap_o_mode3ELi0EEC1Ed(%struct.ap_fixed* getelementptr inbounds ([8192 x %struct.ap_fixed]* @_ZL4sine, i32 0, i32 879), double 0x3FE9FBE020000EB3)
  call void @_ZN8ap_fixedILi24ELi1EL9ap_q_mode5EL9ap_o_mode3ELi0EEC1Ed(%struct.ap_fixed* getelementptr inbounds ([8192 x %struct.ap_fixed]* @_ZL4sine, i32 0, i32 880), double 0x3FE9FE5420000254)
  call void @_ZN8ap_fixedILi24ELi1EL9ap_q_mode5EL9ap_o_mode3ELi0EEC1Ed(%struct.ap_fixed* getelementptr inbounds ([8192 x %struct.ap_fixed]* @_ZL4sine, i32 0, i32 881), double 0x3FEA00C7A0000A55)
  call void @_ZN8ap_fixedILi24ELi1EL9ap_q_mode5EL9ap_o_mode3ELi0EEC1Ed(%struct.ap_fixed* getelementptr inbounds ([8192 x %struct.ap_fixed]* @_ZL4sine, i32 0, i32 882), double 0x3FEA033ADFFFF958)
  call void @_ZN8ap_fixedILi24ELi1EL9ap_q_mode5EL9ap_o_mode3ELi0EEC1Ed(%struct.ap_fixed* getelementptr inbounds ([8192 x %struct.ap_fixed]* @_ZL4sine, i32 0, i32 883), double 0x3FEA05AD9FFFFCBA)
  call void @_ZN8ap_fixedILi24ELi1EL9ap_q_mode5EL9ap_o_mode3ELi0EEC1Ed(%struct.ap_fixed* getelementptr inbounds ([8192 x %struct.ap_fixed]* @_ZL4sine, i32 0, i32 884), double 0x3FEA081FFFFFFDCD)
  call void @_ZN8ap_fixedILi24ELi1EL9ap_q_mode5EL9ap_o_mode3ELi0EEC1Ed(%struct.ap_fixed* getelementptr inbounds ([8192 x %struct.ap_fixed]* @_ZL4sine, i32 0, i32 885), double 0x3FEA0A9220000910)
  call void @_ZN8ap_fixedILi24ELi1EL9ap_q_mode5EL9ap_o_mode3ELi0EEC1Ed(%struct.ap_fixed* getelementptr inbounds ([8192 x %struct.ap_fixed]* @_ZL4sine, i32 0, i32 886), double 0x3FEA0D03C0000584)
  call void @_ZN8ap_fixedILi24ELi1EL9ap_q_mode5EL9ap_o_mode3ELi0EEC1Ed(%struct.ap_fixed* getelementptr inbounds ([8192 x %struct.ap_fixed]* @_ZL4sine, i32 0, i32 887), double 0x3FEA0F74FFFFFFA8)
  call void @_ZN8ap_fixedILi24ELi1EL9ap_q_mode5EL9ap_o_mode3ELi0EEC1Ed(%struct.ap_fixed* getelementptr inbounds ([8192 x %struct.ap_fixed]* @_ZL4sine, i32 0, i32 888), double 0x3FEA11E5DFFFF77D)
  call void @_ZN8ap_fixedILi24ELi1EL9ap_q_mode5EL9ap_o_mode3ELi0EEC1Ed(%struct.ap_fixed* getelementptr inbounds ([8192 x %struct.ap_fixed]* @_ZL4sine, i32 0, i32 889), double 0x3FEA1456400003B2)
  call void @_ZN8ap_fixedILi24ELi1EL9ap_q_mode5EL9ap_o_mode3ELi0EEC1Ed(%struct.ap_fixed* getelementptr inbounds ([8192 x %struct.ap_fixed]* @_ZL4sine, i32 0, i32 890), double 0x3FEA16C65FFFF6E7)
  call void @_ZN8ap_fixedILi24ELi1EL9ap_q_mode5EL9ap_o_mode3ELi0EEC1Ed(%struct.ap_fixed* getelementptr inbounds ([8192 x %struct.ap_fixed]* @_ZL4sine, i32 0, i32 891), double 0x3FEA193620000AFD)
  call void @_ZN8ap_fixedILi24ELi1EL9ap_q_mode5EL9ap_o_mode3ELi0EEC1Ed(%struct.ap_fixed* getelementptr inbounds ([8192 x %struct.ap_fixed]* @_ZL4sine, i32 0, i32 892), double 0x3FEA1BA560001043)
  call void @_ZN8ap_fixedILi24ELi1EL9ap_q_mode5EL9ap_o_mode3ELi0EEC1Ed(%struct.ap_fixed* getelementptr inbounds ([8192 x %struct.ap_fixed]* @_ZL4sine, i32 0, i32 893), double 0x3FEA1E143FFFF00A)
  call void @_ZN8ap_fixedILi24ELi1EL9ap_q_mode5EL9ap_o_mode3ELi0EEC1Ed(%struct.ap_fixed* getelementptr inbounds ([8192 x %struct.ap_fixed]* @_ZL4sine, i32 0, i32 894), double 0x3FEA2082DFFFFD31)
  call void @_ZN8ap_fixedILi24ELi1EL9ap_q_mode5EL9ap_o_mode3ELi0EEC1Ed(%struct.ap_fixed* getelementptr inbounds ([8192 x %struct.ap_fixed]* @_ZL4sine, i32 0, i32 895), double 0x3FEA22F0FFFFFB89)
  call void @_ZN8ap_fixedILi24ELi1EL9ap_q_mode5EL9ap_o_mode3ELi0EEC1Ed(%struct.ap_fixed* getelementptr inbounds ([8192 x %struct.ap_fixed]* @_ZL4sine, i32 0, i32 896), double 0x3FEA255EBFFFF791)
  call void @_ZN8ap_fixedILi24ELi1EL9ap_q_mode5EL9ap_o_mode3ELi0EEC1Ed(%struct.ap_fixed* getelementptr inbounds ([8192 x %struct.ap_fixed]* @_ZL4sine, i32 0, i32 897), double 0x3FEA27CC1FFFF149)
  call void @_ZN8ap_fixedILi24ELi1EL9ap_q_mode5EL9ap_o_mode3ELi0EEC1Ed(%struct.ap_fixed* getelementptr inbounds ([8192 x %struct.ap_fixed]* @_ZL4sine, i32 0, i32 898), double 0x3FEA2A38FFFFFF62)
  call void @_ZN8ap_fixedILi24ELi1EL9ap_q_mode5EL9ap_o_mode3ELi0EEC1Ed(%struct.ap_fixed* getelementptr inbounds ([8192 x %struct.ap_fixed]* @_ZL4sine, i32 0, i32 899), double 0x3FEA2CA59FFFF47B)
  call void @_ZN8ap_fixedILi24ELi1EL9ap_q_mode5EL9ap_o_mode3ELi0EEC1Ed(%struct.ap_fixed* getelementptr inbounds ([8192 x %struct.ap_fixed]* @_ZL4sine, i32 0, i32 900), double 0x3FEA2F11E0000A74)
  call void @_ZN8ap_fixedILi24ELi1EL9ap_q_mode5EL9ap_o_mode3ELi0EEC1Ed(%struct.ap_fixed* getelementptr inbounds ([8192 x %struct.ap_fixed]* @_ZL4sine, i32 0, i32 901), double 0x3FEA317D9FFFEE6F)
  call void @_ZN8ap_fixedILi24ELi1EL9ap_q_mode5EL9ap_o_mode3ELi0EEC1Ed(%struct.ap_fixed* getelementptr inbounds ([8192 x %struct.ap_fixed]* @_ZL4sine, i32 0, i32 902), double 0x3FEA33E8FFFFF349)
  call void @_ZN8ap_fixedILi24ELi1EL9ap_q_mode5EL9ap_o_mode3ELi0EEC1Ed(%struct.ap_fixed* getelementptr inbounds ([8192 x %struct.ap_fixed]* @_ZL4sine, i32 0, i32 903), double 0x3FEA3653FFFFF5D4)
  call void @_ZN8ap_fixedILi24ELi1EL9ap_q_mode5EL9ap_o_mode3ELi0EEC1Ed(%struct.ap_fixed* getelementptr inbounds ([8192 x %struct.ap_fixed]* @_ZL4sine, i32 0, i32 904), double 0x3FEA38BE9FFFF610)
  call void @_ZN8ap_fixedILi24ELi1EL9ap_q_mode5EL9ap_o_mode3ELi0EEC1Ed(%struct.ap_fixed* getelementptr inbounds ([8192 x %struct.ap_fixed]* @_ZL4sine, i32 0, i32 905), double 0x3FEA3B28DFFFF3FC)
  call void @_ZN8ap_fixedILi24ELi1EL9ap_q_mode5EL9ap_o_mode3ELi0EEC1Ed(%struct.ap_fixed* getelementptr inbounds ([8192 x %struct.ap_fixed]* @_ZL4sine, i32 0, i32 906), double 0x3FEA3D92A0000647)
  call void @_ZN8ap_fixedILi24ELi1EL9ap_q_mode5EL9ap_o_mode3ELi0EEC1Ed(%struct.ap_fixed* getelementptr inbounds ([8192 x %struct.ap_fixed]* @_ZL4sine, i32 0, i32 907), double 0x3FEA3FFC1FFFFF94)
  call void @_ZN8ap_fixedILi24ELi1EL9ap_q_mode5EL9ap_o_mode3ELi0EEC1Ed(%struct.ap_fixed* getelementptr inbounds ([8192 x %struct.ap_fixed]* @_ZL4sine, i32 0, i32 908), double 0x3FEA426520000D41)
  call void @_ZN8ap_fixedILi24ELi1EL9ap_q_mode5EL9ap_o_mode3ELi0EEC1Ed(%struct.ap_fixed* getelementptr inbounds ([8192 x %struct.ap_fixed]* @_ZL4sine, i32 0, i32 909), double 0x3FEA44CDBFFFF56F)
  call void @_ZN8ap_fixedILi24ELi1EL9ap_q_mode5EL9ap_o_mode3ELi0EEC1Ed(%struct.ap_fixed* getelementptr inbounds ([8192 x %struct.ap_fixed]* @_ZL4sine, i32 0, i32 910), double 0x3FEA4735FFFFFE7D)
  call void @_ZN8ap_fixedILi24ELi1EL9ap_q_mode5EL9ap_o_mode3ELi0EEC1Ed(%struct.ap_fixed* getelementptr inbounds ([8192 x %struct.ap_fixed]* @_ZL4sine, i32 0, i32 911), double 0x3FEA499DE000053B)
  call void @_ZN8ap_fixedILi24ELi1EL9ap_q_mode5EL9ap_o_mode3ELi0EEC1Ed(%struct.ap_fixed* getelementptr inbounds ([8192 x %struct.ap_fixed]* @_ZL4sine, i32 0, i32 912), double 0x3FEA4C05600009AA)
  call void @_ZN8ap_fixedILi24ELi1EL9ap_q_mode5EL9ap_o_mode3ELi0EEC1Ed(%struct.ap_fixed* getelementptr inbounds ([8192 x %struct.ap_fixed]* @_ZL4sine, i32 0, i32 913), double 0x3FEA4E6C5FFFFF49)
  call void @_ZN8ap_fixedILi24ELi1EL9ap_q_mode5EL9ap_o_mode3ELi0EEC1Ed(%struct.ap_fixed* getelementptr inbounds ([8192 x %struct.ap_fixed]* @_ZL4sine, i32 0, i32 914), double 0x3FEA50D2FFFFF29A)
  call void @_ZN8ap_fixedILi24ELi1EL9ap_q_mode5EL9ap_o_mode3ELi0EEC1Ed(%struct.ap_fixed* getelementptr inbounds ([8192 x %struct.ap_fixed]* @_ZL4sine, i32 0, i32 915), double 0x3FEA5339400006C9)
  call void @_ZN8ap_fixedILi24ELi1EL9ap_q_mode5EL9ap_o_mode3ELi0EEC1Ed(%struct.ap_fixed* getelementptr inbounds ([8192 x %struct.ap_fixed]* @_ZL4sine, i32 0, i32 916), double 0x3FEA559F1FFFF57A)
  call void @_ZN8ap_fixedILi24ELi1EL9ap_q_mode5EL9ap_o_mode3ELi0EEC1Ed(%struct.ap_fixed* getelementptr inbounds ([8192 x %struct.ap_fixed]* @_ZL4sine, i32 0, i32 917), double 0x3FEA5804A000050B)
  call void @_ZN8ap_fixedILi24ELi1EL9ap_q_mode5EL9ap_o_mode3ELi0EEC1Ed(%struct.ap_fixed* getelementptr inbounds ([8192 x %struct.ap_fixed]* @_ZL4sine, i32 0, i32 918), double 0x3FEA5A69BFFFEF1D)
  call void @_ZN8ap_fixedILi24ELi1EL9ap_q_mode5EL9ap_o_mode3ELi0EEC1Ed(%struct.ap_fixed* getelementptr inbounds ([8192 x %struct.ap_fixed]* @_ZL4sine, i32 0, i32 919), double 0x3FEA5CCE600010BE)
  call void @_ZN8ap_fixedILi24ELi1EL9ap_q_mode5EL9ap_o_mode3ELi0EEC1Ed(%struct.ap_fixed* getelementptr inbounds ([8192 x %struct.ap_fixed]* @_ZL4sine, i32 0, i32 920), double 0x3FEA5F32A0000CE0)
  call void @_ZN8ap_fixedILi24ELi1EL9ap_q_mode5EL9ap_o_mode3ELi0EEC1Ed(%struct.ap_fixed* getelementptr inbounds ([8192 x %struct.ap_fixed]* @_ZL4sine, i32 0, i32 921), double 0x3FEA6196800006B3)
  call void @_ZN8ap_fixedILi24ELi1EL9ap_q_mode5EL9ap_o_mode3ELi0EEC1Ed(%struct.ap_fixed* getelementptr inbounds ([8192 x %struct.ap_fixed]* @_ZL4sine, i32 0, i32 922), double 0x3FEA63F9FFFFFE37)
  call void @_ZN8ap_fixedILi24ELi1EL9ap_q_mode5EL9ap_o_mode3ELi0EEC1Ed(%struct.ap_fixed* getelementptr inbounds ([8192 x %struct.ap_fixed]* @_ZL4sine, i32 0, i32 923), double 0x3FEA665D1FFFF36A)
  call void @_ZN8ap_fixedILi24ELi1EL9ap_q_mode5EL9ap_o_mode3ELi0EEC1Ed(%struct.ap_fixed* getelementptr inbounds ([8192 x %struct.ap_fixed]* @_ZL4sine, i32 0, i32 924), double 0x3FEA68BFBFFFFCFE)
  call void @_ZN8ap_fixedILi24ELi1EL9ap_q_mode5EL9ap_o_mode3ELi0EEC1Ed(%struct.ap_fixed* getelementptr inbounds ([8192 x %struct.ap_fixed]* @_ZL4sine, i32 0, i32 925), double 0x3FEA6B2200000443)
  call void @_ZN8ap_fixedILi24ELi1EL9ap_q_mode5EL9ap_o_mode3ELi0EEC1Ed(%struct.ap_fixed* getelementptr inbounds ([8192 x %struct.ap_fixed]* @_ZL4sine, i32 0, i32 926), double 0x3FEA6D83E0000938)
  call void @_ZN8ap_fixedILi24ELi1EL9ap_q_mode5EL9ap_o_mode3ELi0EEC1Ed(%struct.ap_fixed* getelementptr inbounds ([8192 x %struct.ap_fixed]* @_ZL4sine, i32 0, i32 927), double 0x3FEA6FE560000BDD)
  call void @_ZN8ap_fixedILi24ELi1EL9ap_q_mode5EL9ap_o_mode3ELi0EEC1Ed(%struct.ap_fixed* getelementptr inbounds ([8192 x %struct.ap_fixed]* @_ZL4sine, i32 0, i32 928), double 0x3FEA72465FFFFFB3)
  call void @_ZN8ap_fixedILi24ELi1EL9ap_q_mode5EL9ap_o_mode3ELi0EEC1Ed(%struct.ap_fixed* getelementptr inbounds ([8192 x %struct.ap_fixed]* @_ZL4sine, i32 0, i32 929), double 0x3FEA74A71FFFFDB9)
  call void @_ZN8ap_fixedILi24ELi1EL9ap_q_mode5EL9ap_o_mode3ELi0EEC1Ed(%struct.ap_fixed* getelementptr inbounds ([8192 x %struct.ap_fixed]* @_ZL4sine, i32 0, i32 930), double 0x3FEA770760001020)
  call void @_ZN8ap_fixedILi24ELi1EL9ap_q_mode5EL9ap_o_mode3ELi0EEC1Ed(%struct.ap_fixed* getelementptr inbounds ([8192 x %struct.ap_fixed]* @_ZL4sine, i32 0, i32 931), double 0x3FEA79673FFFFD07)
  call void @_ZN8ap_fixedILi24ELi1EL9ap_q_mode5EL9ap_o_mode3ELi0EEC1Ed(%struct.ap_fixed* getelementptr inbounds ([8192 x %struct.ap_fixed]* @_ZL4sine, i32 0, i32 932), double 0x3FEA7BC69FFFFE4F)
  call void @_ZN8ap_fixedILi24ELi1EL9ap_q_mode5EL9ap_o_mode3ELi0EEC1Ed(%struct.ap_fixed* getelementptr inbounds ([8192 x %struct.ap_fixed]* @_ZL4sine, i32 0, i32 933), double 0x3FEA7E25C00009C6)
  call void @_ZN8ap_fixedILi24ELi1EL9ap_q_mode5EL9ap_o_mode3ELi0EEC1Ed(%struct.ap_fixed* getelementptr inbounds ([8192 x %struct.ap_fixed]* @_ZL4sine, i32 0, i32 934), double 0x3FEA80846000066F)
  call void @_ZN8ap_fixedILi24ELi1EL9ap_q_mode5EL9ap_o_mode3ELi0EEC1Ed(%struct.ap_fixed* getelementptr inbounds ([8192 x %struct.ap_fixed]* @_ZL4sine, i32 0, i32 935), double 0x3FEA82E2A00000C8)
  call void @_ZN8ap_fixedILi24ELi1EL9ap_q_mode5EL9ap_o_mode3ELi0EEC1Ed(%struct.ap_fixed* getelementptr inbounds ([8192 x %struct.ap_fixed]* @_ZL4sine, i32 0, i32 936), double 0x3FEA854060000F81)
  call void @_ZN8ap_fixedILi24ELi1EL9ap_q_mode5EL9ap_o_mode3ELi0EEC1Ed(%struct.ap_fixed* getelementptr inbounds ([8192 x %struct.ap_fixed]* @_ZL4sine, i32 0, i32 937), double 0x3FEA879DE000053B)
  call void @_ZN8ap_fixedILi24ELi1EL9ap_q_mode5EL9ap_o_mode3ELi0EEC1Ed(%struct.ap_fixed* getelementptr inbounds ([8192 x %struct.ap_fixed]* @_ZL4sine, i32 0, i32 938), double 0x3FEA89FAE0000F55)
  call void @_ZN8ap_fixedILi24ELi1EL9ap_q_mode5EL9ap_o_mode3ELi0EEC1Ed(%struct.ap_fixed* getelementptr inbounds ([8192 x %struct.ap_fixed]* @_ZL4sine, i32 0, i32 939), double 0x3FEA8C577FFFF3F1)
  call void @_ZN8ap_fixedILi24ELi1EL9ap_q_mode5EL9ap_o_mode3ELi0EEC1Ed(%struct.ap_fixed* getelementptr inbounds ([8192 x %struct.ap_fixed]* @_ZL4sine, i32 0, i32 940), double 0x3FEA8EB3BFFFF96C)
  call void @_ZN8ap_fixedILi24ELi1EL9ap_q_mode5EL9ap_o_mode3ELi0EEC1Ed(%struct.ap_fixed* getelementptr inbounds ([8192 x %struct.ap_fixed]* @_ZL4sine, i32 0, i32 941), double 0x3FEA910F7FFFF017)
  call void @_ZN8ap_fixedILi24ELi1EL9ap_q_mode5EL9ap_o_mode3ELi0EEC1Ed(%struct.ap_fixed* getelementptr inbounds ([8192 x %struct.ap_fixed]* @_ZL4sine, i32 0, i32 942), double 0x3FEA936AE00007A3)
  call void @_ZN8ap_fixedILi24ELi1EL9ap_q_mode5EL9ap_o_mode3ELi0EEC1Ed(%struct.ap_fixed* getelementptr inbounds ([8192 x %struct.ap_fixed]* @_ZL4sine, i32 0, i32 943), double 0x3FEA95C5DFFFF9B0)
  call void @_ZN8ap_fixedILi24ELi1EL9ap_q_mode5EL9ap_o_mode3ELi0EEC1Ed(%struct.ap_fixed* getelementptr inbounds ([8192 x %struct.ap_fixed]* @_ZL4sine, i32 0, i32 944), double 0x3FEA982080000C9C)
  call void @_ZN8ap_fixedILi24ELi1EL9ap_q_mode5EL9ap_o_mode3ELi0EEC1Ed(%struct.ap_fixed* getelementptr inbounds ([8192 x %struct.ap_fixed]* @_ZL4sine, i32 0, i32 945), double 0x3FEA9A7AA00010B9)
  call void @_ZN8ap_fixedILi24ELi1EL9ap_q_mode5EL9ap_o_mode3ELi0EEC1Ed(%struct.ap_fixed* getelementptr inbounds ([8192 x %struct.ap_fixed]* @_ZL4sine, i32 0, i32 946), double 0x3FEA9CD45FFFEF58)
  call void @_ZN8ap_fixedILi24ELi1EL9ap_q_mode5EL9ap_o_mode3ELi0EEC1Ed(%struct.ap_fixed* getelementptr inbounds ([8192 x %struct.ap_fixed]* @_ZL4sine, i32 0, i32 947), double 0x3FEA9F2DBFFFEED6)
  call void @_ZN8ap_fixedILi24ELi1EL9ap_q_mode5EL9ap_o_mode3ELi0EEC1Ed(%struct.ap_fixed* getelementptr inbounds ([8192 x %struct.ap_fixed]* @_ZL4sine, i32 0, i32 948), double 0x3FEAA186C0000F34)
  call void @_ZN8ap_fixedILi24ELi1EL9ap_q_mode5EL9ap_o_mode3ELi0EEC1Ed(%struct.ap_fixed* getelementptr inbounds ([8192 x %struct.ap_fixed]* @_ZL4sine, i32 0, i32 949), double 0x3FEAA3DF3FFFFD94)
  call void @_ZN8ap_fixedILi24ELi1EL9ap_q_mode5EL9ap_o_mode3ELi0EEC1Ed(%struct.ap_fixed* getelementptr inbounds ([8192 x %struct.ap_fixed]* @_ZL4sine, i32 0, i32 950), double 0x3FEAA63760000CD3)
  call void @_ZN8ap_fixedILi24ELi1EL9ap_q_mode5EL9ap_o_mode3ELi0EEC1Ed(%struct.ap_fixed* getelementptr inbounds ([8192 x %struct.ap_fixed]* @_ZL4sine, i32 0, i32 951), double 0x3FEAA88F1FFFF694)
  call void @_ZN8ap_fixedILi24ELi1EL9ap_q_mode5EL9ap_o_mode3ELi0EEC1Ed(%struct.ap_fixed* getelementptr inbounds ([8192 x %struct.ap_fixed]* @_ZL4sine, i32 0, i32 952), double 0x3FEAAAE680000134)
  call void @_ZN8ap_fixedILi24ELi1EL9ap_q_mode5EL9ap_o_mode3ELi0EEC1Ed(%struct.ap_fixed* getelementptr inbounds ([8192 x %struct.ap_fixed]* @_ZL4sine, i32 0, i32 953), double 0x3FEAAD3D5FFFFD05)
  call void @_ZN8ap_fixedILi24ELi1EL9ap_q_mode5EL9ap_o_mode3ELi0EEC1Ed(%struct.ap_fixed* getelementptr inbounds ([8192 x %struct.ap_fixed]* @_ZL4sine, i32 0, i32 954), double 0x3FEAAF93DFFFF686)
  call void @_ZN8ap_fixedILi24ELi1EL9ap_q_mode5EL9ap_o_mode3ELi0EEC1Ed(%struct.ap_fixed* getelementptr inbounds ([8192 x %struct.ap_fixed]* @_ZL4sine, i32 0, i32 955), double 0x3FEAB1E9E0000468)
  call void @_ZN8ap_fixedILi24ELi1EL9ap_q_mode5EL9ap_o_mode3ELi0EEC1Ed(%struct.ap_fixed* getelementptr inbounds ([8192 x %struct.ap_fixed]* @_ZL4sine, i32 0, i32 956), double 0x3FEAB43F9FFFF94B)
  call void @_ZN8ap_fixedILi24ELi1EL9ap_q_mode5EL9ap_o_mode3ELi0EEC1Ed(%struct.ap_fixed* getelementptr inbounds ([8192 x %struct.ap_fixed]* @_ZL4sine, i32 0, i32 957), double 0x3FEAB694E000028D)
  call void @_ZN8ap_fixedILi24ELi1EL9ap_q_mode5EL9ap_o_mode3ELi0EEC1Ed(%struct.ap_fixed* getelementptr inbounds ([8192 x %struct.ap_fixed]* @_ZL4sine, i32 0, i32 958), double 0x3FEAB8E99FFFFD01)
  call void @_ZN8ap_fixedILi24ELi1EL9ap_q_mode5EL9ap_o_mode3ELi0EEC1Ed(%struct.ap_fixed* getelementptr inbounds ([8192 x %struct.ap_fixed]* @_ZL4sine, i32 0, i32 959), double 0x3FEABB3E200001A4)
  call void @_ZN8ap_fixedILi24ELi1EL9ap_q_mode5EL9ap_o_mode3ELi0EEC1Ed(%struct.ap_fixed* getelementptr inbounds ([8192 x %struct.ap_fixed]* @_ZL4sine, i32 0, i32 960), double 0x3FEABD921FFFF778)
  call void @_ZN8ap_fixedILi24ELi1EL9ap_q_mode5EL9ap_o_mode3ELi0EEC1Ed(%struct.ap_fixed* getelementptr inbounds ([8192 x %struct.ap_fixed]* @_ZL4sine, i32 0, i32 961), double 0x3FEABFE5C0000E2C)
  call void @_ZN8ap_fixedILi24ELi1EL9ap_q_mode5EL9ap_o_mode3ELi0EEC1Ed(%struct.ap_fixed* getelementptr inbounds ([8192 x %struct.ap_fixed]* @_ZL4sine, i32 0, i32 962), double 0x3FEAC238DFFFF2E2)
  call void @_ZN8ap_fixedILi24ELi1EL9ap_q_mode5EL9ap_o_mode3ELi0EEC1Ed(%struct.ap_fixed* getelementptr inbounds ([8192 x %struct.ap_fixed]* @_ZL4sine, i32 0, i32 963), double 0x3FEAC48B9FFFF877)
  call void @_ZN8ap_fixedILi24ELi1EL9ap_q_mode5EL9ap_o_mode3ELi0EEC1Ed(%struct.ap_fixed* getelementptr inbounds ([8192 x %struct.ap_fixed]* @_ZL4sine, i32 0, i32 964), double 0x3FEAC6DDFFFFFBBD)
  call void @_ZN8ap_fixedILi24ELi1EL9ap_q_mode5EL9ap_o_mode3ELi0EEC1Ed(%struct.ap_fixed* getelementptr inbounds ([8192 x %struct.ap_fixed]* @_ZL4sine, i32 0, i32 965), double 0x3FEAC92FFFFFFCB4)
  call void @_ZN8ap_fixedILi24ELi1EL9ap_q_mode5EL9ap_o_mode3ELi0EEC1Ed(%struct.ap_fixed* getelementptr inbounds ([8192 x %struct.ap_fixed]* @_ZL4sine, i32 0, i32 966), double 0x3FEACB817FFFEEDB)
  call void @_ZN8ap_fixedILi24ELi1EL9ap_q_mode5EL9ap_o_mode3ELi0EEC1Ed(%struct.ap_fixed* getelementptr inbounds ([8192 x %struct.ap_fixed]* @_ZL4sine, i32 0, i32 967), double 0x3FEACDD2A00001E2)
  call void @_ZN8ap_fixedILi24ELi1EL9ap_q_mode5EL9ap_o_mode3ELi0EEC1Ed(%struct.ap_fixed* getelementptr inbounds ([8192 x %struct.ap_fixed]* @_ZL4sine, i32 0, i32 968), double 0x3FEAD02340000619)
  call void @_ZN8ap_fixedILi24ELi1EL9ap_q_mode5EL9ap_o_mode3ELi0EEC1Ed(%struct.ap_fixed* getelementptr inbounds ([8192 x %struct.ap_fixed]* @_ZL4sine, i32 0, i32 969), double 0x3FEAD2739FFFF152)
  call void @_ZN8ap_fixedILi24ELi1EL9ap_q_mode5EL9ap_o_mode3ELi0EEC1Ed(%struct.ap_fixed* getelementptr inbounds ([8192 x %struct.ap_fixed]* @_ZL4sine, i32 0, i32 970), double 0x3FEAD4C37FFFF0EB)
  call void @_ZN8ap_fixedILi24ELi1EL9ap_q_mode5EL9ap_o_mode3ELi0EEC1Ed(%struct.ap_fixed* getelementptr inbounds ([8192 x %struct.ap_fixed]* @_ZL4sine, i32 0, i32 971), double 0x3FEAD712E00004E3)
  call void @_ZN8ap_fixedILi24ELi1EL9ap_q_mode5EL9ap_o_mode3ELi0EEC1Ed(%struct.ap_fixed* getelementptr inbounds ([8192 x %struct.ap_fixed]* @_ZL4sine, i32 0, i32 972), double 0x3FEAD961DFFFF35D)
  call void @_ZN8ap_fixedILi24ELi1EL9ap_q_mode5EL9ap_o_mode3ELi0EEC1Ed(%struct.ap_fixed* getelementptr inbounds ([8192 x %struct.ap_fixed]* @_ZL4sine, i32 0, i32 973), double 0x3FEADBB0800002B7)
  call void @_ZN8ap_fixedILi24ELi1EL9ap_q_mode5EL9ap_o_mode3ELi0EEC1Ed(%struct.ap_fixed* getelementptr inbounds ([8192 x %struct.ap_fixed]* @_ZL4sine, i32 0, i32 974), double 0x3FEADDFEC0000FC1)
  call void @_ZN8ap_fixedILi24ELi1EL9ap_q_mode5EL9ap_o_mode3ELi0EEC1Ed(%struct.ap_fixed* getelementptr inbounds ([8192 x %struct.ap_fixed]* @_ZL4sine, i32 0, i32 975), double 0x3FEAE04C80000DFC)
  call void @_ZN8ap_fixedILi24ELi1EL9ap_q_mode5EL9ap_o_mode3ELi0EEC1Ed(%struct.ap_fixed* getelementptr inbounds ([8192 x %struct.ap_fixed]* @_ZL4sine, i32 0, i32 976), double 0x3FEAE299E00009E7)
  call void @_ZN8ap_fixedILi24ELi1EL9ap_q_mode5EL9ap_o_mode3ELi0EEC1Ed(%struct.ap_fixed* getelementptr inbounds ([8192 x %struct.ap_fixed]* @_ZL4sine, i32 0, i32 977), double 0x3FEAE4E6BFFFF704)
  call void @_ZN8ap_fixedILi24ELi1EL9ap_q_mode5EL9ap_o_mode3ELi0EEC1Ed(%struct.ap_fixed* getelementptr inbounds ([8192 x %struct.ap_fixed]* @_ZL4sine, i32 0, i32 978), double 0x3FEAE73340000500)
  call void @_ZN8ap_fixedILi24ELi1EL9ap_q_mode5EL9ap_o_mode3ELi0EEC1Ed(%struct.ap_fixed* getelementptr inbounds ([8192 x %struct.ap_fixed]* @_ZL4sine, i32 0, i32 979), double 0x3FEAE97F600010AC)
  call void @_ZN8ap_fixedILi24ELi1EL9ap_q_mode5EL9ap_o_mode3ELi0EEC1Ed(%struct.ap_fixed* getelementptr inbounds ([8192 x %struct.ap_fixed]* @_ZL4sine, i32 0, i32 980), double 0x3FEAEBCB1FFFF6DA)
  call void @_ZN8ap_fixedILi24ELi1EL9ap_q_mode5EL9ap_o_mode3ELi0EEC1Ed(%struct.ap_fixed* getelementptr inbounds ([8192 x %struct.ap_fixed]* @_ZL4sine, i32 0, i32 981), double 0x3FEAEE165FFFF168)
  call void @_ZN8ap_fixedILi24ELi1EL9ap_q_mode5EL9ap_o_mode3ELi0EEC1Ed(%struct.ap_fixed* getelementptr inbounds ([8192 x %struct.ap_fixed]* @_ZL4sine, i32 0, i32 982), double 0x3FEAF06120000056)
  call void @_ZN8ap_fixedILi24ELi1EL9ap_q_mode5EL9ap_o_mode3ELi0EEC1Ed(%struct.ap_fixed* getelementptr inbounds ([8192 x %struct.ap_fixed]* @_ZL4sine, i32 0, i32 983), double 0x3FEAF2AB9FFFF645)
  call void @_ZN8ap_fixedILi24ELi1EL9ap_q_mode5EL9ap_o_mode3ELi0EEC1Ed(%struct.ap_fixed* getelementptr inbounds ([8192 x %struct.ap_fixed]* @_ZL4sine, i32 0, i32 984), double 0x3FEAF4F57FFFF414)
  call void @_ZN8ap_fixedILi24ELi1EL9ap_q_mode5EL9ap_o_mode3ELi0EEC1Ed(%struct.ap_fixed* getelementptr inbounds ([8192 x %struct.ap_fixed]* @_ZL4sine, i32 0, i32 985), double 0x3FEAF73F1FFFFC13)
  call void @_ZN8ap_fixedILi24ELi1EL9ap_q_mode5EL9ap_o_mode3ELi0EEC1Ed(%struct.ap_fixed* getelementptr inbounds ([8192 x %struct.ap_fixed]* @_ZL4sine, i32 0, i32 986), double 0x3FEAF9883FFFF543)
  call void @_ZN8ap_fixedILi24ELi1EL9ap_q_mode5EL9ap_o_mode3ELi0EEC1Ed(%struct.ap_fixed* getelementptr inbounds ([8192 x %struct.ap_fixed]* @_ZL4sine, i32 0, i32 987), double 0x3FEAFBD100000F53)
  call void @_ZN8ap_fixedILi24ELi1EL9ap_q_mode5EL9ap_o_mode3ELi0EEC1Ed(%struct.ap_fixed* getelementptr inbounds ([8192 x %struct.ap_fixed]* @_ZL4sine, i32 0, i32 988), double 0x3FEAFE193FFFF765)
  call void @_ZN8ap_fixedILi24ELi1EL9ap_q_mode5EL9ap_o_mode3ELi0EEC1Ed(%struct.ap_fixed* getelementptr inbounds ([8192 x %struct.ap_fixed]* @_ZL4sine, i32 0, i32 989), double 0x3FEB006120000056)
  call void @_ZN8ap_fixedILi24ELi1EL9ap_q_mode5EL9ap_o_mode3ELi0EEC1Ed(%struct.ap_fixed* getelementptr inbounds ([8192 x %struct.ap_fixed]* @_ZL4sine, i32 0, i32 990), double 0x3FEB02A8A00006F7)
  call void @_ZN8ap_fixedILi24ELi1EL9ap_q_mode5EL9ap_o_mode3ELi0EEC1Ed(%struct.ap_fixed* getelementptr inbounds ([8192 x %struct.ap_fixed]* @_ZL4sine, i32 0, i32 991), double 0x3FEB04EF9FFFFECA)
  call void @_ZN8ap_fixedILi24ELi1EL9ap_q_mode5EL9ap_o_mode3ELi0EEC1Ed(%struct.ap_fixed* getelementptr inbounds ([8192 x %struct.ap_fixed]* @_ZL4sine, i32 0, i32 992), double 0x3FEB07363FFFF44D)
  call void @_ZN8ap_fixedILi24ELi1EL9ap_q_mode5EL9ap_o_mode3ELi0EEC1Ed(%struct.ap_fixed* getelementptr inbounds ([8192 x %struct.ap_fixed]* @_ZL4sine, i32 0, i32 993), double 0x3FEB097C80000AB0)
  call void @_ZN8ap_fixedILi24ELi1EL9ap_q_mode5EL9ap_o_mode3ELi0EEC1Ed(%struct.ap_fixed* getelementptr inbounds ([8192 x %struct.ap_fixed]* @_ZL4sine, i32 0, i32 994), double 0x3FEB0BC23FFFEF14)
  call void @_ZN8ap_fixedILi24ELi1EL9ap_q_mode5EL9ap_o_mode3ELi0EEC1Ed(%struct.ap_fixed* getelementptr inbounds ([8192 x %struct.ap_fixed]* @_ZL4sine, i32 0, i32 995), double 0x3FEB0E0780000B08)
  call void @_ZN8ap_fixedILi24ELi1EL9ap_q_mode5EL9ap_o_mode3ELi0EEC1Ed(%struct.ap_fixed* getelementptr inbounds ([8192 x %struct.ap_fixed]* @_ZL4sine, i32 0, i32 996), double 0x3FEB104C6000017C)
  call void @_ZN8ap_fixedILi24ELi1EL9ap_q_mode5EL9ap_o_mode3ELi0EEC1Ed(%struct.ap_fixed* getelementptr inbounds ([8192 x %struct.ap_fixed]* @_ZL4sine, i32 0, i32 997), double 0x3FEB1290DFFFF5A2)
  call void @_ZN8ap_fixedILi24ELi1EL9ap_q_mode5EL9ap_o_mode3ELi0EEC1Ed(%struct.ap_fixed* getelementptr inbounds ([8192 x %struct.ap_fixed]* @_ZL4sine, i32 0, i32 998), double 0x3FEB14D500000AA7)
  call void @_ZN8ap_fixedILi24ELi1EL9ap_q_mode5EL9ap_o_mode3ELi0EEC1Ed(%struct.ap_fixed* getelementptr inbounds ([8192 x %struct.ap_fixed]* @_ZL4sine, i32 0, i32 999), double 0x3FEB1718A00010DD)
  call void @_ZN8ap_fixedILi24ELi1EL9ap_q_mode5EL9ap_o_mode3ELi0EEC1Ed(%struct.ap_fixed* getelementptr inbounds ([8192 x %struct.ap_fixed]* @_ZL4sine, i32 0, i32 1000), double 0x3FEB195BC0000843)
  call void @_ZN8ap_fixedILi24ELi1EL9ap_q_mode5EL9ap_o_mode3ELi0EEC1Ed(%struct.ap_fixed* getelementptr inbounds ([8192 x %struct.ap_fixed]* @_ZL4sine, i32 0, i32 1001), double 0x3FEB1B9E7FFFFD5B)
  call void @_ZN8ap_fixedILi24ELi1EL9ap_q_mode5EL9ap_o_mode3ELi0EEC1Ed(%struct.ap_fixed* getelementptr inbounds ([8192 x %struct.ap_fixed]* @_ZL4sine, i32 0, i32 1002), double 0x3FEB1DE0DFFFF022)
  call void @_ZN8ap_fixedILi24ELi1EL9ap_q_mode5EL9ap_o_mode3ELi0EEC1Ed(%struct.ap_fixed* getelementptr inbounds ([8192 x %struct.ap_fixed]* @_ZL4sine, i32 0, i32 1003), double 0x3FEB2022BFFFF74A)
  call void @_ZN8ap_fixedILi24ELi1EL9ap_q_mode5EL9ap_o_mode3ELi0EEC1Ed(%struct.ap_fixed* getelementptr inbounds ([8192 x %struct.ap_fixed]* @_ZL4sine, i32 0, i32 1004), double 0x3FEB22643FFFFC22)
  call void @_ZN8ap_fixedILi24ELi1EL9ap_q_mode5EL9ap_o_mode3ELi0EEC1Ed(%struct.ap_fixed* getelementptr inbounds ([8192 x %struct.ap_fixed]* @_ZL4sine, i32 0, i32 1005), double 0x3FEB24A55FFFFEAB)
  call void @_ZN8ap_fixedILi24ELi1EL9ap_q_mode5EL9ap_o_mode3ELi0EEC1Ed(%struct.ap_fixed* getelementptr inbounds ([8192 x %struct.ap_fixed]* @_ZL4sine, i32 0, i32 1006), double 0x3FEB26E5FFFFF265)
  call void @_ZN8ap_fixedILi24ELi1EL9ap_q_mode5EL9ap_o_mode3ELi0EEC1Ed(%struct.ap_fixed* getelementptr inbounds ([8192 x %struct.ap_fixed]* @_ZL4sine, i32 0, i32 1007), double 0x3FEB29261FFFFA7E)
  call void @_ZN8ap_fixedILi24ELi1EL9ap_q_mode5EL9ap_o_mode3ELi0EEC1Ed(%struct.ap_fixed* getelementptr inbounds ([8192 x %struct.ap_fixed]* @_ZL4sine, i32 0, i32 1008), double 0x3FEB2B6600000CC8)
  call void @_ZN8ap_fixedILi24ELi1EL9ap_q_mode5EL9ap_o_mode3ELi0EEC1Ed(%struct.ap_fixed* getelementptr inbounds ([8192 x %struct.ap_fixed]* @_ZL4sine, i32 0, i32 1009), double 0x3FEB2DA5400003C3)
  call void @_ZN8ap_fixedILi24ELi1EL9ap_q_mode5EL9ap_o_mode3ELi0EEC1Ed(%struct.ap_fixed* getelementptr inbounds ([8192 x %struct.ap_fixed]* @_ZL4sine, i32 0, i32 1010), double 0x3FEB2FE41FFFF86F)
  call void @_ZN8ap_fixedILi24ELi1EL9ap_q_mode5EL9ap_o_mode3ELi0EEC1Ed(%struct.ap_fixed* getelementptr inbounds ([8192 x %struct.ap_fixed]* @_ZL4sine, i32 0, i32 1011), double 0x3FEB3222A0000DFA)
  call void @_ZN8ap_fixedILi24ELi1EL9ap_q_mode5EL9ap_o_mode3ELi0EEC1Ed(%struct.ap_fixed* getelementptr inbounds ([8192 x %struct.ap_fixed]* @_ZL4sine, i32 0, i32 1012), double 0x3FEB3460BFFFFE06)
  call void @_ZN8ap_fixedILi24ELi1EL9ap_q_mode5EL9ap_o_mode3ELi0EEC1Ed(%struct.ap_fixed* getelementptr inbounds ([8192 x %struct.ap_fixed]* @_ZL4sine, i32 0, i32 1013), double 0x3FEB369E60000273)
  call void @_ZN8ap_fixedILi24ELi1EL9ap_q_mode5EL9ap_o_mode3ELi0EEC1Ed(%struct.ap_fixed* getelementptr inbounds ([8192 x %struct.ap_fixed]* @_ZL4sine, i32 0, i32 1014), double 0x3FEB38DB7FFFF810)
  call void @_ZN8ap_fixedILi24ELi1EL9ap_q_mode5EL9ap_o_mode3ELi0EEC1Ed(%struct.ap_fixed* getelementptr inbounds ([8192 x %struct.ap_fixed]* @_ZL4sine, i32 0, i32 1015), double 0x3FEB3B1840000E8D)
  call void @_ZN8ap_fixedILi24ELi1EL9ap_q_mode5EL9ap_o_mode3ELi0EEC1Ed(%struct.ap_fixed* getelementptr inbounds ([8192 x %struct.ap_fixed]* @_ZL4sine, i32 0, i32 1016), double 0x3FEB3D549FFFFF8B)
  call void @_ZN8ap_fixedILi24ELi1EL9ap_q_mode5EL9ap_o_mode3ELi0EEC1Ed(%struct.ap_fixed* getelementptr inbounds ([8192 x %struct.ap_fixed]* @_ZL4sine, i32 0, i32 1017), double 0x3FEB3F90800004EA)
  call void @_ZN8ap_fixedILi24ELi1EL9ap_q_mode5EL9ap_o_mode3ELi0EEC1Ed(%struct.ap_fixed* getelementptr inbounds ([8192 x %struct.ap_fixed]* @_ZL4sine, i32 0, i32 1018), double 0x3FEB41CBDFFFFB79)
  call void @_ZN8ap_fixedILi24ELi1EL9ap_q_mode5EL9ap_o_mode3ELi0EEC1Ed(%struct.ap_fixed* getelementptr inbounds ([8192 x %struct.ap_fixed]* @_ZL4sine, i32 0, i32 1019), double 0x3FEB4406DFFFEFB9)
  call void @_ZN8ap_fixedILi24ELi1EL9ap_q_mode5EL9ap_o_mode3ELi0EEC1Ed(%struct.ap_fixed* getelementptr inbounds ([8192 x %struct.ap_fixed]* @_ZL4sine, i32 0, i32 1020), double 0x3FEB4641800004D8)
  call void @_ZN8ap_fixedILi24ELi1EL9ap_q_mode5EL9ap_o_mode3ELi0EEC1Ed(%struct.ap_fixed* getelementptr inbounds ([8192 x %struct.ap_fixed]* @_ZL4sine, i32 0, i32 1021), double 0x3FEB487BA0000B29)
  call void @_ZN8ap_fixedILi24ELi1EL9ap_q_mode5EL9ap_o_mode3ELi0EEC1Ed(%struct.ap_fixed* getelementptr inbounds ([8192 x %struct.ap_fixed]* @_ZL4sine, i32 0, i32 1022), double 0x3FEB4AB560000F29)
  call void @_ZN8ap_fixedILi24ELi1EL9ap_q_mode5EL9ap_o_mode3ELi0EEC1Ed(%struct.ap_fixed* getelementptr inbounds ([8192 x %struct.ap_fixed]* @_ZL4sine, i32 0, i32 1023), double 0x3FEB4CEEA000045B)
  call void @_ZN8ap_fixedILi24ELi1EL9ap_q_mode5EL9ap_o_mode3ELi0EEC1Ed(%struct.ap_fixed* getelementptr inbounds ([8192 x %struct.ap_fixed]* @_ZL4sine, i32 0, i32 1024), double 0x3FEB4F277FFFF73D)
  call void @_ZN8ap_fixedILi24ELi1EL9ap_q_mode5EL9ap_o_mode3ELi0EEC1Ed(%struct.ap_fixed* getelementptr inbounds ([8192 x %struct.ap_fixed]* @_ZL4sine, i32 0, i32 1025), double 0x3FEB515FDFFFFE7F)
  call void @_ZN8ap_fixedILi24ELi1EL9ap_q_mode5EL9ap_o_mode3ELi0EEC1Ed(%struct.ap_fixed* getelementptr inbounds ([8192 x %struct.ap_fixed]* @_ZL4sine, i32 0, i32 1026), double 0x3FEB5397E0000372)
  call void @_ZN8ap_fixedILi24ELi1EL9ap_q_mode5EL9ap_o_mode3ELi0EEC1Ed(%struct.ap_fixed* getelementptr inbounds ([8192 x %struct.ap_fixed]* @_ZL4sine, i32 0, i32 1027), double 0x3FEB55CF5FFFF995)
  call void @_ZN8ap_fixedILi24ELi1EL9ap_q_mode5EL9ap_o_mode3ELi0EEC1Ed(%struct.ap_fixed* getelementptr inbounds ([8192 x %struct.ap_fixed]* @_ZL4sine, i32 0, i32 1028), double 0x3FEB580680001099)
  call void @_ZN8ap_fixedILi24ELi1EL9ap_q_mode5EL9ap_o_mode3ELi0EEC1Ed(%struct.ap_fixed* getelementptr inbounds ([8192 x %struct.ap_fixed]* @_ZL4sine, i32 0, i32 1029), double 0x3FEB5A3D1FFFF59D)
  call void @_ZN8ap_fixedILi24ELi1EL9ap_q_mode5EL9ap_o_mode3ELi0EEC1Ed(%struct.ap_fixed* getelementptr inbounds ([8192 x %struct.ap_fixed]* @_ZL4sine, i32 0, i32 1030), double 0x3FEB5C735FFFFB82)
  call void @_ZN8ap_fixedILi24ELi1EL9ap_q_mode5EL9ap_o_mode3ELi0EEC1Ed(%struct.ap_fixed* getelementptr inbounds ([8192 x %struct.ap_fixed]* @_ZL4sine, i32 0, i32 1031), double 0x3FEB5EA93FFFFF17)
  call void @_ZN8ap_fixedILi24ELi1EL9ap_q_mode5EL9ap_o_mode3ELi0EEC1Ed(%struct.ap_fixed* getelementptr inbounds ([8192 x %struct.ap_fixed]* @_ZL4sine, i32 0, i32 1032), double 0x3FEB60DE80000A8C)
  call void @_ZN8ap_fixedILi24ELi1EL9ap_q_mode5EL9ap_o_mode3ELi0EEC1Ed(%struct.ap_fixed* getelementptr inbounds ([8192 x %struct.ap_fixed]* @_ZL4sine, i32 0, i32 1033), double 0x3FEB63137FFFFD03)
  call void @_ZN8ap_fixedILi24ELi1EL9ap_q_mode5EL9ap_o_mode3ELi0EEC1Ed(%struct.ap_fixed* getelementptr inbounds ([8192 x %struct.ap_fixed]* @_ZL4sine, i32 0, i32 1034), double 0x3FEB6547DFFFF75A)
  call void @_ZN8ap_fixedILi24ELi1EL9ap_q_mode5EL9ap_o_mode3ELi0EEC1Ed(%struct.ap_fixed* getelementptr inbounds ([8192 x %struct.ap_fixed]* @_ZL4sine, i32 0, i32 1035), double 0x3FEB677BFFFFFBE0)
  call void @_ZN8ap_fixedILi24ELi1EL9ap_q_mode5EL9ap_o_mode3ELi0EEC1Ed(%struct.ap_fixed* getelementptr inbounds ([8192 x %struct.ap_fixed]* @_ZL4sine, i32 0, i32 1036), double 0x3FEB69AF80000848)
  call void @_ZN8ap_fixedILi24ELi1EL9ap_q_mode5EL9ap_o_mode3ELi0EEC1Ed(%struct.ap_fixed* getelementptr inbounds ([8192 x %struct.ap_fixed]* @_ZL4sine, i32 0, i32 1037), double 0x3FEB6BE2BFFFFBB0)
  call void @_ZN8ap_fixedILi24ELi1EL9ap_q_mode5EL9ap_o_mode3ELi0EEC1Ed(%struct.ap_fixed* getelementptr inbounds ([8192 x %struct.ap_fixed]* @_ZL4sine, i32 0, i32 1038), double 0x3FEB6E155FFFF6F9)
  call void @_ZN8ap_fixedILi24ELi1EL9ap_q_mode5EL9ap_o_mode3ELi0EEC1Ed(%struct.ap_fixed* getelementptr inbounds ([8192 x %struct.ap_fixed]* @_ZL4sine, i32 0, i32 1039), double 0x3FEB7047BFFFFC72)
  call void @_ZN8ap_fixedILi24ELi1EL9ap_q_mode5EL9ap_o_mode3ELi0EEC1Ed(%struct.ap_fixed* getelementptr inbounds ([8192 x %struct.ap_fixed]* @_ZL4sine, i32 0, i32 1040), double 0x3FEB7279800009CB)
  call void @_ZN8ap_fixedILi24ELi1EL9ap_q_mode5EL9ap_o_mode3ELi0EEC1Ed(%struct.ap_fixed* getelementptr inbounds ([8192 x %struct.ap_fixed]* @_ZL4sine, i32 0, i32 1041), double 0x3FEB74AAFFFFFE25)
  call void @_ZN8ap_fixedILi24ELi1EL9ap_q_mode5EL9ap_o_mode3ELi0EEC1Ed(%struct.ap_fixed* getelementptr inbounds ([8192 x %struct.ap_fixed]* @_ZL4sine, i32 0, i32 1042), double 0x3FEB76DBDFFFFA60)
  call void @_ZN8ap_fixedILi24ELi1EL9ap_q_mode5EL9ap_o_mode3ELi0EEC1Ed(%struct.ap_fixed* getelementptr inbounds ([8192 x %struct.ap_fixed]* @_ZL4sine, i32 0, i32 1043), double 0x3FEB790C5FFFF44B)
  call void @_ZN8ap_fixedILi24ELi1EL9ap_q_mode5EL9ap_o_mode3ELi0EEC1Ed(%struct.ap_fixed* getelementptr inbounds ([8192 x %struct.ap_fixed]* @_ZL4sine, i32 0, i32 1044), double 0x3FEB7B3C80000F15)
  call void @_ZN8ap_fixedILi24ELi1EL9ap_q_mode5EL9ap_o_mode3ELi0EEC1Ed(%struct.ap_fixed* getelementptr inbounds ([8192 x %struct.ap_fixed]* @_ZL4sine, i32 0, i32 1045), double 0x3FEB7D6C1FFFF7E2)
  call void @_ZN8ap_fixedILi24ELi1EL9ap_q_mode5EL9ap_o_mode3ELi0EEC1Ed(%struct.ap_fixed* getelementptr inbounds ([8192 x %struct.ap_fixed]* @_ZL4sine, i32 0, i32 1046), double 0x3FEB7F9B3FFFF50E)
  call void @_ZN8ap_fixedILi24ELi1EL9ap_q_mode5EL9ap_o_mode3ELi0EEC1Ed(%struct.ap_fixed* getelementptr inbounds ([8192 x %struct.ap_fixed]* @_ZL4sine, i32 0, i32 1047), double 0x3FEB81C9FFFFEFEB)
  call void @_ZN8ap_fixedILi24ELi1EL9ap_q_mode5EL9ap_o_mode3ELi0EEC1Ed(%struct.ap_fixed* getelementptr inbounds ([8192 x %struct.ap_fixed]* @_ZL4sine, i32 0, i32 1048), double 0x3FEB83F860000BA8)
  call void @_ZN8ap_fixedILi24ELi1EL9ap_q_mode5EL9ap_o_mode3ELi0EEC1Ed(%struct.ap_fixed* getelementptr inbounds ([8192 x %struct.ap_fixed]* @_ZL4sine, i32 0, i32 1049), double 0x3FEB862620000C16)
  call void @_ZN8ap_fixedILi24ELi1EL9ap_q_mode5EL9ap_o_mode3ELi0EEC1Ed(%struct.ap_fixed* getelementptr inbounds ([8192 x %struct.ap_fixed]* @_ZL4sine, i32 0, i32 1050), double 0x3FEB88539FFFF385)
  call void @_ZN8ap_fixedILi24ELi1EL9ap_q_mode5EL9ap_o_mode3ELi0EEC1Ed(%struct.ap_fixed* getelementptr inbounds ([8192 x %struct.ap_fixed]* @_ZL4sine, i32 0, i32 1051), double 0x3FEB8A809FFFEF54)
  call void @_ZN8ap_fixedILi24ELi1EL9ap_q_mode5EL9ap_o_mode3ELi0EEC1Ed(%struct.ap_fixed* getelementptr inbounds ([8192 x %struct.ap_fixed]* @_ZL4sine, i32 0, i32 1052), double 0x3FEB8CAD1FFFFF83)
  call void @_ZN8ap_fixedILi24ELi1EL9ap_q_mode5EL9ap_o_mode3ELi0EEC1Ed(%struct.ap_fixed* getelementptr inbounds ([8192 x %struct.ap_fixed]* @_ZL4sine, i32 0, i32 1053), double 0x3FEB8ED9200000E2)
  call void @_ZN8ap_fixedILi24ELi1EL9ap_q_mode5EL9ap_o_mode3ELi0EEC1Ed(%struct.ap_fixed* getelementptr inbounds ([8192 x %struct.ap_fixed]* @_ZL4sine, i32 0, i32 1054), double 0x3FEB9104BFFFFFF3)
  call void @_ZN8ap_fixedILi24ELi1EL9ap_q_mode5EL9ap_o_mode3ELi0EEC1Ed(%struct.ap_fixed* getelementptr inbounds ([8192 x %struct.ap_fixed]* @_ZL4sine, i32 0, i32 1055), double 0x3FEB932FFFFFFCB4)
  call void @_ZN8ap_fixedILi24ELi1EL9ap_q_mode5EL9ap_o_mode3ELi0EEC1Ed(%struct.ap_fixed* getelementptr inbounds ([8192 x %struct.ap_fixed]* @_ZL4sine, i32 0, i32 1056), double 0x3FEB955AC0000DD4)
  call void @_ZN8ap_fixedILi24ELi1EL9ap_q_mode5EL9ap_o_mode3ELi0EEC1Ed(%struct.ap_fixed* getelementptr inbounds ([8192 x %struct.ap_fixed]* @_ZL4sine, i32 0, i32 1057), double 0x3FEB978500001026)
  call void @_ZN8ap_fixedILi24ELi1EL9ap_q_mode5EL9ap_o_mode3ELi0EEC1Ed(%struct.ap_fixed* getelementptr inbounds ([8192 x %struct.ap_fixed]* @_ZL4sine, i32 0, i32 1058), double 0x3FEB99AEE0001028)
  call void @_ZN8ap_fixedILi24ELi1EL9ap_q_mode5EL9ap_o_mode3ELi0EEC1Ed(%struct.ap_fixed* getelementptr inbounds ([8192 x %struct.ap_fixed]* @_ZL4sine, i32 0, i32 1059), double 0x3FEB9BD84000015B)
  call void @_ZN8ap_fixedILi24ELi1EL9ap_q_mode5EL9ap_o_mode3ELi0EEC1Ed(%struct.ap_fixed* getelementptr inbounds ([8192 x %struct.ap_fixed]* @_ZL4sine, i32 0, i32 1060), double 0x3FEB9E013FFFF03F)
  call void @_ZN8ap_fixedILi24ELi1EL9ap_q_mode5EL9ap_o_mode3ELi0EEC1Ed(%struct.ap_fixed* getelementptr inbounds ([8192 x %struct.ap_fixed]* @_ZL4sine, i32 0, i32 1061), double 0x3FEBA029BFFFF383)
  call void @_ZN8ap_fixedILi24ELi1EL9ap_q_mode5EL9ap_o_mode3ELi0EEC1Ed(%struct.ap_fixed* getelementptr inbounds ([8192 x %struct.ap_fixed]* @_ZL4sine, i32 0, i32 1062), double 0x3FEBA251C0000B26)
  call void @_ZN8ap_fixedILi24ELi1EL9ap_q_mode5EL9ap_o_mode3ELi0EEC1Ed(%struct.ap_fixed* getelementptr inbounds ([8192 x %struct.ap_fixed]* @_ZL4sine, i32 0, i32 1063), double 0x3FEBA4795FFFFD4B)
  call void @_ZN8ap_fixedILi24ELi1EL9ap_q_mode5EL9ap_o_mode3ELi0EEC1Ed(%struct.ap_fixed* getelementptr inbounds ([8192 x %struct.ap_fixed]* @_ZL4sine, i32 0, i32 1064), double 0x3FEBA6A0A0001050)
  call void @_ZN8ap_fixedILi24ELi1EL9ap_q_mode5EL9ap_o_mode3ELi0EEC1Ed(%struct.ap_fixed* getelementptr inbounds ([8192 x %struct.ap_fixed]* @_ZL4sine, i32 0, i32 1065), double 0x3FEBA8C740000806)
  call void @_ZN8ap_fixedILi24ELi1EL9ap_q_mode5EL9ap_o_mode3ELi0EEC1Ed(%struct.ap_fixed* getelementptr inbounds ([8192 x %struct.ap_fixed]* @_ZL4sine, i32 0, i32 1066), double 0x3FEBAAED7FFFFD6C)
  call void @_ZN8ap_fixedILi24ELi1EL9ap_q_mode5EL9ap_o_mode3ELi0EEC1Ed(%struct.ap_fixed* getelementptr inbounds ([8192 x %struct.ap_fixed]* @_ZL4sine, i32 0, i32 1067), double 0x3FEBAD135FFFF083)
  call void @_ZN8ap_fixedILi24ELi1EL9ap_q_mode5EL9ap_o_mode3ELi0EEC1Ed(%struct.ap_fixed* getelementptr inbounds ([8192 x %struct.ap_fixed]* @_ZL4sine, i32 0, i32 1068), double 0x3FEBAF38BFFFF7FA)
  call void @_ZN8ap_fixedILi24ELi1EL9ap_q_mode5EL9ap_o_mode3ELi0EEC1Ed(%struct.ap_fixed* getelementptr inbounds ([8192 x %struct.ap_fixed]* @_ZL4sine, i32 0, i32 1069), double 0x3FEBB15D9FFFF0A2)
  call void @_ZN8ap_fixedILi24ELi1EL9ap_q_mode5EL9ap_o_mode3ELi0EEC1Ed(%struct.ap_fixed* getelementptr inbounds ([8192 x %struct.ap_fixed]* @_ZL4sine, i32 0, i32 1070), double 0x3FEBB38220000A29)
  call void @_ZN8ap_fixedILi24ELi1EL9ap_q_mode5EL9ap_o_mode3ELi0EEC1Ed(%struct.ap_fixed* getelementptr inbounds ([8192 x %struct.ap_fixed]* @_ZL4sine, i32 0, i32 1071), double 0x3FEBB5A61FFFF1B3)
  call void @_ZN8ap_fixedILi24ELi1EL9ap_q_mode5EL9ap_o_mode3ELi0EEC1Ed(%struct.ap_fixed* getelementptr inbounds ([8192 x %struct.ap_fixed]* @_ZL4sine, i32 0, i32 1072), double 0x3FEBB7C9BFFFFA1B)
  call void @_ZN8ap_fixedILi24ELi1EL9ap_q_mode5EL9ap_o_mode3ELi0EEC1Ed(%struct.ap_fixed* getelementptr inbounds ([8192 x %struct.ap_fixed]* @_ZL4sine, i32 0, i32 1073), double 0x3FEBB9ECDFFFF3B5)
  call void @_ZN8ap_fixedILi24ELi1EL9ap_q_mode5EL9ap_o_mode3ELi0EEC1Ed(%struct.ap_fixed* getelementptr inbounds ([8192 x %struct.ap_fixed]* @_ZL4sine, i32 0, i32 1074), double 0x3FEBBC0F800001AF)
  call void @_ZN8ap_fixedILi24ELi1EL9ap_q_mode5EL9ap_o_mode3ELi0EEC1Ed(%struct.ap_fixed* getelementptr inbounds ([8192 x %struct.ap_fixed]* @_ZL4sine, i32 0, i32 1075), double 0x3FEBBE31C0000D59)
  call void @_ZN8ap_fixedILi24ELi1EL9ap_q_mode5EL9ap_o_mode3ELi0EEC1Ed(%struct.ap_fixed* getelementptr inbounds ([8192 x %struct.ap_fixed]* @_ZL4sine, i32 0, i32 1076), double 0x3FEBC05380000A34)
  call void @_ZN8ap_fixedILi24ELi1EL9ap_q_mode5EL9ap_o_mode3ELi0EEC1Ed(%struct.ap_fixed* getelementptr inbounds ([8192 x %struct.ap_fixed]* @_ZL4sine, i32 0, i32 1077), double 0x3FEBC274BFFFF840)
  call void @_ZN8ap_fixedILi24ELi1EL9ap_q_mode5EL9ap_o_mode3ELi0EEC1Ed(%struct.ap_fixed* getelementptr inbounds ([8192 x %struct.ap_fixed]* @_ZL4sine, i32 0, i32 1078), double 0x3FEBC495A000072C)
  call void @_ZN8ap_fixedILi24ELi1EL9ap_q_mode5EL9ap_o_mode3ELi0EEC1Ed(%struct.ap_fixed* getelementptr inbounds ([8192 x %struct.ap_fixed]* @_ZL4sine, i32 0, i32 1079), double 0x3FEBC6B600000749)
  call void @_ZN8ap_fixedILi24ELi1EL9ap_q_mode5EL9ap_o_mode3ELi0EEC1Ed(%struct.ap_fixed* getelementptr inbounds ([8192 x %struct.ap_fixed]* @_ZL4sine, i32 0, i32 1080), double 0x3FEBC8D600000516)
  call void @_ZN8ap_fixedILi24ELi1EL9ap_q_mode5EL9ap_o_mode3ELi0EEC1Ed(%struct.ap_fixed* getelementptr inbounds ([8192 x %struct.ap_fixed]* @_ZL4sine, i32 0, i32 1081), double 0x3FEBCAF57FFFF414)
  call void @_ZN8ap_fixedILi24ELi1EL9ap_q_mode5EL9ap_o_mode3ELi0EEC1Ed(%struct.ap_fixed* getelementptr inbounds ([8192 x %struct.ap_fixed]* @_ZL4sine, i32 0, i32 1082), double 0x3FEBCD147FFFF772)
  call void @_ZN8ap_fixedILi24ELi1EL9ap_q_mode5EL9ap_o_mode3ELi0EEC1Ed(%struct.ap_fixed* getelementptr inbounds ([8192 x %struct.ap_fixed]* @_ZL4sine, i32 0, i32 1083), double 0x3FEBCF331FFFF880)
  call void @_ZN8ap_fixedILi24ELi1EL9ap_q_mode5EL9ap_o_mode3ELi0EEC1Ed(%struct.ap_fixed* getelementptr inbounds ([8192 x %struct.ap_fixed]* @_ZL4sine, i32 0, i32 1084), double 0x3FEBD15140000DEF)
  call void @_ZN8ap_fixedILi24ELi1EL9ap_q_mode5EL9ap_o_mode3ELi0EEC1Ed(%struct.ap_fixed* getelementptr inbounds ([8192 x %struct.ap_fixed]* @_ZL4sine, i32 0, i32 1085), double 0x3FEBD36EDFFFF15F)
  call void @_ZN8ap_fixedILi24ELi1EL9ap_q_mode5EL9ap_o_mode3ELi0EEC1Ed(%struct.ap_fixed* getelementptr inbounds ([8192 x %struct.ap_fixed]* @_ZL4sine, i32 0, i32 1086), double 0x3FEBD58C1FFFF5AF)
  call void @_ZN8ap_fixedILi24ELi1EL9ap_q_mode5EL9ap_o_mode3ELi0EEC1Ed(%struct.ap_fixed* getelementptr inbounds ([8192 x %struct.ap_fixed]* @_ZL4sine, i32 0, i32 1087), double 0x3FEBD7A8E0000E5F)
  call void @_ZN8ap_fixedILi24ELi1EL9ap_q_mode5EL9ap_o_mode3ELi0EEC1Ed(%struct.ap_fixed* getelementptr inbounds ([8192 x %struct.ap_fixed]* @_ZL4sine, i32 0, i32 1088), double 0x3FEBD9C51FFFF511)
  call void @_ZN8ap_fixedILi24ELi1EL9ap_q_mode5EL9ap_o_mode3ELi0EEC1Ed(%struct.ap_fixed* getelementptr inbounds ([8192 x %struct.ap_fixed]* @_ZL4sine, i32 0, i32 1089), double 0x3FEBDBE0FFFFFCA2)
  call void @_ZN8ap_fixedILi24ELi1EL9ap_q_mode5EL9ap_o_mode3ELi0EEC1Ed(%struct.ap_fixed* getelementptr inbounds ([8192 x %struct.ap_fixed]* @_ZL4sine, i32 0, i32 1090), double 0x3FEBDDFC5FFFF564)
  call void @_ZN8ap_fixedILi24ELi1EL9ap_q_mode5EL9ap_o_mode3ELi0EEC1Ed(%struct.ap_fixed* getelementptr inbounds ([8192 x %struct.ap_fixed]* @_ZL4sine, i32 0, i32 1091), double 0x3FEBE01760000F06)
  call void @_ZN8ap_fixedILi24ELi1EL9ap_q_mode5EL9ap_o_mode3ELi0EEC1Ed(%struct.ap_fixed* getelementptr inbounds ([8192 x %struct.ap_fixed]* @_ZL4sine, i32 0, i32 1092), double 0x3FEBE231DFFFF6AA)
  call void @_ZN8ap_fixedILi24ELi1EL9ap_q_mode5EL9ap_o_mode3ELi0EEC1Ed(%struct.ap_fixed* getelementptr inbounds ([8192 x %struct.ap_fixed]* @_ZL4sine, i32 0, i32 1093), double 0x3FEBE44BDFFFF2AD)
  call void @_ZN8ap_fixedILi24ELi1EL9ap_q_mode5EL9ap_o_mode3ELi0EEC1Ed(%struct.ap_fixed* getelementptr inbounds ([8192 x %struct.ap_fixed]* @_ZL4sine, i32 0, i32 1094), double 0x3FEBE66560000311)
  call void @_ZN8ap_fixedILi24ELi1EL9ap_q_mode5EL9ap_o_mode3ELi0EEC1Ed(%struct.ap_fixed* getelementptr inbounds ([8192 x %struct.ap_fixed]* @_ZL4sine, i32 0, i32 1095), double 0x3FEBE87E80001125)
  call void @_ZN8ap_fixedILi24ELi1EL9ap_q_mode5EL9ap_o_mode3ELi0EEC1Ed(%struct.ap_fixed* getelementptr inbounds ([8192 x %struct.ap_fixed]* @_ZL4sine, i32 0, i32 1096), double 0x3FEBEA972000106A)
  call void @_ZN8ap_fixedILi24ELi1EL9ap_q_mode5EL9ap_o_mode3ELi0EEC1Ed(%struct.ap_fixed* getelementptr inbounds ([8192 x %struct.ap_fixed]* @_ZL4sine, i32 0, i32 1097), double 0x3FEBECAF60000D60)
  call void @_ZN8ap_fixedILi24ELi1EL9ap_q_mode5EL9ap_o_mode3ELi0EEC1Ed(%struct.ap_fixed* getelementptr inbounds ([8192 x %struct.ap_fixed]* @_ZL4sine, i32 0, i32 1098), double 0x3FEBEEC71FFFFB86)
  call void @_ZN8ap_fixedILi24ELi1EL9ap_q_mode5EL9ap_o_mode3ELi0EEC1Ed(%struct.ap_fixed* getelementptr inbounds ([8192 x %struct.ap_fixed]* @_ZL4sine, i32 0, i32 1099), double 0x3FEBF0DE5FFFFE0D)
  call void @_ZN8ap_fixedILi24ELi1EL9ap_q_mode5EL9ap_o_mode3ELi0EEC1Ed(%struct.ap_fixed* getelementptr inbounds ([8192 x %struct.ap_fixed]* @_ZL4sine, i32 0, i32 1100), double 0x3FEBF2F51FFFF1C4)
  call void @_ZN8ap_fixedILi24ELi1EL9ap_q_mode5EL9ap_o_mode3ELi0EEC1Ed(%struct.ap_fixed* getelementptr inbounds ([8192 x %struct.ap_fixed]* @_ZL4sine, i32 0, i32 1101), double 0x3FEBF50B8000065B)
  call void @_ZN8ap_fixedILi24ELi1EL9ap_q_mode5EL9ap_o_mode3ELi0EEC1Ed(%struct.ap_fixed* getelementptr inbounds ([8192 x %struct.ap_fixed]* @_ZL4sine, i32 0, i32 1102), double 0x3FEBF72160000C23)
  call void @_ZN8ap_fixedILi24ELi1EL9ap_q_mode5EL9ap_o_mode3ELi0EEC1Ed(%struct.ap_fixed* getelementptr inbounds ([8192 x %struct.ap_fixed]* @_ZL4sine, i32 0, i32 1103), double 0x3FEBF936C000031C)
  call void @_ZN8ap_fixedILi24ELi1EL9ap_q_mode5EL9ap_o_mode3ELi0EEC1Ed(%struct.ap_fixed* getelementptr inbounds ([8192 x %struct.ap_fixed]* @_ZL4sine, i32 0, i32 1104), double 0x3FEBFB4BBFFFF7C5)
  call void @_ZN8ap_fixedILi24ELi1EL9ap_q_mode5EL9ap_o_mode3ELi0EEC1Ed(%struct.ap_fixed* getelementptr inbounds ([8192 x %struct.ap_fixed]* @_ZL4sine, i32 0, i32 1105), double 0x3FEBFD60400000CF)
  call void @_ZN8ap_fixedILi24ELi1EL9ap_q_mode5EL9ap_o_mode3ELi0EEC1Ed(%struct.ap_fixed* getelementptr inbounds ([8192 x %struct.ap_fixed]* @_ZL4sine, i32 0, i32 1106), double 0x3FEBFF743FFFFB09)
  call void @_ZN8ap_fixedILi24ELi1EL9ap_q_mode5EL9ap_o_mode3ELi0EEC1Ed(%struct.ap_fixed* getelementptr inbounds ([8192 x %struct.ap_fixed]* @_ZL4sine, i32 0, i32 1107), double 0x3FEC0187DFFFF2F4)
  call void @_ZN8ap_fixedILi24ELi1EL9ap_q_mode5EL9ap_o_mode3ELi0EEC1Ed(%struct.ap_fixed* getelementptr inbounds ([8192 x %struct.ap_fixed]* @_ZL4sine, i32 0, i32 1108), double 0x3FEC039AFFFFFF3E)
  call void @_ZN8ap_fixedILi24ELi1EL9ap_q_mode5EL9ap_o_mode3ELi0EEC1Ed(%struct.ap_fixed* getelementptr inbounds ([8192 x %struct.ap_fixed]* @_ZL4sine, i32 0, i32 1109), double 0x3FEC05AD9FFFFCBA)
  call void @_ZN8ap_fixedILi24ELi1EL9ap_q_mode5EL9ap_o_mode3ELi0EEC1Ed(%struct.ap_fixed* getelementptr inbounds ([8192 x %struct.ap_fixed]* @_ZL4sine, i32 0, i32 1110), double 0x3FEC07BFDFFFF7E6)
  call void @_ZN8ap_fixedILi24ELi1EL9ap_q_mode5EL9ap_o_mode3ELi0EEC1Ed(%struct.ap_fixed* getelementptr inbounds ([8192 x %struct.ap_fixed]* @_ZL4sine, i32 0, i32 1111), double 0x3FEC09D1A0000773)
  call void @_ZN8ap_fixedILi24ELi1EL9ap_q_mode5EL9ap_o_mode3ELi0EEC1Ed(%struct.ap_fixed* getelementptr inbounds ([8192 x %struct.ap_fixed]* @_ZL4sine, i32 0, i32 1112), double 0x3FEC0BE2E0000830)
  call void @_ZN8ap_fixedILi24ELi1EL9ap_q_mode5EL9ap_o_mode3ELi0EEC1Ed(%struct.ap_fixed* getelementptr inbounds ([8192 x %struct.ap_fixed]* @_ZL4sine, i32 0, i32 1113), double 0x3FEC0DF39FFFFA1E)
  call void @_ZN8ap_fixedILi24ELi1EL9ap_q_mode5EL9ap_o_mode3ELi0EEC1Ed(%struct.ap_fixed* getelementptr inbounds ([8192 x %struct.ap_fixed]* @_ZL4sine, i32 0, i32 1114), double 0x3FEC100400000CEB)
  call void @_ZN8ap_fixedILi24ELi1EL9ap_q_mode5EL9ap_o_mode3ELi0EEC1Ed(%struct.ap_fixed* getelementptr inbounds ([8192 x %struct.ap_fixed]* @_ZL4sine, i32 0, i32 1115), double 0x3FEC1213E00010EA)
  call void @_ZN8ap_fixedILi24ELi1EL9ap_q_mode5EL9ap_o_mode3ELi0EEC1Ed(%struct.ap_fixed* getelementptr inbounds ([8192 x %struct.ap_fixed]* @_ZL4sine, i32 0, i32 1116), double 0x3FEC142340000619)
  call void @_ZN8ap_fixedILi24ELi1EL9ap_q_mode5EL9ap_o_mode3ELi0EEC1Ed(%struct.ap_fixed* getelementptr inbounds ([8192 x %struct.ap_fixed]* @_ZL4sine, i32 0, i32 1117), double 0x3FEC16323FFFF8F9)
  call void @_ZN8ap_fixedILi24ELi1EL9ap_q_mode5EL9ap_o_mode3ELi0EEC1Ed(%struct.ap_fixed* getelementptr inbounds ([8192 x %struct.ap_fixed]* @_ZL4sine, i32 0, i32 1118), double 0x3FEC18409FFFF3BA)
  call void @_ZN8ap_fixedILi24ELi1EL9ap_q_mode5EL9ap_o_mode3ELi0EEC1Ed(%struct.ap_fixed* getelementptr inbounds ([8192 x %struct.ap_fixed]* @_ZL4sine, i32 0, i32 1119), double 0x3FEC1A4EBFFFF8AA)
  call void @_ZN8ap_fixedILi24ELi1EL9ap_q_mode5EL9ap_o_mode3ELi0EEC1Ed(%struct.ap_fixed* getelementptr inbounds ([8192 x %struct.ap_fixed]* @_ZL4sine, i32 0, i32 1120), double 0x3FEC1C5C4000057B)
  call void @_ZN8ap_fixedILi24ELi1EL9ap_q_mode5EL9ap_o_mode3ELi0EEC1Ed(%struct.ap_fixed* getelementptr inbounds ([8192 x %struct.ap_fixed]* @_ZL4sine, i32 0, i32 1121), double 0x3FEC1E6960000FFC)
  call void @_ZN8ap_fixedILi24ELi1EL9ap_q_mode5EL9ap_o_mode3ELi0EEC1Ed(%struct.ap_fixed* getelementptr inbounds ([8192 x %struct.ap_fixed]* @_ZL4sine, i32 0, i32 1122), double 0x3FEC2075DFFFFF2F)
  call void @_ZN8ap_fixedILi24ELi1EL9ap_q_mode5EL9ap_o_mode3ELi0EEC1Ed(%struct.ap_fixed* getelementptr inbounds ([8192 x %struct.ap_fixed]* @_ZL4sine, i32 0, i32 1123), double 0x3FEC22821FFFF892)
  call void @_ZN8ap_fixedILi24ELi1EL9ap_q_mode5EL9ap_o_mode3ELi0EEC1Ed(%struct.ap_fixed* getelementptr inbounds ([8192 x %struct.ap_fixed]* @_ZL4sine, i32 0, i32 1124), double 0x3FEC248DBFFFF9D5)
  call void @_ZN8ap_fixedILi24ELi1EL9ap_q_mode5EL9ap_o_mode3ELi0EEC1Ed(%struct.ap_fixed* getelementptr inbounds ([8192 x %struct.ap_fixed]* @_ZL4sine, i32 0, i32 1125), double 0x3FEC2698FFFFF8C9)
  call void @_ZN8ap_fixedILi24ELi1EL9ap_q_mode5EL9ap_o_mode3ELi0EEC1Ed(%struct.ap_fixed* getelementptr inbounds ([8192 x %struct.ap_fixed]* @_ZL4sine, i32 0, i32 1126), double 0x3FEC28A3C0000C1D)
  call void @_ZN8ap_fixedILi24ELi1EL9ap_q_mode5EL9ap_o_mode3ELi0EEC1Ed(%struct.ap_fixed* getelementptr inbounds ([8192 x %struct.ap_fixed]* @_ZL4sine, i32 0, i32 1127), double 0x3FEC2AAE000010A1)
  call void @_ZN8ap_fixedILi24ELi1EL9ap_q_mode5EL9ap_o_mode3ELi0EEC1Ed(%struct.ap_fixed* getelementptr inbounds ([8192 x %struct.ap_fixed]* @_ZL4sine, i32 0, i32 1128), double 0x3FEC2CB7C0000657)
  call void @_ZN8ap_fixedILi24ELi1EL9ap_q_mode5EL9ap_o_mode3ELi0EEC1Ed(%struct.ap_fixed* getelementptr inbounds ([8192 x %struct.ap_fixed]* @_ZL4sine, i32 0, i32 1129), double 0x3FEC2EC11FFFF9BD)
  call void @_ZN8ap_fixedILi24ELi1EL9ap_q_mode5EL9ap_o_mode3ELi0EEC1Ed(%struct.ap_fixed* getelementptr inbounds ([8192 x %struct.ap_fixed]* @_ZL4sine, i32 0, i32 1130), double 0x3FEC30CA00000183)
  call void @_ZN8ap_fixedILi24ELi1EL9ap_q_mode5EL9ap_o_mode3ELi0EEC1Ed(%struct.ap_fixed* getelementptr inbounds ([8192 x %struct.ap_fixed]* @_ZL4sine, i32 0, i32 1131), double 0x3FEC32D25FFFFA7A)
  call void @_ZN8ap_fixedILi24ELi1EL9ap_q_mode5EL9ap_o_mode3ELi0EEC1Ed(%struct.ap_fixed* getelementptr inbounds ([8192 x %struct.ap_fixed]* @_ZL4sine, i32 0, i32 1132), double 0x3FEC34DA400007D1)
  call void @_ZN8ap_fixedILi24ELi1EL9ap_q_mode5EL9ap_o_mode3ELi0EEC1Ed(%struct.ap_fixed* getelementptr inbounds ([8192 x %struct.ap_fixed]* @_ZL4sine, i32 0, i32 1133), double 0x3FEC36E1BFFFEFA9)
  call void @_ZN8ap_fixedILi24ELi1EL9ap_q_mode5EL9ap_o_mode3ELi0EEC1Ed(%struct.ap_fixed* getelementptr inbounds ([8192 x %struct.ap_fixed]* @_ZL4sine, i32 0, i32 1134), double 0x3FEC38E8C0000F11)
  call void @_ZN8ap_fixedILi24ELi1EL9ap_q_mode5EL9ap_o_mode3ELi0EEC1Ed(%struct.ap_fixed* getelementptr inbounds ([8192 x %struct.ap_fixed]* @_ZL4sine, i32 0, i32 1135), double 0x3FEC3AEF3FFFFC7A)
  call void @_ZN8ap_fixedILi24ELi1EL9ap_q_mode5EL9ap_o_mode3ELi0EEC1Ed(%struct.ap_fixed* getelementptr inbounds ([8192 x %struct.ap_fixed]* @_ZL4sine, i32 0, i32 1136), double 0x3FEC3CF53FFFFE44)
  call void @_ZN8ap_fixedILi24ELi1EL9ap_q_mode5EL9ap_o_mode3ELi0EEC1Ed(%struct.ap_fixed* getelementptr inbounds ([8192 x %struct.ap_fixed]* @_ZL4sine, i32 0, i32 1137), double 0x3FEC3EFADFFFFDBE)
  call void @_ZN8ap_fixedILi24ELi1EL9ap_q_mode5EL9ap_o_mode3ELi0EEC1Ed(%struct.ap_fixed* getelementptr inbounds ([8192 x %struct.ap_fixed]* @_ZL4sine, i32 0, i32 1138), double 0x3FEC410000001198)
  call void @_ZN8ap_fixedILi24ELi1EL9ap_q_mode5EL9ap_o_mode3ELi0EEC1Ed(%struct.ap_fixed* getelementptr inbounds ([8192 x %struct.ap_fixed]* @_ZL4sine, i32 0, i32 1139), double 0x3FEC43049FFFF373)
  call void @_ZN8ap_fixedILi24ELi1EL9ap_q_mode5EL9ap_o_mode3ELi0EEC1Ed(%struct.ap_fixed* getelementptr inbounds ([8192 x %struct.ap_fixed]* @_ZL4sine, i32 0, i32 1140), double 0x3FEC4508C0000CDE)
  call void @_ZN8ap_fixedILi24ELi1EL9ap_q_mode5EL9ap_o_mode3ELi0EEC1Ed(%struct.ap_fixed* getelementptr inbounds ([8192 x %struct.ap_fixed]* @_ZL4sine, i32 0, i32 1141), double 0x3FEC470C800000CA)
  call void @_ZN8ap_fixedILi24ELi1EL9ap_q_mode5EL9ap_o_mode3ELi0EEC1Ed(%struct.ap_fixed* getelementptr inbounds ([8192 x %struct.ap_fixed]* @_ZL4sine, i32 0, i32 1142), double 0x3FEC490F9FFFFC97)
  call void @_ZN8ap_fixedILi24ELi1EL9ap_q_mode5EL9ap_o_mode3ELi0EEC1Ed(%struct.ap_fixed* getelementptr inbounds ([8192 x %struct.ap_fixed]* @_ZL4sine, i32 0, i32 1143), double 0x3FEC4B125FFFF614)
  call void @_ZN8ap_fixedILi24ELi1EL9ap_q_mode5EL9ap_o_mode3ELi0EEC1Ed(%struct.ap_fixed* getelementptr inbounds ([8192 x %struct.ap_fixed]* @_ZL4sine, i32 0, i32 1144), double 0x3FEC4D14A00003F1)
  call void @_ZN8ap_fixedILi24ELi1EL9ap_q_mode5EL9ap_o_mode3ELi0EEC1Ed(%struct.ap_fixed* getelementptr inbounds ([8192 x %struct.ap_fixed]* @_ZL4sine, i32 0, i32 1145), double 0x3FEC4F1680000F7F)
  call void @_ZN8ap_fixedILi24ELi1EL9ap_q_mode5EL9ap_o_mode3ELi0EEC1Ed(%struct.ap_fixed* getelementptr inbounds ([8192 x %struct.ap_fixed]* @_ZL4sine, i32 0, i32 1146), double 0x3FEC5117BFFFFFBE)
  call void @_ZN8ap_fixedILi24ELi1EL9ap_q_mode5EL9ap_o_mode3ELi0EEC1Ed(%struct.ap_fixed* getelementptr inbounds ([8192 x %struct.ap_fixed]* @_ZL4sine, i32 0, i32 1147), double 0x3FEC5318A00010DD)
  call void @_ZN8ap_fixedILi24ELi1EL9ap_q_mode5EL9ap_o_mode3ELi0EEC1Ed(%struct.ap_fixed* getelementptr inbounds ([8192 x %struct.ap_fixed]* @_ZL4sine, i32 0, i32 1148), double 0x3FEC5518FFFFEFFD)
  call void @_ZN8ap_fixedILi24ELi1EL9ap_q_mode5EL9ap_o_mode3ELi0EEC1Ed(%struct.ap_fixed* getelementptr inbounds ([8192 x %struct.ap_fixed]* @_ZL4sine, i32 0, i32 1149), double 0x3FEC5718E00006AD)
  call void @_ZN8ap_fixedILi24ELi1EL9ap_q_mode5EL9ap_o_mode3ELi0EEC1Ed(%struct.ap_fixed* getelementptr inbounds ([8192 x %struct.ap_fixed]* @_ZL4sine, i32 0, i32 1150), double 0x3FEC591840000E8D)
  call void @_ZN8ap_fixedILi24ELi1EL9ap_q_mode5EL9ap_o_mode3ELi0EEC1Ed(%struct.ap_fixed* getelementptr inbounds ([8192 x %struct.ap_fixed]* @_ZL4sine, i32 0, i32 1151), double 0x3FEC5B173FFFF0EF)
  call void @_ZN8ap_fixedILi24ELi1EL9ap_q_mode5EL9ap_o_mode3ELi0EEC1Ed(%struct.ap_fixed* getelementptr inbounds ([8192 x %struct.ap_fixed]* @_ZL4sine, i32 0, i32 1152), double 0x3FEC5D15C0000AE0)
  call void @_ZN8ap_fixedILi24ELi1EL9ap_q_mode5EL9ap_o_mode3ELi0EEC1Ed(%struct.ap_fixed* getelementptr inbounds ([8192 x %struct.ap_fixed]* @_ZL4sine, i32 0, i32 1153), double 0x3FEC5F13BFFFF2D3)
  call void @_ZN8ap_fixedILi24ELi1EL9ap_q_mode5EL9ap_o_mode3ELi0EEC1Ed(%struct.ap_fixed* getelementptr inbounds ([8192 x %struct.ap_fixed]* @_ZL4sine, i32 0, i32 1154), double 0x3FEC61113FFFEF26)
  call void @_ZN8ap_fixedILi24ELi1EL9ap_q_mode5EL9ap_o_mode3ELi0EEC1Ed(%struct.ap_fixed* getelementptr inbounds ([8192 x %struct.ap_fixed]* @_ZL4sine, i32 0, i32 1155), double 0x3FEC630E3FFFFFD8)
  call void @_ZN8ap_fixedILi24ELi1EL9ap_q_mode5EL9ap_o_mode3ELi0EEC1Ed(%struct.ap_fixed* getelementptr inbounds ([8192 x %struct.ap_fixed]* @_ZL4sine, i32 0, i32 1156), double 0x3FEC650AE0000E3C)
  call void @_ZN8ap_fixedILi24ELi1EL9ap_q_mode5EL9ap_o_mode3ELi0EEC1Ed(%struct.ap_fixed* getelementptr inbounds ([8192 x %struct.ap_fixed]* @_ZL4sine, i32 0, i32 1157), double 0x3FEC6706E0000150)
  call void @_ZN8ap_fixedILi24ELi1EL9ap_q_mode5EL9ap_o_mode3ELi0EEC1Ed(%struct.ap_fixed* getelementptr inbounds ([8192 x %struct.ap_fixed]* @_ZL4sine, i32 0, i32 1158), double 0x3FEC69027FFFF216)
  call void @_ZN8ap_fixedILi24ELi1EL9ap_q_mode5EL9ap_o_mode3ELi0EEC1Ed(%struct.ap_fixed* getelementptr inbounds ([8192 x %struct.ap_fixed]* @_ZL4sine, i32 0, i32 1159), double 0x3FEC6AFD9FFFF73B)
  call void @_ZN8ap_fixedILi24ELi1EL9ap_q_mode5EL9ap_o_mode3ELi0EEC1Ed(%struct.ap_fixed* getelementptr inbounds ([8192 x %struct.ap_fixed]* @_ZL4sine, i32 0, i32 1160), double 0x3FEC6CF8400010C0)
  call void @_ZN8ap_fixedILi24ELi1EL9ap_q_mode5EL9ap_o_mode3ELi0EEC1Ed(%struct.ap_fixed* getelementptr inbounds ([8192 x %struct.ap_fixed]* @_ZL4sine, i32 0, i32 1161), double 0x3FEC6EF2800004C7)
  call void @_ZN8ap_fixedILi24ELi1EL9ap_q_mode5EL9ap_o_mode3ELi0EEC1Ed(%struct.ap_fixed* getelementptr inbounds ([8192 x %struct.ap_fixed]* @_ZL4sine, i32 0, i32 1162), double 0x3FEC70EC200000AE)
  call void @_ZN8ap_fixedILi24ELi1EL9ap_q_mode5EL9ap_o_mode3ELi0EEC1Ed(%struct.ap_fixed* getelementptr inbounds ([8192 x %struct.ap_fixed]* @_ZL4sine, i32 0, i32 1163), double 0x3FEC72E55FFFFA45)
  call void @_ZN8ap_fixedILi24ELi1EL9ap_q_mode5EL9ap_o_mode3ELi0EEC1Ed(%struct.ap_fixed* getelementptr inbounds ([8192 x %struct.ap_fixed]* @_ZL4sine, i32 0, i32 1164), double 0x3FEC74DE2000083D)
  call void @_ZN8ap_fixedILi24ELi1EL9ap_q_mode5EL9ap_o_mode3ELi0EEC1Ed(%struct.ap_fixed* getelementptr inbounds ([8192 x %struct.ap_fixed]* @_ZL4sine, i32 0, i32 1165), double 0x3FEC76D660000765)
  call void @_ZN8ap_fixedILi24ELi1EL9ap_q_mode5EL9ap_o_mode3ELi0EEC1Ed(%struct.ap_fixed* getelementptr inbounds ([8192 x %struct.ap_fixed]* @_ZL4sine, i32 0, i32 1166), double 0x3FEC78CE1FFFF7BF)
  call void @_ZN8ap_fixedILi24ELi1EL9ap_q_mode5EL9ap_o_mode3ELi0EEC1Ed(%struct.ap_fixed* getelementptr inbounds ([8192 x %struct.ap_fixed]* @_ZL4sine, i32 0, i32 1167), double 0x3FEC7AC55FFFFC78)
  call void @_ZN8ap_fixedILi24ELi1EL9ap_q_mode5EL9ap_o_mode3ELi0EEC1Ed(%struct.ap_fixed* getelementptr inbounds ([8192 x %struct.ap_fixed]* @_ZL4sine, i32 0, i32 1168), double 0x3FEC7CBC3FFFFEE2)
  call void @_ZN8ap_fixedILi24ELi1EL9ap_q_mode5EL9ap_o_mode3ELi0EEC1Ed(%struct.ap_fixed* getelementptr inbounds ([8192 x %struct.ap_fixed]* @_ZL4sine, i32 0, i32 1169), double 0x3FEC7EB28000092D)
  call void @_ZN8ap_fixedILi24ELi1EL9ap_q_mode5EL9ap_o_mode3ELi0EEC1Ed(%struct.ap_fixed* getelementptr inbounds ([8192 x %struct.ap_fixed]* @_ZL4sine, i32 0, i32 1170), double 0x3FEC80A860001127)
  call void @_ZN8ap_fixedILi24ELi1EL9ap_q_mode5EL9ap_o_mode3ELi0EEC1Ed(%struct.ap_fixed* getelementptr inbounds ([8192 x %struct.ap_fixed]* @_ZL4sine, i32 0, i32 1171), double 0x3FEC829DC0000A53)
  call void @_ZN8ap_fixedILi24ELi1EL9ap_q_mode5EL9ap_o_mode3ELi0EEC1Ed(%struct.ap_fixed* getelementptr inbounds ([8192 x %struct.ap_fixed]* @_ZL4sine, i32 0, i32 1172), double 0x3FEC84929FFFF4B0)
  call void @_ZN8ap_fixedILi24ELi1EL9ap_q_mode5EL9ap_o_mode3ELi0EEC1Ed(%struct.ap_fixed* getelementptr inbounds ([8192 x %struct.ap_fixed]* @_ZL4sine, i32 0, i32 1173), double 0x3FEC86871FFFFFEC)
  call void @_ZN8ap_fixedILi24ELi1EL9ap_q_mode5EL9ap_o_mode3ELi0EEC1Ed(%struct.ap_fixed* getelementptr inbounds ([8192 x %struct.ap_fixed]* @_ZL4sine, i32 0, i32 1174), double 0x3FEC887AFFFFEFDA)
  call void @_ZN8ap_fixedILi24ELi1EL9ap_q_mode5EL9ap_o_mode3ELi0EEC1Ed(%struct.ap_fixed* getelementptr inbounds ([8192 x %struct.ap_fixed]* @_ZL4sine, i32 0, i32 1175), double 0x3FEC8A6E5FFFF428)
  call void @_ZN8ap_fixedILi24ELi1EL9ap_q_mode5EL9ap_o_mode3ELi0EEC1Ed(%struct.ap_fixed* getelementptr inbounds ([8192 x %struct.ap_fixed]* @_ZL4sine, i32 0, i32 1176), double 0x3FEC8C615FFFF626)
  call void @_ZN8ap_fixedILi24ELi1EL9ap_q_mode5EL9ap_o_mode3ELi0EEC1Ed(%struct.ap_fixed* getelementptr inbounds ([8192 x %struct.ap_fixed]* @_ZL4sine, i32 0, i32 1177), double 0x3FEC8E53E0000C84)
  call void @_ZN8ap_fixedILi24ELi1EL9ap_q_mode5EL9ap_o_mode3ELi0EEC1Ed(%struct.ap_fixed* getelementptr inbounds ([8192 x %struct.ap_fixed]* @_ZL4sine, i32 0, i32 1178), double 0x3FEC9045DFFFF0E4)
  call void @_ZN8ap_fixedILi24ELi1EL9ap_q_mode5EL9ap_o_mode3ELi0EEC1Ed(%struct.ap_fixed* getelementptr inbounds ([8192 x %struct.ap_fixed]* @_ZL4sine, i32 0, i32 1179), double 0x3FEC923760000CD3)
  call void @_ZN8ap_fixedILi24ELi1EL9ap_q_mode5EL9ap_o_mode3ELi0EEC1Ed(%struct.ap_fixed* getelementptr inbounds ([8192 x %struct.ap_fixed]* @_ZL4sine, i32 0, i32 1180), double 0x3FEC94285FFFF6C4)
  call void @_ZN8ap_fixedILi24ELi1EL9ap_q_mode5EL9ap_o_mode3ELi0EEC1Ed(%struct.ap_fixed* getelementptr inbounds ([8192 x %struct.ap_fixed]* @_ZL4sine, i32 0, i32 1181), double 0x3FEC9618DFFFF515)
  call void @_ZN8ap_fixedILi24ELi1EL9ap_q_mode5EL9ap_o_mode3ELi0EEC1Ed(%struct.ap_fixed* getelementptr inbounds ([8192 x %struct.ap_fixed]* @_ZL4sine, i32 0, i32 1182), double 0x3FEC9808FFFFF116)
  call void @_ZN8ap_fixedILi24ELi1EL9ap_q_mode5EL9ap_o_mode3ELi0EEC1Ed(%struct.ap_fixed* getelementptr inbounds ([8192 x %struct.ap_fixed]* @_ZL4sine, i32 0, i32 1183), double 0x3FEC99F87FFFF4F8)
  call void @_ZN8ap_fixedILi24ELi1EL9ap_q_mode5EL9ap_o_mode3ELi0EEC1Ed(%struct.ap_fixed* getelementptr inbounds ([8192 x %struct.ap_fixed]* @_ZL4sine, i32 0, i32 1184), double 0x3FEC9BE79FFFF68B)
  call void @_ZN8ap_fixedILi24ELi1EL9ap_q_mode5EL9ap_o_mode3ELi0EEC1Ed(%struct.ap_fixed* getelementptr inbounds ([8192 x %struct.ap_fixed]* @_ZL4sine, i32 0, i32 1185), double 0x3FEC9DD640000C7D)
  call void @_ZN8ap_fixedILi24ELi1EL9ap_q_mode5EL9ap_o_mode3ELi0EEC1Ed(%struct.ap_fixed* getelementptr inbounds ([8192 x %struct.ap_fixed]* @_ZL4sine, i32 0, i32 1186), double 0x3FEC9FC45FFFF072)
  call void @_ZN8ap_fixedILi24ELi1EL9ap_q_mode5EL9ap_o_mode3ELi0EEC1Ed(%struct.ap_fixed* getelementptr inbounds ([8192 x %struct.ap_fixed]* @_ZL4sine, i32 0, i32 1187), double 0x3FECA1B200000BF5)
  call void @_ZN8ap_fixedILi24ELi1EL9ap_q_mode5EL9ap_o_mode3ELi0EEC1Ed(%struct.ap_fixed* getelementptr inbounds ([8192 x %struct.ap_fixed]* @_ZL4sine, i32 0, i32 1188), double 0x3FECA39F1FFFF57A)
  call void @_ZN8ap_fixedILi24ELi1EL9ap_q_mode5EL9ap_o_mode3ELi0EEC1Ed(%struct.ap_fixed* getelementptr inbounds ([8192 x %struct.ap_fixed]* @_ZL4sine, i32 0, i32 1189), double 0x3FECA58BBFFFF35F)
  call void @_ZN8ap_fixedILi24ELi1EL9ap_q_mode5EL9ap_o_mode3ELi0EEC1Ed(%struct.ap_fixed* getelementptr inbounds ([8192 x %struct.ap_fixed]* @_ZL4sine, i32 0, i32 1190), double 0x3FECA777E00005A5)
  call void @_ZN8ap_fixedILi24ELi1EL9ap_q_mode5EL9ap_o_mode3ELi0EEC1Ed(%struct.ap_fixed* getelementptr inbounds ([8192 x %struct.ap_fixed]* @_ZL4sine, i32 0, i32 1191), double 0x3FECA9639FFFF26B)
  call void @_ZN8ap_fixedILi24ELi1EL9ap_q_mode5EL9ap_o_mode3ELi0EEC1Ed(%struct.ap_fixed* getelementptr inbounds ([8192 x %struct.ap_fixed]* @_ZL4sine, i32 0, i32 1192), double 0x3FECAB4EC0000A42)
  call void @_ZN8ap_fixedILi24ELi1EL9ap_q_mode5EL9ap_o_mode3ELi0EEC1Ed(%struct.ap_fixed* getelementptr inbounds ([8192 x %struct.ap_fixed]* @_ZL4sine, i32 0, i32 1193), double 0x3FECAD397FFFFC99)
  call void @_ZN8ap_fixedILi24ELi1EL9ap_q_mode5EL9ap_o_mode3ELi0EEC1Ed(%struct.ap_fixed* getelementptr inbounds ([8192 x %struct.ap_fixed]* @_ZL4sine, i32 0, i32 1194), double 0x3FECAF239FFFF6D1)
  call void @_ZN8ap_fixedILi24ELi1EL9ap_q_mode5EL9ap_o_mode3ELi0EEC1Ed(%struct.ap_fixed* getelementptr inbounds ([8192 x %struct.ap_fixed]* @_ZL4sine, i32 0, i32 1195), double 0x3FECB10D5FFFEEBA)
  call void @_ZN8ap_fixedILi24ELi1EL9ap_q_mode5EL9ap_o_mode3ELi0EEC1Ed(%struct.ap_fixed* getelementptr inbounds ([8192 x %struct.ap_fixed]* @_ZL4sine, i32 0, i32 1196), double 0x3FECB2F69FFFFB02)
  call void @_ZN8ap_fixedILi24ELi1EL9ap_q_mode5EL9ap_o_mode3ELi0EEC1Ed(%struct.ap_fixed* getelementptr inbounds ([8192 x %struct.ap_fixed]* @_ZL4sine, i32 0, i32 1197), double 0x3FECB4DF5FFFF87C)
  call void @_ZN8ap_fixedILi24ELi1EL9ap_q_mode5EL9ap_o_mode3ELi0EEC1Ed(%struct.ap_fixed* getelementptr inbounds ([8192 x %struct.ap_fixed]* @_ZL4sine, i32 0, i32 1198), double 0x3FECB6C7A0000A55)
  call void @_ZN8ap_fixedILi24ELi1EL9ap_q_mode5EL9ap_o_mode3ELi0EEC1Ed(%struct.ap_fixed* getelementptr inbounds ([8192 x %struct.ap_fixed]* @_ZL4sine, i32 0, i32 1199), double 0x3FECB8AF60000D60)
  call void @_ZN8ap_fixedILi24ELi1EL9ap_q_mode5EL9ap_o_mode3ELi0EEC1Ed(%struct.ap_fixed* getelementptr inbounds ([8192 x %struct.ap_fixed]* @_ZL4sine, i32 0, i32 1200), double 0x3FECBA96A000019B)
  call void @_ZN8ap_fixedILi24ELi1EL9ap_q_mode5EL9ap_o_mode3ELi0EEC1Ed(%struct.ap_fixed* getelementptr inbounds ([8192 x %struct.ap_fixed]* @_ZL4sine, i32 0, i32 1201), double 0x3FECBC7D7FFFF387)
  call void @_ZN8ap_fixedILi24ELi1EL9ap_q_mode5EL9ap_o_mode3ELi0EEC1Ed(%struct.ap_fixed* getelementptr inbounds ([8192 x %struct.ap_fixed]* @_ZL4sine, i32 0, i32 1202), double 0x3FECBE63C0001083)
  call void @_ZN8ap_fixedILi24ELi1EL9ap_q_mode5EL9ap_o_mode3ELi0EEC1Ed(%struct.ap_fixed* getelementptr inbounds ([8192 x %struct.ap_fixed]* @_ZL4sine, i32 0, i32 1203), double 0x3FECC049A00007FF)
  call void @_ZN8ap_fixedILi24ELi1EL9ap_q_mode5EL9ap_o_mode3ELi0EEC1Ed(%struct.ap_fixed* getelementptr inbounds ([8192 x %struct.ap_fixed]* @_ZL4sine, i32 0, i32 1204), double 0x3FECC22EE000075D)
  call void @_ZN8ap_fixedILi24ELi1EL9ap_q_mode5EL9ap_o_mode3ELi0EEC1Ed(%struct.ap_fixed* getelementptr inbounds ([8192 x %struct.ap_fixed]* @_ZL4sine, i32 0, i32 1205), double 0x3FECC413C000046A)
  call void @_ZN8ap_fixedILi24ELi1EL9ap_q_mode5EL9ap_o_mode3ELi0EEC1Ed(%struct.ap_fixed* getelementptr inbounds ([8192 x %struct.ap_fixed]* @_ZL4sine, i32 0, i32 1206), double 0x3FECC5F800000959)
  call void @_ZN8ap_fixedILi24ELi1EL9ap_q_mode5EL9ap_o_mode3ELi0EEC1Ed(%struct.ap_fixed* getelementptr inbounds ([8192 x %struct.ap_fixed]* @_ZL4sine, i32 0, i32 1207), double 0x3FECC7DBE0000BF7)
  call void @_ZN8ap_fixedILi24ELi1EL9ap_q_mode5EL9ap_o_mode3ELi0EEC1Ed(%struct.ap_fixed* getelementptr inbounds ([8192 x %struct.ap_fixed]* @_ZL4sine, i32 0, i32 1208), double 0x3FECC9BF3FFFFFC7)
  call void @_ZN8ap_fixedILi24ELi1EL9ap_q_mode5EL9ap_o_mode3ELi0EEC1Ed(%struct.ap_fixed* getelementptr inbounds ([8192 x %struct.ap_fixed]* @_ZL4sine, i32 0, i32 1209), double 0x3FECCBA2200007F6)
  call void @_ZN8ap_fixedILi24ELi1EL9ap_q_mode5EL9ap_o_mode3ELi0EEC1Ed(%struct.ap_fixed* getelementptr inbounds ([8192 x %struct.ap_fixed]* @_ZL4sine, i32 0, i32 1210), double 0x3FECCD8480000157)
  call void @_ZN8ap_fixedILi24ELi1EL9ap_q_mode5EL9ap_o_mode3ELi0EEC1Ed(%struct.ap_fixed* getelementptr inbounds ([8192 x %struct.ap_fixed]* @_ZL4sine, i32 0, i32 1211), double 0x3FECCF6660000F18)
  call void @_ZN8ap_fixedILi24ELi1EL9ap_q_mode5EL9ap_o_mode3ELi0EEC1Ed(%struct.ap_fixed* getelementptr inbounds ([8192 x %struct.ap_fixed]* @_ZL4sine, i32 0, i32 1212), double 0x3FECD147C0000E09)
  call void @_ZN8ap_fixedILi24ELi1EL9ap_q_mode5EL9ap_o_mode3ELi0EEC1Ed(%struct.ap_fixed* getelementptr inbounds ([8192 x %struct.ap_fixed]* @_ZL4sine, i32 0, i32 1213), double 0x3FECD3289FFFFE2C)
  call void @_ZN8ap_fixedILi24ELi1EL9ap_q_mode5EL9ap_o_mode3ELi0EEC1Ed(%struct.ap_fixed* getelementptr inbounds ([8192 x %struct.ap_fixed]* @_ZL4sine, i32 0, i32 1214), double 0x3FECD509000002AE)
  call void @_ZN8ap_fixedILi24ELi1EL9ap_q_mode5EL9ap_o_mode3ELi0EEC1Ed(%struct.ap_fixed* getelementptr inbounds ([8192 x %struct.ap_fixed]* @_ZL4sine, i32 0, i32 1215), double 0x3FECD6E8DFFFF861)
  call void @_ZN8ap_fixedILi24ELi1EL9ap_q_mode5EL9ap_o_mode3ELi0EEC1Ed(%struct.ap_fixed* getelementptr inbounds ([8192 x %struct.ap_fixed]* @_ZL4sine, i32 0, i32 1216), double 0x3FECD8C840000275)
  call void @_ZN8ap_fixedILi24ELi1EL9ap_q_mode5EL9ap_o_mode3ELi0EEC1Ed(%struct.ap_fixed* getelementptr inbounds ([8192 x %struct.ap_fixed]* @_ZL4sine, i32 0, i32 1217), double 0x3FECDAA71FFFFDB9)
